GAS LISTING /tmp/ccwf6aFs.s 			page 1


   1               		.file	"main.c"
   2               	__SREG__ = 0x3f
   3               	__SP_H__ = 0x3e
   4               	__SP_L__ = 0x3d
   5               	__CCP__ = 0x34
   6               	__tmp_reg__ = 0
   7               	__zero_reg__ = 1
   8               		.global __do_copy_data
   9               		.global __do_clear_bss
  10               		.text
  11               	.Ltext0:
  12               		.cfi_sections	.debug_frame
  13               		.type	tick_isr, @function
  14               	tick_isr:
  15               	.LFB261:
  16               		.file 1 "src/main.c"
   1:src/main.c    **** /**
   2:src/main.c    ****  * \file
   3:src/main.c    ****  *
   4:src/main.c    ****  * \brief Empty user application template
   5:src/main.c    ****  *
   6:src/main.c    ****  */
   7:src/main.c    **** 
   8:src/main.c    **** /*
   9:src/main.c    ****  * Include header files for all drivers that have been imported from
  10:src/main.c    ****  * Atmel Software Framework (ASF).
  11:src/main.c    ****  */
  12:src/main.c    **** 
  13:src/main.c    **** #include <stdio.h>
  14:src/main.c    **** #include <string.h>
  15:src/main.c    **** #include <asf.h>
  16:src/main.c    **** #include <util/delay.h>
  17:src/main.c    **** 
  18:src/main.c    **** #define GLOBALS_ALLOC
  19:src/main.c    **** #include "globals.h"
  20:src/main.c    **** #undef GLOBALS_ALLOC
  21:src/main.c    **** 
  22:src/main.c    **** #include "pins.h"
  23:src/main.c    **** #include "usb.h"
  24:src/main.c    **** #include "commands.h"
  25:src/main.c    **** 
  26:src/main.c    **** void spi_init_pins(void);
  27:src/main.c    **** void spi_init_module(void);
  28:src/main.c    **** 
  29:src/main.c    **** 
  30:src/main.c    **** //void (*start_bootloader) (void) = (void (*)(void))(BOOT_SECTION_START/2+0x1FC/2);
  31:src/main.c    **** void (*start_bootloader) (void) = (void (*)(void))(0x40FE);
  32:src/main.c    **** 
  33:src/main.c    **** struct spi_device dummy_device = {
  34:src/main.c    **** 	.id = IOPORT_CREATE_PIN(PORTA, 1)
  35:src/main.c    **** };
  36:src/main.c    **** 
  37:src/main.c    **** 
  38:src/main.c    **** static void strand_output_isr(void)
  39:src/main.c    **** {
  40:src/main.c    **** 	if (dirty) {
  41:src/main.c    **** 		dirty = 0;
GAS LISTING /tmp/ccwf6aFs.s 			page 2


  42:src/main.c    **** 		spi_write_packet(&SPIC, data_buffer, (3 * num_leds));
  43:src/main.c    **** 		PORTA.OUTCLR = (1<<6);
  44:src/main.c    **** 	}
  45:src/main.c    **** }
  46:src/main.c    **** 
  47:src/main.c    **** 
  48:src/main.c    **** static void tick_isr(void)
  49:src/main.c    **** {
  17               		.loc 1 49 0
  18               		.cfi_startproc
  19               	/* prologue: function */
  20               	/* frame size = 0 */
  21               	/* stack size = 0 */
  22               	.L__stack_usage = 0
  50:src/main.c    **** 	ticks++;
  23               		.loc 1 50 0
  24 0000 5091 0000 		lds r21,ticks
  25 0004 4091 0000 		lds r20,ticks+1
  26 0008 3091 0000 		lds r19,ticks+2
  27 000c 2091 0000 		lds r18,ticks+3
  28 0010 9091 0000 		lds r25,ticks+4
  29 0014 F091 0000 		lds r31,ticks+5
  30 0018 E091 0000 		lds r30,ticks+6
  31 001c A091 0000 		lds r26,ticks+7
  32 0020 752F      		mov r23,r21
  33 0022 7F5F      		subi r23,lo8(-(1))
  34 0024 61E0      		ldi r22,lo8(1)
  35 0026 7517      		cp r23,r21
  36 0028 00F0      		brlo .L2
  37 002a 60E0      		ldi r22,lo8(0)
  38               	.L2:
  39 002c 842F      		mov r24,r20
  40 002e 50E0      		ldi r21,lo8(0)
  41 0030 640F      		add r22,r20
  42 0032 41E0      		ldi r20,lo8(1)
  43 0034 6817      		cp r22,r24
  44 0036 00F0      		brlo .L4
  45 0038 40E0      		ldi r20,lo8(0)
  46               	.L4:
  47 003a 542B      		or r21,r20
  48 003c 832F      		mov r24,r19
  49 003e 40E0      		ldi r20,lo8(0)
  50 0040 530F      		add r21,r19
  51 0042 31E0      		ldi r19,lo8(1)
  52 0044 5817      		cp r21,r24
  53 0046 00F0      		brlo .L6
  54 0048 30E0      		ldi r19,lo8(0)
  55               	.L6:
  56 004a 432B      		or r20,r19
  57 004c 822F      		mov r24,r18
  58 004e 30E0      		ldi r19,lo8(0)
  59 0050 420F      		add r20,r18
  60 0052 21E0      		ldi r18,lo8(1)
  61 0054 4817      		cp r20,r24
  62 0056 00F0      		brlo .L8
  63 0058 20E0      		ldi r18,lo8(0)
  64               	.L8:
GAS LISTING /tmp/ccwf6aFs.s 			page 3


  65 005a 322B      		or r19,r18
  66 005c 892F      		mov r24,r25
  67 005e 20E0      		ldi r18,lo8(0)
  68 0060 390F      		add r19,r25
  69 0062 91E0      		ldi r25,lo8(1)
  70 0064 3817      		cp r19,r24
  71 0066 00F0      		brlo .L10
  72 0068 90E0      		ldi r25,lo8(0)
  73               	.L10:
  74 006a 292B      		or r18,r25
  75 006c 8F2F      		mov r24,r31
  76 006e 90E0      		ldi r25,lo8(0)
  77 0070 2F0F      		add r18,r31
  78 0072 F1E0      		ldi r31,lo8(1)
  79 0074 2817      		cp r18,r24
  80 0076 00F0      		brlo .L12
  81 0078 F0E0      		ldi r31,lo8(0)
  82               	.L12:
  83 007a 9F2B      		or r25,r31
  84 007c FE2F      		mov r31,r30
  85 007e 80E0      		ldi r24,lo8(0)
  86 0080 9E0F      		add r25,r30
  87 0082 E1E0      		ldi r30,lo8(1)
  88 0084 9F17      		cp r25,r31
  89 0086 00F0      		brlo .L14
  90 0088 E0E0      		ldi r30,lo8(0)
  91               	.L14:
  92 008a 8E2B      		or r24,r30
  93 008c 8A0F      		add r24,r26
  94 008e 7093 0000 		sts ticks,r23
  95 0092 6093 0000 		sts ticks+1,r22
  96 0096 5093 0000 		sts ticks+2,r21
  97 009a 4093 0000 		sts ticks+3,r20
  98 009e 3093 0000 		sts ticks+4,r19
  99 00a2 2093 0000 		sts ticks+5,r18
 100 00a6 9093 0000 		sts ticks+6,r25
 101 00aa 8093 0000 		sts ticks+7,r24
  51:src/main.c    **** 	
  52:src/main.c    **** 	// Refresh the strand periodically even if no new data
  53:src/main.c    **** 	if (g_cmdState == STATE_IDLE) {
 102               		.loc 1 53 0
 103 00ae 8091 0000 		lds r24,g_cmdState
 104 00b2 8823      		tst r24
 105 00b4 01F4      		brne .L1
  54:src/main.c    **** 		PORTA.OUTSET = (1<<6);
 106               		.loc 1 54 0
 107 00b6 E0E0      		ldi r30,lo8(1536)
 108 00b8 F6E0      		ldi r31,hi8(1536)
 109 00ba 80E4      		ldi r24,lo8(64)
 110 00bc 8583      		std Z+5,r24
  55:src/main.c    **** 		PORTA.OUTCLR = (1<<7);
 111               		.loc 1 55 0
 112 00be 80E8      		ldi r24,lo8(-128)
 113 00c0 8683      		std Z+6,r24
  56:src/main.c    **** 		dirty = 1;
 114               		.loc 1 56 0
 115 00c2 81E0      		ldi r24,lo8(1)
GAS LISTING /tmp/ccwf6aFs.s 			page 4


 116 00c4 8093 0000 		sts dirty,r24
 117               	.L1:
 118 00c8 0895      		ret
 119               		.cfi_endproc
 120               	.LFE261:
 121               		.size	tick_isr, .-tick_isr
 122               		.type	strand_output_isr, @function
 123               	strand_output_isr:
 124               	.LFB260:
  39:src/main.c    **** {
 125               		.loc 1 39 0
 126               		.cfi_startproc
 127               	/* prologue: function */
 128               	/* frame size = 0 */
 129               	/* stack size = 0 */
 130               	.L__stack_usage = 0
  40:src/main.c    **** 	if (dirty) {
 131               		.loc 1 40 0
 132 00ca 8091 0000 		lds r24,dirty
 133 00ce 8823      		tst r24
 134 00d0 01F0      		breq .L16
  41:src/main.c    **** 		dirty = 0;
 135               		.loc 1 41 0
 136 00d2 1092 0000 		sts dirty,__zero_reg__
  42:src/main.c    **** 		spi_write_packet(&SPIC, data_buffer, (3 * num_leds));
 137               		.loc 1 42 0
 138 00d6 8091 0000 		lds r24,num_leds
 139 00da 9091 0000 		lds r25,num_leds+1
 140 00de AC01      		movw r20,r24
 141 00e0 440F      		lsl r20
 142 00e2 551F      		rol r21
 143 00e4 480F      		add r20,r24
 144 00e6 591F      		adc r21,r25
 145 00e8 80EC      		ldi r24,lo8(2240)
 146 00ea 98E0      		ldi r25,hi8(2240)
 147 00ec 60E0      		ldi r22,lo8(data_buffer)
 148 00ee 70E0      		ldi r23,hi8(data_buffer)
 149 00f0 0E94 0000 		call spi_write_packet
  43:src/main.c    **** 		PORTA.OUTCLR = (1<<6);
 150               		.loc 1 43 0
 151 00f4 80E4      		ldi r24,lo8(64)
 152 00f6 E0E0      		ldi r30,lo8(1536)
 153 00f8 F6E0      		ldi r31,hi8(1536)
 154 00fa 8683      		std Z+6,r24
 155               	.L16:
 156 00fc 0895      		ret
 157               		.cfi_endproc
 158               	.LFE260:
 159               		.size	strand_output_isr, .-strand_output_isr
 160               		.type	usart_serial_getchar, @function
 161               	usart_serial_getchar:
 162               	.LFB177:
 163               		.file 2 "./src/asf/common/services/serial/xmega_usart/usart_serial.h"
   1:./src/asf/common/services/serial/xmega_usart/usart_serial.h **** /**
   2:./src/asf/common/services/serial/xmega_usart/usart_serial.h ****  * \file
   3:./src/asf/common/services/serial/xmega_usart/usart_serial.h ****  *
   4:./src/asf/common/services/serial/xmega_usart/usart_serial.h ****  * This file defines a useful set of functions for the Serial interface on AVR
GAS LISTING /tmp/ccwf6aFs.s 			page 5


   5:./src/asf/common/services/serial/xmega_usart/usart_serial.h ****  * XMEGA devices.
   6:./src/asf/common/services/serial/xmega_usart/usart_serial.h ****  *
   7:./src/asf/common/services/serial/xmega_usart/usart_serial.h ****  * Copyright (c) 2009-2012 Atmel Corporation. All rights reserved.
   8:./src/asf/common/services/serial/xmega_usart/usart_serial.h ****  *
   9:./src/asf/common/services/serial/xmega_usart/usart_serial.h ****  * \asf_license_start
  10:./src/asf/common/services/serial/xmega_usart/usart_serial.h ****  *
  11:./src/asf/common/services/serial/xmega_usart/usart_serial.h ****  * \page License
  12:./src/asf/common/services/serial/xmega_usart/usart_serial.h ****  *
  13:./src/asf/common/services/serial/xmega_usart/usart_serial.h ****  * Redistribution and use in source and binary forms, with or without
  14:./src/asf/common/services/serial/xmega_usart/usart_serial.h ****  * modification, are permitted provided that the following conditions are met:
  15:./src/asf/common/services/serial/xmega_usart/usart_serial.h ****  *
  16:./src/asf/common/services/serial/xmega_usart/usart_serial.h ****  * 1. Redistributions of source code must retain the above copyright notice,
  17:./src/asf/common/services/serial/xmega_usart/usart_serial.h ****  *    this list of conditions and the following disclaimer.
  18:./src/asf/common/services/serial/xmega_usart/usart_serial.h ****  *
  19:./src/asf/common/services/serial/xmega_usart/usart_serial.h ****  * 2. Redistributions in binary form must reproduce the above copyright notice,
  20:./src/asf/common/services/serial/xmega_usart/usart_serial.h ****  *    this list of conditions and the following disclaimer in the documentation
  21:./src/asf/common/services/serial/xmega_usart/usart_serial.h ****  *    and/or other materials provided with the distribution.
  22:./src/asf/common/services/serial/xmega_usart/usart_serial.h ****  *
  23:./src/asf/common/services/serial/xmega_usart/usart_serial.h ****  * 3. The name of Atmel may not be used to endorse or promote products derived
  24:./src/asf/common/services/serial/xmega_usart/usart_serial.h ****  *    from this software without specific prior written permission.
  25:./src/asf/common/services/serial/xmega_usart/usart_serial.h ****  *
  26:./src/asf/common/services/serial/xmega_usart/usart_serial.h ****  * 4. This software may only be redistributed and used in connection with an
  27:./src/asf/common/services/serial/xmega_usart/usart_serial.h ****  *    Atmel microcontroller product.
  28:./src/asf/common/services/serial/xmega_usart/usart_serial.h ****  *
  29:./src/asf/common/services/serial/xmega_usart/usart_serial.h ****  * THIS SOFTWARE IS PROVIDED BY ATMEL "AS IS" AND ANY EXPRESS OR IMPLIED
  30:./src/asf/common/services/serial/xmega_usart/usart_serial.h ****  * WARRANTIES, INCLUDING, BUT NOT LIMITED TO, THE IMPLIED WARRANTIES OF
  31:./src/asf/common/services/serial/xmega_usart/usart_serial.h ****  * MERCHANTABILITY, FITNESS FOR A PARTICULAR PURPOSE AND NON-INFRINGEMENT ARE
  32:./src/asf/common/services/serial/xmega_usart/usart_serial.h ****  * EXPRESSLY AND SPECIFICALLY DISCLAIMED. IN NO EVENT SHALL ATMEL BE LIABLE FOR
  33:./src/asf/common/services/serial/xmega_usart/usart_serial.h ****  * ANY DIRECT, INDIRECT, INCIDENTAL, SPECIAL, EXEMPLARY, OR CONSEQUENTIAL
  34:./src/asf/common/services/serial/xmega_usart/usart_serial.h ****  * DAMAGES (INCLUDING, BUT NOT LIMITED TO, PROCUREMENT OF SUBSTITUTE GOODS
  35:./src/asf/common/services/serial/xmega_usart/usart_serial.h ****  * OR SERVICES; LOSS OF USE, DATA, OR PROFITS; OR BUSINESS INTERRUPTION)
  36:./src/asf/common/services/serial/xmega_usart/usart_serial.h ****  * HOWEVER CAUSED AND ON ANY THEORY OF LIABILITY, WHETHER IN CONTRACT,
  37:./src/asf/common/services/serial/xmega_usart/usart_serial.h ****  * STRICT LIABILITY, OR TORT (INCLUDING NEGLIGENCE OR OTHERWISE) ARISING IN
  38:./src/asf/common/services/serial/xmega_usart/usart_serial.h ****  * ANY WAY OUT OF THE USE OF THIS SOFTWARE, EVEN IF ADVISED OF THE
  39:./src/asf/common/services/serial/xmega_usart/usart_serial.h ****  * POSSIBILITY OF SUCH DAMAGE.
  40:./src/asf/common/services/serial/xmega_usart/usart_serial.h ****  *
  41:./src/asf/common/services/serial/xmega_usart/usart_serial.h ****  * \asf_license_stop
  42:./src/asf/common/services/serial/xmega_usart/usart_serial.h ****  *
  43:./src/asf/common/services/serial/xmega_usart/usart_serial.h ****  */
  44:./src/asf/common/services/serial/xmega_usart/usart_serial.h **** #ifndef _USART_SERIAL_H_
  45:./src/asf/common/services/serial/xmega_usart/usart_serial.h **** #define _USART_SERIAL_H_
  46:./src/asf/common/services/serial/xmega_usart/usart_serial.h **** 
  47:./src/asf/common/services/serial/xmega_usart/usart_serial.h **** #include "compiler.h"
  48:./src/asf/common/services/serial/xmega_usart/usart_serial.h **** #include "sysclk.h"
  49:./src/asf/common/services/serial/xmega_usart/usart_serial.h **** #include "status_codes.h"
  50:./src/asf/common/services/serial/xmega_usart/usart_serial.h **** #include "usart.h"
  51:./src/asf/common/services/serial/xmega_usart/usart_serial.h **** 
  52:./src/asf/common/services/serial/xmega_usart/usart_serial.h **** /*! \name Serial Management Configuration
  53:./src/asf/common/services/serial/xmega_usart/usart_serial.h ****  */
  54:./src/asf/common/services/serial/xmega_usart/usart_serial.h **** //! @{
  55:./src/asf/common/services/serial/xmega_usart/usart_serial.h **** #include "conf_usart_serial.h"
  56:./src/asf/common/services/serial/xmega_usart/usart_serial.h **** //! @}
  57:./src/asf/common/services/serial/xmega_usart/usart_serial.h **** 
  58:./src/asf/common/services/serial/xmega_usart/usart_serial.h **** typedef usart_rs232_options_t usart_serial_options_t;
  59:./src/asf/common/services/serial/xmega_usart/usart_serial.h **** 
  60:./src/asf/common/services/serial/xmega_usart/usart_serial.h **** typedef USART_t *usart_if;
  61:./src/asf/common/services/serial/xmega_usart/usart_serial.h **** 
GAS LISTING /tmp/ccwf6aFs.s 			page 6


  62:./src/asf/common/services/serial/xmega_usart/usart_serial.h **** /*! \brief Initializes the Usart in master mode.
  63:./src/asf/common/services/serial/xmega_usart/usart_serial.h ****  *
  64:./src/asf/common/services/serial/xmega_usart/usart_serial.h ****  * \param usart       Base address of the USART instance.
  65:./src/asf/common/services/serial/xmega_usart/usart_serial.h ****  * \param options     Options needed to set up RS232 communication (see \ref usart_serial_options_t
  66:./src/asf/common/services/serial/xmega_usart/usart_serial.h ****  *
  67:./src/asf/common/services/serial/xmega_usart/usart_serial.h ****  * \retval true if the initialization was successful
  68:./src/asf/common/services/serial/xmega_usart/usart_serial.h ****  * \retval false if initialization failed (error in baud rate calculation)
  69:./src/asf/common/services/serial/xmega_usart/usart_serial.h ****  */
  70:./src/asf/common/services/serial/xmega_usart/usart_serial.h **** static inline bool usart_serial_init(usart_if usart, const
  71:./src/asf/common/services/serial/xmega_usart/usart_serial.h **** 		usart_serial_options_t *options)
  72:./src/asf/common/services/serial/xmega_usart/usart_serial.h **** {
  73:./src/asf/common/services/serial/xmega_usart/usart_serial.h **** 	// USART options.
  74:./src/asf/common/services/serial/xmega_usart/usart_serial.h **** 	usart_rs232_options_t usart_rs232_options;
  75:./src/asf/common/services/serial/xmega_usart/usart_serial.h **** 	usart_rs232_options.charlength   = options->charlength;
  76:./src/asf/common/services/serial/xmega_usart/usart_serial.h **** 	usart_rs232_options.paritytype   = options->paritytype;
  77:./src/asf/common/services/serial/xmega_usart/usart_serial.h **** 	usart_rs232_options.stopbits     = options->stopbits;
  78:./src/asf/common/services/serial/xmega_usart/usart_serial.h **** 	usart_rs232_options.baudrate     = options->baudrate;
  79:./src/asf/common/services/serial/xmega_usart/usart_serial.h **** 
  80:./src/asf/common/services/serial/xmega_usart/usart_serial.h **** #ifdef USARTC0
  81:./src/asf/common/services/serial/xmega_usart/usart_serial.h **** 	if((uint16_t)usart == (uint16_t)&USARTC0) {
  82:./src/asf/common/services/serial/xmega_usart/usart_serial.h **** 		sysclk_enable_module(SYSCLK_PORT_C,PR_USART0_bm);
  83:./src/asf/common/services/serial/xmega_usart/usart_serial.h **** 	}
  84:./src/asf/common/services/serial/xmega_usart/usart_serial.h **** #endif
  85:./src/asf/common/services/serial/xmega_usart/usart_serial.h **** #ifdef USARTC1
  86:./src/asf/common/services/serial/xmega_usart/usart_serial.h **** 	if((uint16_t)usart == (uint16_t)&USARTC1) {
  87:./src/asf/common/services/serial/xmega_usart/usart_serial.h **** 		sysclk_enable_module(SYSCLK_PORT_C,PR_USART1_bm);
  88:./src/asf/common/services/serial/xmega_usart/usart_serial.h **** 	}
  89:./src/asf/common/services/serial/xmega_usart/usart_serial.h **** #endif
  90:./src/asf/common/services/serial/xmega_usart/usart_serial.h **** #ifdef USARTD0
  91:./src/asf/common/services/serial/xmega_usart/usart_serial.h **** 	if((uint16_t)usart == (uint16_t)&USARTD0) {
  92:./src/asf/common/services/serial/xmega_usart/usart_serial.h **** 		sysclk_enable_module(SYSCLK_PORT_D,PR_USART0_bm);
  93:./src/asf/common/services/serial/xmega_usart/usart_serial.h **** 	}
  94:./src/asf/common/services/serial/xmega_usart/usart_serial.h **** #endif
  95:./src/asf/common/services/serial/xmega_usart/usart_serial.h **** #ifdef USARTD1
  96:./src/asf/common/services/serial/xmega_usart/usart_serial.h **** 	if((uint16_t)usart == (uint16_t)&USARTD1) {
  97:./src/asf/common/services/serial/xmega_usart/usart_serial.h **** 		sysclk_enable_module(SYSCLK_PORT_D,PR_USART1_bm);
  98:./src/asf/common/services/serial/xmega_usart/usart_serial.h **** 	}
  99:./src/asf/common/services/serial/xmega_usart/usart_serial.h **** #endif
 100:./src/asf/common/services/serial/xmega_usart/usart_serial.h **** #ifdef USARTE0
 101:./src/asf/common/services/serial/xmega_usart/usart_serial.h **** 	if((uint16_t)usart == (uint16_t)&USARTE0) {
 102:./src/asf/common/services/serial/xmega_usart/usart_serial.h **** 		sysclk_enable_module(SYSCLK_PORT_E,PR_USART0_bm);
 103:./src/asf/common/services/serial/xmega_usart/usart_serial.h **** 	}
 104:./src/asf/common/services/serial/xmega_usart/usart_serial.h **** #endif
 105:./src/asf/common/services/serial/xmega_usart/usart_serial.h **** #ifdef USARTE1
 106:./src/asf/common/services/serial/xmega_usart/usart_serial.h **** 	if((uint16_t)usart == (uint16_t)&USARTE1) {
 107:./src/asf/common/services/serial/xmega_usart/usart_serial.h **** 		sysclk_enable_module(SYSCLK_PORT_E,PR_USART1_bm);
 108:./src/asf/common/services/serial/xmega_usart/usart_serial.h **** 	}
 109:./src/asf/common/services/serial/xmega_usart/usart_serial.h **** #endif
 110:./src/asf/common/services/serial/xmega_usart/usart_serial.h **** #ifdef USARTF0
 111:./src/asf/common/services/serial/xmega_usart/usart_serial.h **** 	if((uint16_t)usart == (uint16_t)&USARTF0) {
 112:./src/asf/common/services/serial/xmega_usart/usart_serial.h **** 		sysclk_enable_module(SYSCLK_PORT_F,PR_USART0_bm);
 113:./src/asf/common/services/serial/xmega_usart/usart_serial.h **** 	}
 114:./src/asf/common/services/serial/xmega_usart/usart_serial.h **** #endif
 115:./src/asf/common/services/serial/xmega_usart/usart_serial.h **** #ifdef USARTF1
 116:./src/asf/common/services/serial/xmega_usart/usart_serial.h **** 	if((uint16_t)usart == (uint16_t)&USARTF1) {
 117:./src/asf/common/services/serial/xmega_usart/usart_serial.h **** 		sysclk_enable_module(SYSCLK_PORT_F,PR_USART1_bm);
 118:./src/asf/common/services/serial/xmega_usart/usart_serial.h **** 	}
GAS LISTING /tmp/ccwf6aFs.s 			page 7


 119:./src/asf/common/services/serial/xmega_usart/usart_serial.h **** #endif
 120:./src/asf/common/services/serial/xmega_usart/usart_serial.h **** 	if (usart_init_rs232(usart, &usart_rs232_options)) {
 121:./src/asf/common/services/serial/xmega_usart/usart_serial.h **** 		return true;
 122:./src/asf/common/services/serial/xmega_usart/usart_serial.h **** 	}
 123:./src/asf/common/services/serial/xmega_usart/usart_serial.h **** 	else {
 124:./src/asf/common/services/serial/xmega_usart/usart_serial.h **** 		return false;
 125:./src/asf/common/services/serial/xmega_usart/usart_serial.h **** 	}
 126:./src/asf/common/services/serial/xmega_usart/usart_serial.h **** }
 127:./src/asf/common/services/serial/xmega_usart/usart_serial.h **** 
 128:./src/asf/common/services/serial/xmega_usart/usart_serial.h **** /*! \brief Sends a character with the USART.
 129:./src/asf/common/services/serial/xmega_usart/usart_serial.h ****  *
 130:./src/asf/common/services/serial/xmega_usart/usart_serial.h ****  * \param usart   Base address of the USART instance.
 131:./src/asf/common/services/serial/xmega_usart/usart_serial.h ****  * \param c       Character to write.
 132:./src/asf/common/services/serial/xmega_usart/usart_serial.h ****  *
 133:./src/asf/common/services/serial/xmega_usart/usart_serial.h ****  * \return Status code
 134:./src/asf/common/services/serial/xmega_usart/usart_serial.h ****  */
 135:./src/asf/common/services/serial/xmega_usart/usart_serial.h **** static inline enum status_code usart_serial_putchar(usart_if usart, uint8_t c)
 136:./src/asf/common/services/serial/xmega_usart/usart_serial.h **** {
 137:./src/asf/common/services/serial/xmega_usart/usart_serial.h **** 	return usart_putchar(usart, c);
 138:./src/asf/common/services/serial/xmega_usart/usart_serial.h **** }
 139:./src/asf/common/services/serial/xmega_usart/usart_serial.h **** /*! \brief Waits until a character is received, and returns it.
 140:./src/asf/common/services/serial/xmega_usart/usart_serial.h ****  *
 141:./src/asf/common/services/serial/xmega_usart/usart_serial.h ****  * \param usart   Base address of the USART instance.
 142:./src/asf/common/services/serial/xmega_usart/usart_serial.h ****  * \param data   Data to read
 143:./src/asf/common/services/serial/xmega_usart/usart_serial.h ****  *
 144:./src/asf/common/services/serial/xmega_usart/usart_serial.h ****  */
 145:./src/asf/common/services/serial/xmega_usart/usart_serial.h **** static inline void usart_serial_getchar(usart_if usart, uint8_t *data)
 146:./src/asf/common/services/serial/xmega_usart/usart_serial.h **** {
 164               		.loc 2 146 0
 165               		.cfi_startproc
 166               	.LVL0:
 167 00fe CF93      		push r28
 168               	.LCFI0:
 169               		.cfi_def_cfa_offset 3
 170               		.cfi_offset 28, -2
 171 0100 DF93      		push r29
 172               	.LCFI1:
 173               		.cfi_def_cfa_offset 4
 174               		.cfi_offset 29, -3
 175               	/* prologue: function */
 176               	/* frame size = 0 */
 177               	/* stack size = 2 */
 178               	.L__stack_usage = 2
 179 0102 EB01      		movw r28,r22
 147:./src/asf/common/services/serial/xmega_usart/usart_serial.h **** 	*data = usart_getchar(usart);
 180               		.loc 2 147 0
 181 0104 0E94 0000 		call usart_getchar
 182               	.LVL1:
 183 0108 8883      		st Y,r24
 184               	/* epilogue start */
 148:./src/asf/common/services/serial/xmega_usart/usart_serial.h **** }
 185               		.loc 2 148 0
 186 010a DF91      		pop r29
 187 010c CF91      		pop r28
 188               	.LVL2:
 189 010e 0895      		ret
 190               		.cfi_endproc
GAS LISTING /tmp/ccwf6aFs.s 			page 8


 191               	.LFE177:
 192               		.size	usart_serial_getchar, .-usart_serial_getchar
 193               		.type	usart_serial_putchar, @function
 194               	usart_serial_putchar:
 195               	.LFB176:
 136:./src/asf/common/services/serial/xmega_usart/usart_serial.h **** {
 196               		.loc 2 136 0
 197               		.cfi_startproc
 198               	.LVL3:
 199               	/* prologue: function */
 200               	/* frame size = 0 */
 201               	/* stack size = 0 */
 202               	.L__stack_usage = 0
 137:./src/asf/common/services/serial/xmega_usart/usart_serial.h **** 	return usart_putchar(usart, c);
 203               		.loc 2 137 0
 204 0110 0E94 0000 		call usart_putchar
 205               	.LVL4:
 206               	/* epilogue start */
 138:./src/asf/common/services/serial/xmega_usart/usart_serial.h **** }
 207               		.loc 2 138 0
 208 0114 0895      		ret
 209               		.cfi_endproc
 210               	.LFE176:
 211               		.size	usart_serial_putchar, .-usart_serial_putchar
 212               	.global	__vector_26
 213               		.type	__vector_26, @function
 214               	__vector_26:
 215               	.LFB262:
  57:src/main.c    **** 	}
  58:src/main.c    **** }
  59:src/main.c    **** 
  60:src/main.c    **** 
  61:src/main.c    **** // Disable RS485 transmitter after successful send
  62:src/main.c    **** ISR(USARTC0_DRE_vect)
  63:src/main.c    **** {
 216               		.loc 1 63 0
 217               		.cfi_startproc
 218 0116 1F92      		push r1
 219               	.LCFI2:
 220               		.cfi_def_cfa_offset 3
 221               		.cfi_offset 1, -2
 222 0118 0F92      		push r0
 223               	.LCFI3:
 224               		.cfi_def_cfa_offset 4
 225               		.cfi_offset 0, -3
 226 011a 0FB6      		in r0,__SREG__
 227 011c 0F92      		push r0
 228 011e 1124      		clr __zero_reg__
 229 0120 8F93      		push r24
 230               	.LCFI4:
 231               		.cfi_def_cfa_offset 5
 232               		.cfi_offset 24, -4
 233 0122 EF93      		push r30
 234               	.LCFI5:
 235               		.cfi_def_cfa_offset 6
 236               		.cfi_offset 30, -5
 237 0124 FF93      		push r31
GAS LISTING /tmp/ccwf6aFs.s 			page 9


 238               	.LCFI6:
 239               		.cfi_def_cfa_offset 7
 240               		.cfi_offset 31, -6
 241               	/* prologue: Signal */
 242               	/* frame size = 0 */
 243               	/* stack size = 6 */
 244               	.L__stack_usage = 6
 245               	.LVL5:
 246               	.LBB154:
 247               	.LBB155:
 248               	.LBB156:
 249               		.file 3 "./src/asf/common/services/ioport/xmega/ioport.h"
   1:./src/asf/common/services/ioport/xmega/ioport.h **** /**
   2:./src/asf/common/services/ioport/xmega/ioport.h ****  * \file
   3:./src/asf/common/services/ioport/xmega/ioport.h ****  *
   4:./src/asf/common/services/ioport/xmega/ioport.h ****  * \brief XMEGA architecture specific IOPORT service implementation header file.
   5:./src/asf/common/services/ioport/xmega/ioport.h ****  *
   6:./src/asf/common/services/ioport/xmega/ioport.h ****  * Copyright (c) 2012 Atmel Corporation. All rights reserved.
   7:./src/asf/common/services/ioport/xmega/ioport.h ****  *
   8:./src/asf/common/services/ioport/xmega/ioport.h ****  * \asf_license_start
   9:./src/asf/common/services/ioport/xmega/ioport.h ****  *
  10:./src/asf/common/services/ioport/xmega/ioport.h ****  * \page License
  11:./src/asf/common/services/ioport/xmega/ioport.h ****  *
  12:./src/asf/common/services/ioport/xmega/ioport.h ****  * Redistribution and use in source and binary forms, with or without
  13:./src/asf/common/services/ioport/xmega/ioport.h ****  * modification, are permitted provided that the following conditions are met:
  14:./src/asf/common/services/ioport/xmega/ioport.h ****  *
  15:./src/asf/common/services/ioport/xmega/ioport.h ****  * 1. Redistributions of source code must retain the above copyright notice,
  16:./src/asf/common/services/ioport/xmega/ioport.h ****  *    this list of conditions and the following disclaimer.
  17:./src/asf/common/services/ioport/xmega/ioport.h ****  *
  18:./src/asf/common/services/ioport/xmega/ioport.h ****  * 2. Redistributions in binary form must reproduce the above copyright notice,
  19:./src/asf/common/services/ioport/xmega/ioport.h ****  *    this list of conditions and the following disclaimer in the documentation
  20:./src/asf/common/services/ioport/xmega/ioport.h ****  *    and/or other materials provided with the distribution.
  21:./src/asf/common/services/ioport/xmega/ioport.h ****  *
  22:./src/asf/common/services/ioport/xmega/ioport.h ****  * 3. The name of Atmel may not be used to endorse or promote products derived
  23:./src/asf/common/services/ioport/xmega/ioport.h ****  *    from this software without specific prior written permission.
  24:./src/asf/common/services/ioport/xmega/ioport.h ****  *
  25:./src/asf/common/services/ioport/xmega/ioport.h ****  * 4. This software may only be redistributed and used in connection with an
  26:./src/asf/common/services/ioport/xmega/ioport.h ****  *    Atmel microcontroller product.
  27:./src/asf/common/services/ioport/xmega/ioport.h ****  *
  28:./src/asf/common/services/ioport/xmega/ioport.h ****  * THIS SOFTWARE IS PROVIDED BY ATMEL "AS IS" AND ANY EXPRESS OR IMPLIED
  29:./src/asf/common/services/ioport/xmega/ioport.h ****  * WARRANTIES, INCLUDING, BUT NOT LIMITED TO, THE IMPLIED WARRANTIES OF
  30:./src/asf/common/services/ioport/xmega/ioport.h ****  * MERCHANTABILITY, FITNESS FOR A PARTICULAR PURPOSE AND NON-INFRINGEMENT ARE
  31:./src/asf/common/services/ioport/xmega/ioport.h ****  * EXPRESSLY AND SPECIFICALLY DISCLAIMED. IN NO EVENT SHALL ATMEL BE LIABLE FOR
  32:./src/asf/common/services/ioport/xmega/ioport.h ****  * ANY DIRECT, INDIRECT, INCIDENTAL, SPECIAL, EXEMPLARY, OR CONSEQUENTIAL
  33:./src/asf/common/services/ioport/xmega/ioport.h ****  * DAMAGES (INCLUDING, BUT NOT LIMITED TO, PROCUREMENT OF SUBSTITUTE GOODS
  34:./src/asf/common/services/ioport/xmega/ioport.h ****  * OR SERVICES; LOSS OF USE, DATA, OR PROFITS; OR BUSINESS INTERRUPTION)
  35:./src/asf/common/services/ioport/xmega/ioport.h ****  * HOWEVER CAUSED AND ON ANY THEORY OF LIABILITY, WHETHER IN CONTRACT,
  36:./src/asf/common/services/ioport/xmega/ioport.h ****  * STRICT LIABILITY, OR TORT (INCLUDING NEGLIGENCE OR OTHERWISE) ARISING IN
  37:./src/asf/common/services/ioport/xmega/ioport.h ****  * ANY WAY OUT OF THE USE OF THIS SOFTWARE, EVEN IF ADVISED OF THE
  38:./src/asf/common/services/ioport/xmega/ioport.h ****  * POSSIBILITY OF SUCH DAMAGE.
  39:./src/asf/common/services/ioport/xmega/ioport.h ****  *
  40:./src/asf/common/services/ioport/xmega/ioport.h ****  * \asf_license_stop
  41:./src/asf/common/services/ioport/xmega/ioport.h ****  *
  42:./src/asf/common/services/ioport/xmega/ioport.h ****  */
  43:./src/asf/common/services/ioport/xmega/ioport.h **** #ifndef IOPORT_XMEGA_H
  44:./src/asf/common/services/ioport/xmega/ioport.h **** #define IOPORT_XMEGA_H
  45:./src/asf/common/services/ioport/xmega/ioport.h **** 
GAS LISTING /tmp/ccwf6aFs.s 			page 10


  46:./src/asf/common/services/ioport/xmega/ioport.h **** #define IOPORT_CREATE_PIN(port, pin) ((IOPORT_ ## port) * 8 + (pin))
  47:./src/asf/common/services/ioport/xmega/ioport.h **** #define IOPORT_BASE_ADDRESS 0x600
  48:./src/asf/common/services/ioport/xmega/ioport.h **** #define IOPORT_PORT_OFFSET  0x20
  49:./src/asf/common/services/ioport/xmega/ioport.h **** 
  50:./src/asf/common/services/ioport/xmega/ioport.h **** /** \name IOPORT port numbers */
  51:./src/asf/common/services/ioport/xmega/ioport.h **** /** @{ */
  52:./src/asf/common/services/ioport/xmega/ioport.h **** #if !XMEGA_B3
  53:./src/asf/common/services/ioport/xmega/ioport.h **** #  define IOPORT_PORTA  0
  54:./src/asf/common/services/ioport/xmega/ioport.h **** #endif
  55:./src/asf/common/services/ioport/xmega/ioport.h **** 
  56:./src/asf/common/services/ioport/xmega/ioport.h **** #define IOPORT_PORTB    1
  57:./src/asf/common/services/ioport/xmega/ioport.h **** #define IOPORT_PORTC    2
  58:./src/asf/common/services/ioport/xmega/ioport.h **** #define IOPORT_PORTD    3
  59:./src/asf/common/services/ioport/xmega/ioport.h **** 
  60:./src/asf/common/services/ioport/xmega/ioport.h **** #if !XMEGA_B3
  61:./src/asf/common/services/ioport/xmega/ioport.h **** #  define IOPORT_PORTE  4
  62:./src/asf/common/services/ioport/xmega/ioport.h **** #endif
  63:./src/asf/common/services/ioport/xmega/ioport.h **** 
  64:./src/asf/common/services/ioport/xmega/ioport.h **** #if XMEGA_A1 || XMEGA_A1U || XMEGA_A3 || XMEGA_A3U || XMEGA_A3B || XMEGA_A3BU ||\
  65:./src/asf/common/services/ioport/xmega/ioport.h **** 	XMEGA_C3 || XMEGA_D3
  66:./src/asf/common/services/ioport/xmega/ioport.h **** #  define IOPORT_PORTF  5
  67:./src/asf/common/services/ioport/xmega/ioport.h **** #endif
  68:./src/asf/common/services/ioport/xmega/ioport.h **** 
  69:./src/asf/common/services/ioport/xmega/ioport.h **** #if XMEGA_B1 || XMEGA_B3
  70:./src/asf/common/services/ioport/xmega/ioport.h **** #  define IOPORT_PORTG  6
  71:./src/asf/common/services/ioport/xmega/ioport.h **** #endif
  72:./src/asf/common/services/ioport/xmega/ioport.h **** 
  73:./src/asf/common/services/ioport/xmega/ioport.h **** #if XMEGA_A1 || XMEGA_A1U
  74:./src/asf/common/services/ioport/xmega/ioport.h **** #  define IOPORT_PORTH  7
  75:./src/asf/common/services/ioport/xmega/ioport.h **** #  define IOPORT_PORTJ  8
  76:./src/asf/common/services/ioport/xmega/ioport.h **** #  define IOPORT_PORTK  9
  77:./src/asf/common/services/ioport/xmega/ioport.h **** #endif
  78:./src/asf/common/services/ioport/xmega/ioport.h **** 
  79:./src/asf/common/services/ioport/xmega/ioport.h **** #if XMEGA_B1 || XMEGA_B3
  80:./src/asf/common/services/ioport/xmega/ioport.h **** #  define IOPORT_PORTM  11
  81:./src/asf/common/services/ioport/xmega/ioport.h **** #endif
  82:./src/asf/common/services/ioport/xmega/ioport.h **** 
  83:./src/asf/common/services/ioport/xmega/ioport.h **** #if XMEGA_A1 || XMEGA_A1U
  84:./src/asf/common/services/ioport/xmega/ioport.h **** #  define IOPORT_PORTQ  14
  85:./src/asf/common/services/ioport/xmega/ioport.h **** #endif
  86:./src/asf/common/services/ioport/xmega/ioport.h **** 
  87:./src/asf/common/services/ioport/xmega/ioport.h **** #define IOPORT_PORTR    15
  88:./src/asf/common/services/ioport/xmega/ioport.h **** /** @} */
  89:./src/asf/common/services/ioport/xmega/ioport.h **** 
  90:./src/asf/common/services/ioport/xmega/ioport.h **** /**
  91:./src/asf/common/services/ioport/xmega/ioport.h ****  * \weakgroup ioport_group
  92:./src/asf/common/services/ioport/xmega/ioport.h ****  * \section ioport_modes IOPORT Modes
  93:./src/asf/common/services/ioport/xmega/ioport.h ****  *
  94:./src/asf/common/services/ioport/xmega/ioport.h ****  * For details on these please see the XMEGA Manual.
  95:./src/asf/common/services/ioport/xmega/ioport.h ****  *
  96:./src/asf/common/services/ioport/xmega/ioport.h ****  * @{
  97:./src/asf/common/services/ioport/xmega/ioport.h ****  */
  98:./src/asf/common/services/ioport/xmega/ioport.h **** 
  99:./src/asf/common/services/ioport/xmega/ioport.h **** /** \name IOPORT Mode bit definitions */
 100:./src/asf/common/services/ioport/xmega/ioport.h **** /** @{ */
 101:./src/asf/common/services/ioport/xmega/ioport.h **** #define IOPORT_MODE_TOTEM           (0x00 << 3) /*!< Totem-pole */
 102:./src/asf/common/services/ioport/xmega/ioport.h **** #define IOPORT_MODE_BUSKEEPER       (0x01 << 3) /*!< Buskeeper */
GAS LISTING /tmp/ccwf6aFs.s 			page 11


 103:./src/asf/common/services/ioport/xmega/ioport.h **** #define IOPORT_MODE_PULLDOWN        (0x02 << 3) /*!< Pull-down */
 104:./src/asf/common/services/ioport/xmega/ioport.h **** #define IOPORT_MODE_PULLUP          (0x03 << 3) /*!< Pull-up */
 105:./src/asf/common/services/ioport/xmega/ioport.h **** #define IOPORT_MODE_WIREDOR         (0x04 << 3) /*!< Wired OR */
 106:./src/asf/common/services/ioport/xmega/ioport.h **** #define IOPORT_MODE_WIREDAND        (0x05 << 3) /*!< Wired AND */
 107:./src/asf/common/services/ioport/xmega/ioport.h **** #define IOPORT_MODE_WIREDORPULL     (0x06 << 3) /*!< Wired OR with pull-down */
 108:./src/asf/common/services/ioport/xmega/ioport.h **** #define IOPORT_MODE_WIREDANDPULL    (0x07 << 3) /*!< Wired AND with pull-up */
 109:./src/asf/common/services/ioport/xmega/ioport.h **** #define IOPORT_MODE_INVERT_PIN      (0x01 << 6) /*!< Invert output and input */
 110:./src/asf/common/services/ioport/xmega/ioport.h **** #define IOPORT_MODE_SLEW_RATE_LIMIT (0x01 << 7) /*!< Slew rate limiting */
 111:./src/asf/common/services/ioport/xmega/ioport.h **** /** @} */
 112:./src/asf/common/services/ioport/xmega/ioport.h **** 
 113:./src/asf/common/services/ioport/xmega/ioport.h **** /** @} */
 114:./src/asf/common/services/ioport/xmega/ioport.h **** 
 115:./src/asf/common/services/ioport/xmega/ioport.h **** typedef uint8_t ioport_mode_t;
 116:./src/asf/common/services/ioport/xmega/ioport.h **** typedef uint8_t ioport_pin_t;
 117:./src/asf/common/services/ioport/xmega/ioport.h **** typedef uint8_t ioport_port_t;
 118:./src/asf/common/services/ioport/xmega/ioport.h **** typedef uint8_t ioport_port_mask_t;
 119:./src/asf/common/services/ioport/xmega/ioport.h **** 
 120:./src/asf/common/services/ioport/xmega/ioport.h **** __always_inline static ioport_port_t arch_ioport_pin_to_port_id(ioport_pin_t pin)
 121:./src/asf/common/services/ioport/xmega/ioport.h **** {
 122:./src/asf/common/services/ioport/xmega/ioport.h **** 	return pin >> 3;
 123:./src/asf/common/services/ioport/xmega/ioport.h **** }
 124:./src/asf/common/services/ioport/xmega/ioport.h **** 
 125:./src/asf/common/services/ioport/xmega/ioport.h **** __always_inline static PORT_t *arch_ioport_port_to_base(ioport_port_t port)
 126:./src/asf/common/services/ioport/xmega/ioport.h **** {
 127:./src/asf/common/services/ioport/xmega/ioport.h **** 	return (PORT_t *)((uintptr_t)IOPORT_BASE_ADDRESS +
 128:./src/asf/common/services/ioport/xmega/ioport.h **** 	       (port * IOPORT_PORT_OFFSET));
 129:./src/asf/common/services/ioport/xmega/ioport.h **** }
 130:./src/asf/common/services/ioport/xmega/ioport.h **** 
 131:./src/asf/common/services/ioport/xmega/ioport.h **** __always_inline static PORT_t *arch_ioport_pin_to_base(ioport_pin_t pin)
 132:./src/asf/common/services/ioport/xmega/ioport.h **** {
 133:./src/asf/common/services/ioport/xmega/ioport.h **** 	return arch_ioport_port_to_base(arch_ioport_pin_to_port_id(pin));
 134:./src/asf/common/services/ioport/xmega/ioport.h **** }
 135:./src/asf/common/services/ioport/xmega/ioport.h **** 
 136:./src/asf/common/services/ioport/xmega/ioport.h **** __always_inline static ioport_port_mask_t arch_ioport_pin_to_mask(ioport_pin_t pin)
 137:./src/asf/common/services/ioport/xmega/ioport.h **** {
 138:./src/asf/common/services/ioport/xmega/ioport.h **** 	return 1U << (pin & 0x07);
 139:./src/asf/common/services/ioport/xmega/ioport.h **** }
 140:./src/asf/common/services/ioport/xmega/ioport.h **** 
 141:./src/asf/common/services/ioport/xmega/ioport.h **** __always_inline static ioport_port_mask_t arch_ioport_pin_to_index(ioport_pin_t pin)
 142:./src/asf/common/services/ioport/xmega/ioport.h **** {
 143:./src/asf/common/services/ioport/xmega/ioport.h **** 	return (pin & 0x07);
 144:./src/asf/common/services/ioport/xmega/ioport.h **** }
 145:./src/asf/common/services/ioport/xmega/ioport.h **** 
 146:./src/asf/common/services/ioport/xmega/ioport.h **** __always_inline static void arch_ioport_init(void)
 147:./src/asf/common/services/ioport/xmega/ioport.h **** {
 148:./src/asf/common/services/ioport/xmega/ioport.h **** 	
 149:./src/asf/common/services/ioport/xmega/ioport.h **** }
 150:./src/asf/common/services/ioport/xmega/ioport.h **** 
 151:./src/asf/common/services/ioport/xmega/ioport.h **** __always_inline static void arch_ioport_enable_port(ioport_port_t port,
 152:./src/asf/common/services/ioport/xmega/ioport.h **** 		ioport_port_mask_t mask)
 153:./src/asf/common/services/ioport/xmega/ioport.h **** {
 154:./src/asf/common/services/ioport/xmega/ioport.h **** 	PORT_t *base = arch_ioport_port_to_base(port);
 155:./src/asf/common/services/ioport/xmega/ioport.h **** 	volatile uint8_t *pin_ctrl = &base->PIN0CTRL;
 156:./src/asf/common/services/ioport/xmega/ioport.h **** 
 157:./src/asf/common/services/ioport/xmega/ioport.h **** 	uint8_t flags = cpu_irq_save();
 158:./src/asf/common/services/ioport/xmega/ioport.h **** 
 159:./src/asf/common/services/ioport/xmega/ioport.h **** 	for (uint8_t i = 0; i < 8; i++) {
GAS LISTING /tmp/ccwf6aFs.s 			page 12


 160:./src/asf/common/services/ioport/xmega/ioport.h **** 		if (mask & arch_ioport_pin_to_mask(i)) {
 161:./src/asf/common/services/ioport/xmega/ioport.h **** 			pin_ctrl[i] &= ~PORT_ISC_gm;
 162:./src/asf/common/services/ioport/xmega/ioport.h **** 		}
 163:./src/asf/common/services/ioport/xmega/ioport.h **** 	}
 164:./src/asf/common/services/ioport/xmega/ioport.h **** 	
 165:./src/asf/common/services/ioport/xmega/ioport.h **** 	cpu_irq_restore(flags);	
 166:./src/asf/common/services/ioport/xmega/ioport.h **** }
 167:./src/asf/common/services/ioport/xmega/ioport.h **** 
 168:./src/asf/common/services/ioport/xmega/ioport.h **** __always_inline static void arch_ioport_enable_pin(ioport_pin_t pin)
 169:./src/asf/common/services/ioport/xmega/ioport.h **** {
 170:./src/asf/common/services/ioport/xmega/ioport.h **** 	PORT_t *base = arch_ioport_pin_to_base(pin);
 171:./src/asf/common/services/ioport/xmega/ioport.h **** 	volatile uint8_t *pin_ctrl =
 172:./src/asf/common/services/ioport/xmega/ioport.h **** 			(&base->PIN0CTRL + arch_ioport_pin_to_index(pin));
 173:./src/asf/common/services/ioport/xmega/ioport.h **** 
 174:./src/asf/common/services/ioport/xmega/ioport.h **** 	uint8_t flags = cpu_irq_save();
 175:./src/asf/common/services/ioport/xmega/ioport.h **** 	
 176:./src/asf/common/services/ioport/xmega/ioport.h **** 	*pin_ctrl &= ~PORT_ISC_gm;
 177:./src/asf/common/services/ioport/xmega/ioport.h **** 	
 178:./src/asf/common/services/ioport/xmega/ioport.h **** 	cpu_irq_restore(flags);
 179:./src/asf/common/services/ioport/xmega/ioport.h **** }
 180:./src/asf/common/services/ioport/xmega/ioport.h **** 
 181:./src/asf/common/services/ioport/xmega/ioport.h **** __always_inline static void arch_ioport_disable_port(ioport_port_t port,
 182:./src/asf/common/services/ioport/xmega/ioport.h **** 		ioport_port_mask_t mask)
 183:./src/asf/common/services/ioport/xmega/ioport.h **** {
 184:./src/asf/common/services/ioport/xmega/ioport.h **** 	PORT_t *base = arch_ioport_port_to_base(port);
 185:./src/asf/common/services/ioport/xmega/ioport.h **** 	volatile uint8_t *pin_ctrl = &base->PIN0CTRL;
 186:./src/asf/common/services/ioport/xmega/ioport.h **** 
 187:./src/asf/common/services/ioport/xmega/ioport.h **** 	uint8_t flags = cpu_irq_save();
 188:./src/asf/common/services/ioport/xmega/ioport.h **** 
 189:./src/asf/common/services/ioport/xmega/ioport.h **** 	for (uint8_t i = 0; i < 8; i++) {
 190:./src/asf/common/services/ioport/xmega/ioport.h **** 		if (mask & arch_ioport_pin_to_mask(i)) {
 191:./src/asf/common/services/ioport/xmega/ioport.h **** 			pin_ctrl[i] |= PORT_ISC_INPUT_DISABLE_gc;
 192:./src/asf/common/services/ioport/xmega/ioport.h **** 		}
 193:./src/asf/common/services/ioport/xmega/ioport.h **** 	}
 194:./src/asf/common/services/ioport/xmega/ioport.h **** 	
 195:./src/asf/common/services/ioport/xmega/ioport.h **** 	cpu_irq_restore(flags);
 196:./src/asf/common/services/ioport/xmega/ioport.h **** }
 197:./src/asf/common/services/ioport/xmega/ioport.h **** 
 198:./src/asf/common/services/ioport/xmega/ioport.h **** __always_inline static void arch_ioport_disable_pin(ioport_pin_t pin)
 199:./src/asf/common/services/ioport/xmega/ioport.h **** {
 200:./src/asf/common/services/ioport/xmega/ioport.h **** 	PORT_t *base = arch_ioport_pin_to_base(pin);
 201:./src/asf/common/services/ioport/xmega/ioport.h **** 	volatile uint8_t *pin_ctrl =
 202:./src/asf/common/services/ioport/xmega/ioport.h **** 			(&base->PIN0CTRL + arch_ioport_pin_to_index(pin));
 203:./src/asf/common/services/ioport/xmega/ioport.h **** 
 204:./src/asf/common/services/ioport/xmega/ioport.h **** 	uint8_t flags = cpu_irq_save();
 205:./src/asf/common/services/ioport/xmega/ioport.h **** 	
 206:./src/asf/common/services/ioport/xmega/ioport.h **** 	*pin_ctrl |= PORT_ISC_INPUT_DISABLE_gc;
 207:./src/asf/common/services/ioport/xmega/ioport.h **** 	
 208:./src/asf/common/services/ioport/xmega/ioport.h **** 	cpu_irq_restore(flags);
 209:./src/asf/common/services/ioport/xmega/ioport.h **** }
 210:./src/asf/common/services/ioport/xmega/ioport.h **** 
 211:./src/asf/common/services/ioport/xmega/ioport.h **** __always_inline static void arch_ioport_set_port_mode(ioport_port_t port,
 212:./src/asf/common/services/ioport/xmega/ioport.h **** 		ioport_port_mask_t mask, ioport_mode_t mode)
 213:./src/asf/common/services/ioport/xmega/ioport.h **** {
 214:./src/asf/common/services/ioport/xmega/ioport.h **** 	PORT_t *base = arch_ioport_port_to_base(port);
 215:./src/asf/common/services/ioport/xmega/ioport.h **** 
 216:./src/asf/common/services/ioport/xmega/ioport.h **** 	PORTCFG.MPCMASK = mask;
GAS LISTING /tmp/ccwf6aFs.s 			page 13


 217:./src/asf/common/services/ioport/xmega/ioport.h **** 	base->PIN0CTRL = mode;
 218:./src/asf/common/services/ioport/xmega/ioport.h **** }
 219:./src/asf/common/services/ioport/xmega/ioport.h **** 
 220:./src/asf/common/services/ioport/xmega/ioport.h **** __always_inline static void arch_ioport_set_pin_mode(ioport_pin_t pin,
 221:./src/asf/common/services/ioport/xmega/ioport.h **** 		ioport_mode_t mode)
 222:./src/asf/common/services/ioport/xmega/ioport.h **** {
 223:./src/asf/common/services/ioport/xmega/ioport.h **** 	PORT_t *base = arch_ioport_pin_to_base(pin);
 224:./src/asf/common/services/ioport/xmega/ioport.h **** 
 225:./src/asf/common/services/ioport/xmega/ioport.h **** 	PORTCFG.MPCMASK = arch_ioport_pin_to_mask(pin);
 226:./src/asf/common/services/ioport/xmega/ioport.h **** 	base->PIN0CTRL = mode;
 227:./src/asf/common/services/ioport/xmega/ioport.h **** }
 228:./src/asf/common/services/ioport/xmega/ioport.h **** 
 229:./src/asf/common/services/ioport/xmega/ioport.h **** __always_inline static void arch_ioport_set_port_dir(ioport_port_t port,
 230:./src/asf/common/services/ioport/xmega/ioport.h **** 		ioport_port_mask_t mask, enum ioport_direction dir)
 231:./src/asf/common/services/ioport/xmega/ioport.h **** {
 232:./src/asf/common/services/ioport/xmega/ioport.h **** 	PORT_t *base = arch_ioport_port_to_base(port);
 233:./src/asf/common/services/ioport/xmega/ioport.h **** 
 234:./src/asf/common/services/ioport/xmega/ioport.h **** 	if (dir == IOPORT_DIR_OUTPUT) {
 235:./src/asf/common/services/ioport/xmega/ioport.h **** 		base->DIRSET = mask;
 236:./src/asf/common/services/ioport/xmega/ioport.h **** 	} else if (dir == IOPORT_DIR_INPUT) {
 237:./src/asf/common/services/ioport/xmega/ioport.h **** 		base->DIRCLR = mask;
 238:./src/asf/common/services/ioport/xmega/ioport.h **** 	}
 239:./src/asf/common/services/ioport/xmega/ioport.h **** }
 240:./src/asf/common/services/ioport/xmega/ioport.h **** 
 241:./src/asf/common/services/ioport/xmega/ioport.h **** __always_inline static void arch_ioport_set_pin_dir(ioport_pin_t pin,
 242:./src/asf/common/services/ioport/xmega/ioport.h **** 		enum ioport_direction dir)
 243:./src/asf/common/services/ioport/xmega/ioport.h **** {
 244:./src/asf/common/services/ioport/xmega/ioport.h **** 	PORT_t *base = arch_ioport_pin_to_base(pin);
 245:./src/asf/common/services/ioport/xmega/ioport.h **** 
 246:./src/asf/common/services/ioport/xmega/ioport.h **** 	if (dir == IOPORT_DIR_OUTPUT) {
 247:./src/asf/common/services/ioport/xmega/ioport.h **** 		base->DIRSET = arch_ioport_pin_to_mask(pin);
 248:./src/asf/common/services/ioport/xmega/ioport.h **** 	} else if (dir == IOPORT_DIR_INPUT) {
 249:./src/asf/common/services/ioport/xmega/ioport.h **** 		base->DIRCLR = arch_ioport_pin_to_mask(pin);
 250:./src/asf/common/services/ioport/xmega/ioport.h **** 	}
 251:./src/asf/common/services/ioport/xmega/ioport.h **** }
 252:./src/asf/common/services/ioport/xmega/ioport.h **** 
 253:./src/asf/common/services/ioport/xmega/ioport.h **** __always_inline static void arch_ioport_set_pin_level(ioport_pin_t pin,
 254:./src/asf/common/services/ioport/xmega/ioport.h **** 		bool level)
 255:./src/asf/common/services/ioport/xmega/ioport.h **** {
 256:./src/asf/common/services/ioport/xmega/ioport.h **** 	PORT_t *base = arch_ioport_pin_to_base(pin);
 257:./src/asf/common/services/ioport/xmega/ioport.h **** 
 258:./src/asf/common/services/ioport/xmega/ioport.h **** 	if (level) {
 259:./src/asf/common/services/ioport/xmega/ioport.h **** 		base->OUTSET = arch_ioport_pin_to_mask(pin);
 260:./src/asf/common/services/ioport/xmega/ioport.h **** 	} else {
 261:./src/asf/common/services/ioport/xmega/ioport.h **** 		base->OUTCLR = arch_ioport_pin_to_mask(pin);
 250               		.loc 3 261 0
 251 0126 E0E4      		ldi r30,lo8(1600)
 252 0128 F6E0      		ldi r31,hi8(1600)
 253 012a 80E1      		ldi r24,lo8(16)
 254 012c 8683      		std Z+6,r24
 255               	.LVL6:
 256               	.LBE156:
 257               	.LBE155:
 258               	.LBE154:
 259               	.LBB157:
 260               	.LBB158:
 261               	.LBB159:
GAS LISTING /tmp/ccwf6aFs.s 			page 14


 262 012e 80E4      		ldi r24,lo8(64)
 263 0130 8683      		std Z+6,r24
 264               	/* epilogue start */
 265               	.LBE159:
 266               	.LBE158:
 267               	.LBE157:
  64:src/main.c    **** 	ioport_set_pin_low(RS485_DE);
  65:src/main.c    **** 	ioport_set_pin_low(RS485_REn);
  66:src/main.c    **** }
 268               		.loc 1 66 0
 269 0132 FF91      		pop r31
 270 0134 EF91      		pop r30
 271 0136 8F91      		pop r24
 272 0138 0F90      		pop r0
 273 013a 0FBE      		out __SREG__,r0
 274 013c 0F90      		pop r0
 275 013e 1F90      		pop r1
 276 0140 1895      		reti
 277               		.cfi_endproc
 278               	.LFE262:
 279               		.size	__vector_26, .-__vector_26
 280               	.global	__vector_25
 281               		.type	__vector_25, @function
 282               	__vector_25:
 283               	.LFB263:
  67:src/main.c    **** 
  68:src/main.c    **** ISR(USARTC0_RXC_vect)
  69:src/main.c    **** {
 284               		.loc 1 69 0
 285               		.cfi_startproc
 286 0142 1F92      		push r1
 287               	.LCFI7:
 288               		.cfi_def_cfa_offset 3
 289               		.cfi_offset 1, -2
 290 0144 0F92      		push r0
 291               	.LCFI8:
 292               		.cfi_def_cfa_offset 4
 293               		.cfi_offset 0, -3
 294 0146 0FB6      		in r0,__SREG__
 295 0148 0F92      		push r0
 296 014a 1124      		clr __zero_reg__
 297 014c 2F93      		push r18
 298               	.LCFI9:
 299               		.cfi_def_cfa_offset 5
 300               		.cfi_offset 18, -4
 301 014e 3F93      		push r19
 302               	.LCFI10:
 303               		.cfi_def_cfa_offset 6
 304               		.cfi_offset 19, -5
 305 0150 4F93      		push r20
 306               	.LCFI11:
 307               		.cfi_def_cfa_offset 7
 308               		.cfi_offset 20, -6
 309 0152 5F93      		push r21
 310               	.LCFI12:
 311               		.cfi_def_cfa_offset 8
 312               		.cfi_offset 21, -7
GAS LISTING /tmp/ccwf6aFs.s 			page 15


 313 0154 6F93      		push r22
 314               	.LCFI13:
 315               		.cfi_def_cfa_offset 9
 316               		.cfi_offset 22, -8
 317 0156 7F93      		push r23
 318               	.LCFI14:
 319               		.cfi_def_cfa_offset 10
 320               		.cfi_offset 23, -9
 321 0158 8F93      		push r24
 322               	.LCFI15:
 323               		.cfi_def_cfa_offset 11
 324               		.cfi_offset 24, -10
 325 015a 9F93      		push r25
 326               	.LCFI16:
 327               		.cfi_def_cfa_offset 12
 328               		.cfi_offset 25, -11
 329 015c AF93      		push r26
 330               	.LCFI17:
 331               		.cfi_def_cfa_offset 13
 332               		.cfi_offset 26, -12
 333 015e BF93      		push r27
 334               	.LCFI18:
 335               		.cfi_def_cfa_offset 14
 336               		.cfi_offset 27, -13
 337 0160 EF93      		push r30
 338               	.LCFI19:
 339               		.cfi_def_cfa_offset 15
 340               		.cfi_offset 30, -14
 341 0162 FF93      		push r31
 342               	.LCFI20:
 343               		.cfi_def_cfa_offset 16
 344               		.cfi_offset 31, -15
 345               	/* prologue: Signal */
 346               	/* frame size = 0 */
 347               	/* stack size = 15 */
 348               	.L__stack_usage = 15
  70:src/main.c    **** 	PORTA.OUTSET = (1<<6);
 349               		.loc 1 70 0
 350 0164 80E4      		ldi r24,lo8(64)
 351 0166 E0E0      		ldi r30,lo8(1536)
 352 0168 F6E0      		ldi r31,hi8(1536)
 353 016a 8583      		std Z+5,r24
  71:src/main.c    **** 	g_usartData = USARTC0.DATA;
 354               		.loc 1 71 0
 355 016c 8091 A008 		lds r24,2208
 356               	.LVL7:
 357 0170 8093 0000 		sts g_usartData,r24
  72:src/main.c    **** 	process_usb(true);
 358               		.loc 1 72 0
 359 0174 81E0      		ldi r24,lo8(1)
 360               	.LVL8:
 361 0176 0E94 0000 		call process_usb
 362               	/* epilogue start */
  73:src/main.c    **** }
 363               		.loc 1 73 0
 364 017a FF91      		pop r31
 365 017c EF91      		pop r30
GAS LISTING /tmp/ccwf6aFs.s 			page 16


 366 017e BF91      		pop r27
 367 0180 AF91      		pop r26
 368 0182 9F91      		pop r25
 369 0184 8F91      		pop r24
 370 0186 7F91      		pop r23
 371 0188 6F91      		pop r22
 372 018a 5F91      		pop r21
 373 018c 4F91      		pop r20
 374 018e 3F91      		pop r19
 375 0190 2F91      		pop r18
 376 0192 0F90      		pop r0
 377 0194 0FBE      		out __SREG__,r0
 378 0196 0F90      		pop r0
 379 0198 1F90      		pop r1
 380 019a 1895      		reti
 381               		.cfi_endproc
 382               	.LFE263:
 383               		.size	__vector_25, .-__vector_25
 384               	.global	spi_init_pins
 385               		.type	spi_init_pins, @function
 386               	spi_init_pins:
 387               	.LFB264:
  74:src/main.c    **** 
  75:src/main.c    **** void spi_init_pins(void)
  76:src/main.c    **** {
 388               		.loc 1 76 0
 389               		.cfi_startproc
 390               	/* prologue: function */
 391               	/* frame size = 0 */
 392               	/* stack size = 0 */
 393               	.L__stack_usage = 0
  77:src/main.c    **** 	PORTC.DIRSET = (1<<4) | (1<<5) | (1<<7);
 394               		.loc 1 77 0
 395 019c E0E4      		ldi r30,lo8(1600)
 396 019e F6E0      		ldi r31,hi8(1600)
 397 01a0 80EB      		ldi r24,lo8(-80)
 398 01a2 8183      		std Z+1,r24
  78:src/main.c    **** 	PORTC.PIN4CTRL = PORT_OPC_PULLUP_gc;
 399               		.loc 1 78 0
 400 01a4 88E1      		ldi r24,lo8(24)
 401 01a6 848B      		std Z+20,r24
  79:src/main.c    **** 	PORTC.PIN5CTRL = PORT_OPC_PULLUP_gc;
 402               		.loc 1 79 0
 403 01a8 858B      		std Z+21,r24
  80:src/main.c    **** 	PORTC.PIN7CTRL = PORT_OPC_PULLUP_gc;
 404               		.loc 1 80 0
 405 01aa 878B      		std Z+23,r24
 406               	/* epilogue start */
  81:src/main.c    **** }
 407               		.loc 1 81 0
 408 01ac 0895      		ret
 409               		.cfi_endproc
 410               	.LFE264:
 411               		.size	spi_init_pins, .-spi_init_pins
 412               	.global	spi_init_module
 413               		.type	spi_init_module, @function
 414               	spi_init_module:
GAS LISTING /tmp/ccwf6aFs.s 			page 17


 415               	.LFB265:
  82:src/main.c    **** 
  83:src/main.c    **** void spi_init_module(void)
  84:src/main.c    **** {
 416               		.loc 1 84 0
 417               		.cfi_startproc
 418 01ae CF92      		push r12
 419               	.LCFI21:
 420               		.cfi_def_cfa_offset 3
 421               		.cfi_offset 12, -2
 422 01b0 DF92      		push r13
 423               	.LCFI22:
 424               		.cfi_def_cfa_offset 4
 425               		.cfi_offset 13, -3
 426 01b2 EF92      		push r14
 427               	.LCFI23:
 428               		.cfi_def_cfa_offset 5
 429               		.cfi_offset 14, -4
 430 01b4 FF92      		push r15
 431               	.LCFI24:
 432               		.cfi_def_cfa_offset 6
 433               		.cfi_offset 15, -5
 434 01b6 0F93      		push r16
 435               	.LCFI25:
 436               		.cfi_def_cfa_offset 7
 437               		.cfi_offset 16, -6
 438 01b8 1F93      		push r17
 439               	.LCFI26:
 440               		.cfi_def_cfa_offset 8
 441               		.cfi_offset 17, -7
 442               	/* prologue: function */
 443               	/* frame size = 0 */
 444               	/* stack size = 6 */
 445               	.L__stack_usage = 6
  85:src/main.c    **** 	spi_master_init(&SPIC);
 446               		.loc 1 85 0
 447 01ba 80EC      		ldi r24,lo8(2240)
 448 01bc 98E0      		ldi r25,hi8(2240)
 449 01be 0E94 0000 		call spi_master_init
  86:src/main.c    **** 	spi_master_setup_device(&SPIC, &dummy_device, SPI_MODE_0, 2500000, 0);
 450               		.loc 1 86 0
 451 01c2 80EC      		ldi r24,lo8(2240)
 452 01c4 98E0      		ldi r25,hi8(2240)
 453 01c6 60E0      		ldi r22,lo8(dummy_device)
 454 01c8 70E0      		ldi r23,hi8(dummy_device)
 455 01ca 40E0      		ldi r20,lo8(0)
 456 01cc 00EA      		ldi r16,lo8(2500000)
 457 01ce 15E2      		ldi r17,hi8(2500000)
 458 01d0 26E2      		ldi r18,hlo8(2500000)
 459 01d2 30E0      		ldi r19,hhi8(2500000)
 460 01d4 CC24      		clr r12
 461 01d6 DD24      		clr r13
 462 01d8 7601      		movw r14,r12
 463 01da 0E94 0000 		call spi_master_setup_device
 464               	.LVL9:
 465               	.LBB160:
 466               	.LBB161:
GAS LISTING /tmp/ccwf6aFs.s 			page 18


 467               		.file 4 "./src/asf/xmega/drivers/spi/spi.h"
   1:./src/asf/xmega/drivers/spi/spi.h **** /*****************************************************************************
   2:./src/asf/xmega/drivers/spi/spi.h ****  *
   3:./src/asf/xmega/drivers/spi/spi.h ****  * \file
   4:./src/asf/xmega/drivers/spi/spi.h ****  *
   5:./src/asf/xmega/drivers/spi/spi.h ****  * \brief SPI driver for AVR.
   6:./src/asf/xmega/drivers/spi/spi.h ****  *
   7:./src/asf/xmega/drivers/spi/spi.h ****  * This file defines a useful set of functions for the SPI interface on AVR
   8:./src/asf/xmega/drivers/spi/spi.h ****  * devices.
   9:./src/asf/xmega/drivers/spi/spi.h ****  *
  10:./src/asf/xmega/drivers/spi/spi.h ****  * Copyright (c) 2009 Atmel Corporation. All rights reserved.
  11:./src/asf/xmega/drivers/spi/spi.h ****  *
  12:./src/asf/xmega/drivers/spi/spi.h ****  * \asf_license_start
  13:./src/asf/xmega/drivers/spi/spi.h ****  *
  14:./src/asf/xmega/drivers/spi/spi.h ****  * \page License
  15:./src/asf/xmega/drivers/spi/spi.h ****  *
  16:./src/asf/xmega/drivers/spi/spi.h ****  * Redistribution and use in source and binary forms, with or without
  17:./src/asf/xmega/drivers/spi/spi.h ****  * modification, are permitted provided that the following conditions are met:
  18:./src/asf/xmega/drivers/spi/spi.h ****  *
  19:./src/asf/xmega/drivers/spi/spi.h ****  * 1. Redistributions of source code must retain the above copyright notice,
  20:./src/asf/xmega/drivers/spi/spi.h ****  *    this list of conditions and the following disclaimer.
  21:./src/asf/xmega/drivers/spi/spi.h ****  *
  22:./src/asf/xmega/drivers/spi/spi.h ****  * 2. Redistributions in binary form must reproduce the above copyright notice,
  23:./src/asf/xmega/drivers/spi/spi.h ****  *    this list of conditions and the following disclaimer in the documentation
  24:./src/asf/xmega/drivers/spi/spi.h ****  *    and/or other materials provided with the distribution.
  25:./src/asf/xmega/drivers/spi/spi.h ****  *
  26:./src/asf/xmega/drivers/spi/spi.h ****  * 3. The name of Atmel may not be used to endorse or promote products derived
  27:./src/asf/xmega/drivers/spi/spi.h ****  *    from this software without specific prior written permission.
  28:./src/asf/xmega/drivers/spi/spi.h ****  *
  29:./src/asf/xmega/drivers/spi/spi.h ****  * 4. This software may only be redistributed and used in connection with an
  30:./src/asf/xmega/drivers/spi/spi.h ****  *    Atmel microcontroller product.
  31:./src/asf/xmega/drivers/spi/spi.h ****  *
  32:./src/asf/xmega/drivers/spi/spi.h ****  * THIS SOFTWARE IS PROVIDED BY ATMEL "AS IS" AND ANY EXPRESS OR IMPLIED
  33:./src/asf/xmega/drivers/spi/spi.h ****  * WARRANTIES, INCLUDING, BUT NOT LIMITED TO, THE IMPLIED WARRANTIES OF
  34:./src/asf/xmega/drivers/spi/spi.h ****  * MERCHANTABILITY, FITNESS FOR A PARTICULAR PURPOSE AND NON-INFRINGEMENT ARE
  35:./src/asf/xmega/drivers/spi/spi.h ****  * EXPRESSLY AND SPECIFICALLY DISCLAIMED. IN NO EVENT SHALL ATMEL BE LIABLE FOR
  36:./src/asf/xmega/drivers/spi/spi.h ****  * ANY DIRECT, INDIRECT, INCIDENTAL, SPECIAL, EXEMPLARY, OR CONSEQUENTIAL
  37:./src/asf/xmega/drivers/spi/spi.h ****  * DAMAGES (INCLUDING, BUT NOT LIMITED TO, PROCUREMENT OF SUBSTITUTE GOODS
  38:./src/asf/xmega/drivers/spi/spi.h ****  * OR SERVICES; LOSS OF USE, DATA, OR PROFITS; OR BUSINESS INTERRUPTION)
  39:./src/asf/xmega/drivers/spi/spi.h ****  * HOWEVER CAUSED AND ON ANY THEORY OF LIABILITY, WHETHER IN CONTRACT,
  40:./src/asf/xmega/drivers/spi/spi.h ****  * STRICT LIABILITY, OR TORT (INCLUDING NEGLIGENCE OR OTHERWISE) ARISING IN
  41:./src/asf/xmega/drivers/spi/spi.h ****  * ANY WAY OUT OF THE USE OF THIS SOFTWARE, EVEN IF ADVISED OF THE
  42:./src/asf/xmega/drivers/spi/spi.h ****  * POSSIBILITY OF SUCH DAMAGE.
  43:./src/asf/xmega/drivers/spi/spi.h ****  *
  44:./src/asf/xmega/drivers/spi/spi.h ****  * \asf_license_stop
  45:./src/asf/xmega/drivers/spi/spi.h ****  *
  46:./src/asf/xmega/drivers/spi/spi.h ****  ******************************************************************************/
  47:./src/asf/xmega/drivers/spi/spi.h **** 
  48:./src/asf/xmega/drivers/spi/spi.h **** 
  49:./src/asf/xmega/drivers/spi/spi.h **** #ifndef _SPI_H_
  50:./src/asf/xmega/drivers/spi/spi.h **** #define _SPI_H_
  51:./src/asf/xmega/drivers/spi/spi.h **** 
  52:./src/asf/xmega/drivers/spi/spi.h **** /**
  53:./src/asf/xmega/drivers/spi/spi.h ****  * \defgroup group_xmega_drivers_spi SPI - Serial Peripheral Interface
  54:./src/asf/xmega/drivers/spi/spi.h ****  *
  55:./src/asf/xmega/drivers/spi/spi.h ****  * Driver for the Serial Peripheral Interface (SPI).
  56:./src/asf/xmega/drivers/spi/spi.h ****  * Provides functions for configuring and using the SPI.
GAS LISTING /tmp/ccwf6aFs.s 			page 19


  57:./src/asf/xmega/drivers/spi/spi.h ****  *
  58:./src/asf/xmega/drivers/spi/spi.h ****  * \{
  59:./src/asf/xmega/drivers/spi/spi.h ****  */
  60:./src/asf/xmega/drivers/spi/spi.h **** 
  61:./src/asf/xmega/drivers/spi/spi.h **** #include "compiler.h"
  62:./src/asf/xmega/drivers/spi/spi.h **** #include "status_codes.h"
  63:./src/asf/xmega/drivers/spi/spi.h **** #include "ioport.h"
  64:./src/asf/xmega/drivers/spi/spi.h **** 
  65:./src/asf/xmega/drivers/spi/spi.h **** /*! \brief Calculates the SPI baudrate divider.
  66:./src/asf/xmega/drivers/spi/spi.h ****  *
  67:./src/asf/xmega/drivers/spi/spi.h ****  * \param baudrate The expected baudrate on the SPI.
  68:./src/asf/xmega/drivers/spi/spi.h ****  * \param clkper_hz  SPI module input clock frequency (Peripheral clock, Hz).
  69:./src/asf/xmega/drivers/spi/spi.h ****  * \param spi The SPI module address
  70:./src/asf/xmega/drivers/spi/spi.h ****  *
  71:./src/asf/xmega/drivers/spi/spi.h ****  * \return Divider or error code.
  72:./src/asf/xmega/drivers/spi/spi.h ****  *   \retval >=0  Success.
  73:./src/asf/xmega/drivers/spi/spi.h ****  *   \retval  <0  Error.
  74:./src/asf/xmega/drivers/spi/spi.h ****  */
  75:./src/asf/xmega/drivers/spi/spi.h **** int8_t spi_xmega_set_baud_div(SPI_t *spi, uint32_t baudrate, uint32_t clkper_hz);
  76:./src/asf/xmega/drivers/spi/spi.h **** 
  77:./src/asf/xmega/drivers/spi/spi.h **** /*! \brief Enables the SPI.
  78:./src/asf/xmega/drivers/spi/spi.h ****  *
  79:./src/asf/xmega/drivers/spi/spi.h ****  * \param spi Base address of the SPI instance.
  80:./src/asf/xmega/drivers/spi/spi.h ****  */
  81:./src/asf/xmega/drivers/spi/spi.h **** static inline void spi_enable(SPI_t *spi)
  82:./src/asf/xmega/drivers/spi/spi.h **** {
  83:./src/asf/xmega/drivers/spi/spi.h **** 	spi->CTRL |= SPI_ENABLE_bm;
 468               		.loc 4 83 0
 469 01de E0EC      		ldi r30,lo8(2240)
 470 01e0 F8E0      		ldi r31,hi8(2240)
 471 01e2 8081      		ld r24,Z
 472 01e4 8064      		ori r24,lo8(64)
 473 01e6 8083      		st Z,r24
 474               	/* epilogue start */
 475               	.LBE161:
 476               	.LBE160:
  87:src/main.c    **** 	spi_enable(&SPIC);
  88:src/main.c    **** }
 477               		.loc 1 88 0
 478 01e8 1F91      		pop r17
 479 01ea 0F91      		pop r16
 480 01ec FF90      		pop r15
 481 01ee EF90      		pop r14
 482 01f0 DF90      		pop r13
 483 01f2 CF90      		pop r12
 484 01f4 0895      		ret
 485               		.cfi_endproc
 486               	.LFE265:
 487               		.size	spi_init_module, .-spi_init_module
 488               	.global	main
 489               		.type	main, @function
 490               	main:
 491               	.LFB266:
  89:src/main.c    **** 
  90:src/main.c    **** 
  91:src/main.c    **** int main (void)
  92:src/main.c    **** {
GAS LISTING /tmp/ccwf6aFs.s 			page 20


 492               		.loc 1 92 0
 493               		.cfi_startproc
 494 01f6 CF93      		push r28
 495               	.LCFI27:
 496               		.cfi_def_cfa_offset 3
 497               		.cfi_offset 28, -2
 498 01f8 DF93      		push r29
 499               	.LCFI28:
 500               		.cfi_def_cfa_offset 4
 501               		.cfi_offset 29, -3
 502 01fa CDB7      		in r28,__SP_L__
 503 01fc DEB7      		in r29,__SP_H__
 504 01fe 2E97      		sbiw r28,14
 505               	.LCFI29:
 506               		.cfi_def_cfa 28, 18
 507 0200 CDBF      		out __SP_L__,r28
 508 0202 DEBF      		out __SP_H__,r29
 509               	/* prologue: function */
 510               	/* frame size = 14 */
 511               	/* stack size = 16 */
 512               	.L__stack_usage = 16
  93:src/main.c    **** 	sysclk_init();
 513               		.loc 1 93 0
 514 0204 0E94 0000 		call sysclk_init
 515               	.LBB162:
 516               	.LBB163:
 517               		.file 5 "./src/asf/xmega/drivers/pmic/pmic.h"
   1:./src/asf/xmega/drivers/pmic/pmic.h **** /**
   2:./src/asf/xmega/drivers/pmic/pmic.h ****  * \file
   3:./src/asf/xmega/drivers/pmic/pmic.h ****  *
   4:./src/asf/xmega/drivers/pmic/pmic.h ****  * \brief Programmable Multilevel Interrupt Controller driver
   5:./src/asf/xmega/drivers/pmic/pmic.h ****  *
   6:./src/asf/xmega/drivers/pmic/pmic.h ****  * Copyright (c) 2010-2012 Atmel Corporation. All rights reserved.
   7:./src/asf/xmega/drivers/pmic/pmic.h ****  *
   8:./src/asf/xmega/drivers/pmic/pmic.h ****  * \asf_license_start
   9:./src/asf/xmega/drivers/pmic/pmic.h ****  *
  10:./src/asf/xmega/drivers/pmic/pmic.h ****  * \page License
  11:./src/asf/xmega/drivers/pmic/pmic.h ****  *
  12:./src/asf/xmega/drivers/pmic/pmic.h ****  * Redistribution and use in source and binary forms, with or without
  13:./src/asf/xmega/drivers/pmic/pmic.h ****  * modification, are permitted provided that the following conditions are met:
  14:./src/asf/xmega/drivers/pmic/pmic.h ****  *
  15:./src/asf/xmega/drivers/pmic/pmic.h ****  * 1. Redistributions of source code must retain the above copyright notice,
  16:./src/asf/xmega/drivers/pmic/pmic.h ****  *    this list of conditions and the following disclaimer.
  17:./src/asf/xmega/drivers/pmic/pmic.h ****  *
  18:./src/asf/xmega/drivers/pmic/pmic.h ****  * 2. Redistributions in binary form must reproduce the above copyright notice,
  19:./src/asf/xmega/drivers/pmic/pmic.h ****  *    this list of conditions and the following disclaimer in the documentation
  20:./src/asf/xmega/drivers/pmic/pmic.h ****  *    and/or other materials provided with the distribution.
  21:./src/asf/xmega/drivers/pmic/pmic.h ****  *
  22:./src/asf/xmega/drivers/pmic/pmic.h ****  * 3. The name of Atmel may not be used to endorse or promote products derived
  23:./src/asf/xmega/drivers/pmic/pmic.h ****  *    from this software without specific prior written permission.
  24:./src/asf/xmega/drivers/pmic/pmic.h ****  *
  25:./src/asf/xmega/drivers/pmic/pmic.h ****  * 4. This software may only be redistributed and used in connection with an
  26:./src/asf/xmega/drivers/pmic/pmic.h ****  *    Atmel microcontroller product.
  27:./src/asf/xmega/drivers/pmic/pmic.h ****  *
  28:./src/asf/xmega/drivers/pmic/pmic.h ****  * THIS SOFTWARE IS PROVIDED BY ATMEL "AS IS" AND ANY EXPRESS OR IMPLIED
  29:./src/asf/xmega/drivers/pmic/pmic.h ****  * WARRANTIES, INCLUDING, BUT NOT LIMITED TO, THE IMPLIED WARRANTIES OF
  30:./src/asf/xmega/drivers/pmic/pmic.h ****  * MERCHANTABILITY, FITNESS FOR A PARTICULAR PURPOSE AND NON-INFRINGEMENT ARE
GAS LISTING /tmp/ccwf6aFs.s 			page 21


  31:./src/asf/xmega/drivers/pmic/pmic.h ****  * EXPRESSLY AND SPECIFICALLY DISCLAIMED. IN NO EVENT SHALL ATMEL BE LIABLE FOR
  32:./src/asf/xmega/drivers/pmic/pmic.h ****  * ANY DIRECT, INDIRECT, INCIDENTAL, SPECIAL, EXEMPLARY, OR CONSEQUENTIAL
  33:./src/asf/xmega/drivers/pmic/pmic.h ****  * DAMAGES (INCLUDING, BUT NOT LIMITED TO, PROCUREMENT OF SUBSTITUTE GOODS
  34:./src/asf/xmega/drivers/pmic/pmic.h ****  * OR SERVICES; LOSS OF USE, DATA, OR PROFITS; OR BUSINESS INTERRUPTION)
  35:./src/asf/xmega/drivers/pmic/pmic.h ****  * HOWEVER CAUSED AND ON ANY THEORY OF LIABILITY, WHETHER IN CONTRACT,
  36:./src/asf/xmega/drivers/pmic/pmic.h ****  * STRICT LIABILITY, OR TORT (INCLUDING NEGLIGENCE OR OTHERWISE) ARISING IN
  37:./src/asf/xmega/drivers/pmic/pmic.h ****  * ANY WAY OUT OF THE USE OF THIS SOFTWARE, EVEN IF ADVISED OF THE
  38:./src/asf/xmega/drivers/pmic/pmic.h ****  * POSSIBILITY OF SUCH DAMAGE.
  39:./src/asf/xmega/drivers/pmic/pmic.h ****  *
  40:./src/asf/xmega/drivers/pmic/pmic.h ****  * \asf_license_stop
  41:./src/asf/xmega/drivers/pmic/pmic.h ****  *
  42:./src/asf/xmega/drivers/pmic/pmic.h ****  */
  43:./src/asf/xmega/drivers/pmic/pmic.h **** #ifndef PMIC_H
  44:./src/asf/xmega/drivers/pmic/pmic.h **** #define PMIC_H
  45:./src/asf/xmega/drivers/pmic/pmic.h **** 
  46:./src/asf/xmega/drivers/pmic/pmic.h **** #include <compiler.h>
  47:./src/asf/xmega/drivers/pmic/pmic.h **** #include <ccp.h>
  48:./src/asf/xmega/drivers/pmic/pmic.h **** 
  49:./src/asf/xmega/drivers/pmic/pmic.h **** /**
  50:./src/asf/xmega/drivers/pmic/pmic.h ****  * \defgroup pmic_group Programmable Multilevel Interrupt Controller
  51:./src/asf/xmega/drivers/pmic/pmic.h ****  *
  52:./src/asf/xmega/drivers/pmic/pmic.h ****  * See \ref xmega_pmic_quickstart.
  53:./src/asf/xmega/drivers/pmic/pmic.h ****  *
  54:./src/asf/xmega/drivers/pmic/pmic.h ****  * This is a low-level driver implementation for the AVR XMEGA Programmable
  55:./src/asf/xmega/drivers/pmic/pmic.h ****  * Multilevel Interrupt Controller.
  56:./src/asf/xmega/drivers/pmic/pmic.h ****  *
  57:./src/asf/xmega/drivers/pmic/pmic.h ****  * \note If these functions are used in interrupt service routines (ISRs), any
  58:./src/asf/xmega/drivers/pmic/pmic.h ****  * non-ISR code or ISR code for lower level interrupts must ensure that the
  59:./src/asf/xmega/drivers/pmic/pmic.h ****  * operations are atomic, i.e., by disabling interrupts during the function
  60:./src/asf/xmega/drivers/pmic/pmic.h ****  * calls.
  61:./src/asf/xmega/drivers/pmic/pmic.h ****  * @{
  62:./src/asf/xmega/drivers/pmic/pmic.h ****  */
  63:./src/asf/xmega/drivers/pmic/pmic.h **** 
  64:./src/asf/xmega/drivers/pmic/pmic.h **** /**
  65:./src/asf/xmega/drivers/pmic/pmic.h ****  * \brief Interrupt level bitmasks
  66:./src/asf/xmega/drivers/pmic/pmic.h ****  *
  67:./src/asf/xmega/drivers/pmic/pmic.h ****  * \note These may be OR'ed, e.g., if multiple levels are to be enabled or
  68:./src/asf/xmega/drivers/pmic/pmic.h ****  * disabled.
  69:./src/asf/xmega/drivers/pmic/pmic.h ****  */
  70:./src/asf/xmega/drivers/pmic/pmic.h **** enum pmic_level {
  71:./src/asf/xmega/drivers/pmic/pmic.h **** 	PMIC_LVL_LOW    = PMIC_LOLVLEN_bm,    //!< Low-level interrupts
  72:./src/asf/xmega/drivers/pmic/pmic.h **** 	PMIC_LVL_MEDIUM = PMIC_MEDLVLEN_bm,   //!< Medium-level interrupts
  73:./src/asf/xmega/drivers/pmic/pmic.h **** 	PMIC_LVL_HIGH   = PMIC_HILVLEN_bm,    //!< High-level interrupts
  74:./src/asf/xmega/drivers/pmic/pmic.h **** 	/**
  75:./src/asf/xmega/drivers/pmic/pmic.h **** 	 * \brief Non-maskable interrupts
  76:./src/asf/xmega/drivers/pmic/pmic.h **** 	 * \note These cannot be enabled nor disabled.
  77:./src/asf/xmega/drivers/pmic/pmic.h **** 	 */
  78:./src/asf/xmega/drivers/pmic/pmic.h **** 	PMIC_LVL_NMI    = PMIC_NMIEX_bp,
  79:./src/asf/xmega/drivers/pmic/pmic.h **** };
  80:./src/asf/xmega/drivers/pmic/pmic.h **** 
  81:./src/asf/xmega/drivers/pmic/pmic.h **** //! Interrupt vector locations
  82:./src/asf/xmega/drivers/pmic/pmic.h **** enum pmic_vector {
  83:./src/asf/xmega/drivers/pmic/pmic.h **** 	PMIC_VEC_APPLICATION,    //!< Application section
  84:./src/asf/xmega/drivers/pmic/pmic.h **** 	PMIC_VEC_BOOT,           //!< Boot section
  85:./src/asf/xmega/drivers/pmic/pmic.h **** 	PMIC_NR_OF_VECTORS,      //!< Number of interrupt vector locations
  86:./src/asf/xmega/drivers/pmic/pmic.h **** };
  87:./src/asf/xmega/drivers/pmic/pmic.h **** 
GAS LISTING /tmp/ccwf6aFs.s 			page 22


  88:./src/asf/xmega/drivers/pmic/pmic.h **** //! Interrupt scheduling schemes
  89:./src/asf/xmega/drivers/pmic/pmic.h **** enum pmic_schedule {
  90:./src/asf/xmega/drivers/pmic/pmic.h **** 	PMIC_SCH_FIXED_PRIORITY, //!< Default, fixed priority scheduling
  91:./src/asf/xmega/drivers/pmic/pmic.h **** 	PMIC_SCH_ROUND_ROBIN,    //!< Round-robin scheduling
  92:./src/asf/xmega/drivers/pmic/pmic.h **** 	PMIC_NR_OF_SCHEDULES,    //!< Number of interrupt scheduling schemes
  93:./src/asf/xmega/drivers/pmic/pmic.h **** };
  94:./src/asf/xmega/drivers/pmic/pmic.h **** 
  95:./src/asf/xmega/drivers/pmic/pmic.h **** /**
  96:./src/asf/xmega/drivers/pmic/pmic.h ****  * \brief Initialize the PMIC
  97:./src/asf/xmega/drivers/pmic/pmic.h ****  *
  98:./src/asf/xmega/drivers/pmic/pmic.h ****  * Enables all interrupt levels, with vectors located in the application section
  99:./src/asf/xmega/drivers/pmic/pmic.h ****  * and fixed priority scheduling.
 100:./src/asf/xmega/drivers/pmic/pmic.h ****  */
 101:./src/asf/xmega/drivers/pmic/pmic.h **** static inline void pmic_init(void)
 102:./src/asf/xmega/drivers/pmic/pmic.h **** {
 103:./src/asf/xmega/drivers/pmic/pmic.h **** 	PMIC.CTRL = PMIC_LVL_LOW | PMIC_LVL_MEDIUM |
 518               		.loc 5 103 0
 519 0208 E0EA      		ldi r30,lo8(160)
 520 020a F0E0      		ldi r31,hi8(160)
 521 020c 87E0      		ldi r24,lo8(7)
 522 020e 8283      		std Z+2,r24
 523               	.LBE163:
 524               	.LBE162:
  94:src/main.c    **** 	pmic_init();
  95:src/main.c    **** 	irq_initialize_vectors();
 525               		.loc 1 95 0
 526 0210 8283      		std Z+2,r24
  96:src/main.c    **** 	cpu_irq_enable();
 527               		.loc 1 96 0
 528               	/* #APP */
 529               	 ;  96 "src/main.c" 1
 530 0212 7894      		sei
 531               	 ;  0 "" 2
  97:src/main.c    **** 
  98:src/main.c    **** 	struct usart_rs232_options usart_params;
  99:src/main.c    **** 	
 100:src/main.c    **** 	usart_params.baudrate = 115200;
 532               		.loc 1 100 0
 533               	/* #NOAPP */
 534 0214 80E0      		ldi r24,lo8(115200)
 535 0216 92EC      		ldi r25,hi8(115200)
 536 0218 A1E0      		ldi r26,hlo8(115200)
 537 021a B0E0      		ldi r27,hhi8(115200)
 538 021c 8983      		std Y+1,r24
 539 021e 9A83      		std Y+2,r25
 540 0220 AB83      		std Y+3,r26
 541 0222 BC83      		std Y+4,r27
 101:src/main.c    **** 	usart_params.charlength = USART_CHSIZE_8BIT_gc;
 542               		.loc 1 101 0
 543 0224 13E0      		ldi r17,lo8(3)
 544 0226 1D83      		std Y+5,r17
 102:src/main.c    **** 	usart_params.paritytype = USART_PMODE_DISABLED_gc;
 545               		.loc 1 102 0
 546 0228 1E82      		std Y+6,__zero_reg__
 103:src/main.c    **** 	usart_params.stopbits = false;
 547               		.loc 1 103 0
 548 022a 1F82      		std Y+7,__zero_reg__
GAS LISTING /tmp/ccwf6aFs.s 			page 23


 549               	.LVL10:
 550               	.LBB164:
 551               	.LBB165:
 552               		.file 6 "./src/asf/common/utils/stdio/stdio_serial/stdio_serial.h"
   1:./src/asf/common/utils/stdio/stdio_serial/stdio_serial.h **** /**
   2:./src/asf/common/utils/stdio/stdio_serial/stdio_serial.h ****  *
   3:./src/asf/common/utils/stdio/stdio_serial/stdio_serial.h ****  * \file
   4:./src/asf/common/utils/stdio/stdio_serial/stdio_serial.h ****  *
   5:./src/asf/common/utils/stdio/stdio_serial/stdio_serial.h ****  * \brief Common Standard I/O Serial Management.
   6:./src/asf/common/utils/stdio/stdio_serial/stdio_serial.h ****  *
   7:./src/asf/common/utils/stdio/stdio_serial/stdio_serial.h ****  * This file defines a useful set of functions for the Stdio Serial interface on AVR
   8:./src/asf/common/utils/stdio/stdio_serial/stdio_serial.h ****  * and SAM devices.
   9:./src/asf/common/utils/stdio/stdio_serial/stdio_serial.h ****  *
  10:./src/asf/common/utils/stdio/stdio_serial/stdio_serial.h ****  * Copyright (c) 2009-2012 Atmel Corporation. All rights reserved.
  11:./src/asf/common/utils/stdio/stdio_serial/stdio_serial.h ****  *
  12:./src/asf/common/utils/stdio/stdio_serial/stdio_serial.h ****  * \asf_license_start
  13:./src/asf/common/utils/stdio/stdio_serial/stdio_serial.h ****  *
  14:./src/asf/common/utils/stdio/stdio_serial/stdio_serial.h ****  * \page License
  15:./src/asf/common/utils/stdio/stdio_serial/stdio_serial.h ****  *
  16:./src/asf/common/utils/stdio/stdio_serial/stdio_serial.h ****  * Redistribution and use in source and binary forms, with or without
  17:./src/asf/common/utils/stdio/stdio_serial/stdio_serial.h ****  * modification, are permitted provided that the following conditions are met:
  18:./src/asf/common/utils/stdio/stdio_serial/stdio_serial.h ****  *
  19:./src/asf/common/utils/stdio/stdio_serial/stdio_serial.h ****  * 1. Redistributions of source code must retain the above copyright notice,
  20:./src/asf/common/utils/stdio/stdio_serial/stdio_serial.h ****  *    this list of conditions and the following disclaimer.
  21:./src/asf/common/utils/stdio/stdio_serial/stdio_serial.h ****  *
  22:./src/asf/common/utils/stdio/stdio_serial/stdio_serial.h ****  * 2. Redistributions in binary form must reproduce the above copyright notice,
  23:./src/asf/common/utils/stdio/stdio_serial/stdio_serial.h ****  *    this list of conditions and the following disclaimer in the documentation
  24:./src/asf/common/utils/stdio/stdio_serial/stdio_serial.h ****  *    and/or other materials provided with the distribution.
  25:./src/asf/common/utils/stdio/stdio_serial/stdio_serial.h ****  *
  26:./src/asf/common/utils/stdio/stdio_serial/stdio_serial.h ****  * 3. The name of Atmel may not be used to endorse or promote products derived
  27:./src/asf/common/utils/stdio/stdio_serial/stdio_serial.h ****  *    from this software without specific prior written permission.
  28:./src/asf/common/utils/stdio/stdio_serial/stdio_serial.h ****  *
  29:./src/asf/common/utils/stdio/stdio_serial/stdio_serial.h ****  * 4. This software may only be redistributed and used in connection with an
  30:./src/asf/common/utils/stdio/stdio_serial/stdio_serial.h ****  *    Atmel microcontroller product.
  31:./src/asf/common/utils/stdio/stdio_serial/stdio_serial.h ****  *
  32:./src/asf/common/utils/stdio/stdio_serial/stdio_serial.h ****  * THIS SOFTWARE IS PROVIDED BY ATMEL "AS IS" AND ANY EXPRESS OR IMPLIED
  33:./src/asf/common/utils/stdio/stdio_serial/stdio_serial.h ****  * WARRANTIES, INCLUDING, BUT NOT LIMITED TO, THE IMPLIED WARRANTIES OF
  34:./src/asf/common/utils/stdio/stdio_serial/stdio_serial.h ****  * MERCHANTABILITY, FITNESS FOR A PARTICULAR PURPOSE AND NON-INFRINGEMENT ARE
  35:./src/asf/common/utils/stdio/stdio_serial/stdio_serial.h ****  * EXPRESSLY AND SPECIFICALLY DISCLAIMED. IN NO EVENT SHALL ATMEL BE LIABLE FOR
  36:./src/asf/common/utils/stdio/stdio_serial/stdio_serial.h ****  * ANY DIRECT, INDIRECT, INCIDENTAL, SPECIAL, EXEMPLARY, OR CONSEQUENTIAL
  37:./src/asf/common/utils/stdio/stdio_serial/stdio_serial.h ****  * DAMAGES (INCLUDING, BUT NOT LIMITED TO, PROCUREMENT OF SUBSTITUTE GOODS
  38:./src/asf/common/utils/stdio/stdio_serial/stdio_serial.h ****  * OR SERVICES; LOSS OF USE, DATA, OR PROFITS; OR BUSINESS INTERRUPTION)
  39:./src/asf/common/utils/stdio/stdio_serial/stdio_serial.h ****  * HOWEVER CAUSED AND ON ANY THEORY OF LIABILITY, WHETHER IN CONTRACT,
  40:./src/asf/common/utils/stdio/stdio_serial/stdio_serial.h ****  * STRICT LIABILITY, OR TORT (INCLUDING NEGLIGENCE OR OTHERWISE) ARISING IN
  41:./src/asf/common/utils/stdio/stdio_serial/stdio_serial.h ****  * ANY WAY OUT OF THE USE OF THIS SOFTWARE, EVEN IF ADVISED OF THE
  42:./src/asf/common/utils/stdio/stdio_serial/stdio_serial.h ****  * POSSIBILITY OF SUCH DAMAGE.
  43:./src/asf/common/utils/stdio/stdio_serial/stdio_serial.h ****  *
  44:./src/asf/common/utils/stdio/stdio_serial/stdio_serial.h ****  * \asf_license_stop
  45:./src/asf/common/utils/stdio/stdio_serial/stdio_serial.h ****  *
  46:./src/asf/common/utils/stdio/stdio_serial/stdio_serial.h ****  ******************************************************************************/
  47:./src/asf/common/utils/stdio/stdio_serial/stdio_serial.h **** 
  48:./src/asf/common/utils/stdio/stdio_serial/stdio_serial.h **** 
  49:./src/asf/common/utils/stdio/stdio_serial/stdio_serial.h **** #ifndef _STDIO_SERIAL_H_
  50:./src/asf/common/utils/stdio/stdio_serial/stdio_serial.h **** #define _STDIO_SERIAL_H_
  51:./src/asf/common/utils/stdio/stdio_serial/stdio_serial.h **** 
  52:./src/asf/common/utils/stdio/stdio_serial/stdio_serial.h **** /**
  53:./src/asf/common/utils/stdio/stdio_serial/stdio_serial.h ****  * \defgroup group_common_utils_stdio_stdio_serial Standard serial I/O (stdio)
GAS LISTING /tmp/ccwf6aFs.s 			page 24


  54:./src/asf/common/utils/stdio/stdio_serial/stdio_serial.h ****  * \ingroup group_common_utils_stdio
  55:./src/asf/common/utils/stdio/stdio_serial/stdio_serial.h ****  *
  56:./src/asf/common/utils/stdio/stdio_serial/stdio_serial.h ****  * Common standard serial I/O management driver that
  57:./src/asf/common/utils/stdio/stdio_serial/stdio_serial.h ****  * implements a stdio serial interface on AVR and SAM devices.
  58:./src/asf/common/utils/stdio/stdio_serial/stdio_serial.h ****  *
  59:./src/asf/common/utils/stdio/stdio_serial/stdio_serial.h ****  * \{
  60:./src/asf/common/utils/stdio/stdio_serial/stdio_serial.h ****  */
  61:./src/asf/common/utils/stdio/stdio_serial/stdio_serial.h **** 
  62:./src/asf/common/utils/stdio/stdio_serial/stdio_serial.h **** #include <stdio.h>
  63:./src/asf/common/utils/stdio/stdio_serial/stdio_serial.h **** #include "compiler.h"
  64:./src/asf/common/utils/stdio/stdio_serial/stdio_serial.h **** #include "sysclk.h"
  65:./src/asf/common/utils/stdio/stdio_serial/stdio_serial.h **** #include "serial.h"
  66:./src/asf/common/utils/stdio/stdio_serial/stdio_serial.h **** 
  67:./src/asf/common/utils/stdio/stdio_serial/stdio_serial.h **** #if XMEGA && defined(__GNUC__)
  68:./src/asf/common/utils/stdio/stdio_serial/stdio_serial.h **** 	extern int _write (char c, int *f);
  69:./src/asf/common/utils/stdio/stdio_serial/stdio_serial.h **** 	extern int _read (int *f);
  70:./src/asf/common/utils/stdio/stdio_serial/stdio_serial.h **** #endif
  71:./src/asf/common/utils/stdio/stdio_serial/stdio_serial.h **** 
  72:./src/asf/common/utils/stdio/stdio_serial/stdio_serial.h **** 
  73:./src/asf/common/utils/stdio/stdio_serial/stdio_serial.h **** //! Pointer to the base of the USART module instance to use for stdio.
  74:./src/asf/common/utils/stdio/stdio_serial/stdio_serial.h **** extern volatile void *volatile stdio_base;
  75:./src/asf/common/utils/stdio/stdio_serial/stdio_serial.h **** //! Pointer to the external low level write function.
  76:./src/asf/common/utils/stdio/stdio_serial/stdio_serial.h **** extern int (*ptr_put)(void volatile*, char);
  77:./src/asf/common/utils/stdio/stdio_serial/stdio_serial.h **** //! Pointer to the external low level read function.
  78:./src/asf/common/utils/stdio/stdio_serial/stdio_serial.h **** extern void (*ptr_get)(void volatile*, char*);
  79:./src/asf/common/utils/stdio/stdio_serial/stdio_serial.h **** 
  80:./src/asf/common/utils/stdio/stdio_serial/stdio_serial.h **** /*! \brief Initializes the stdio in Serial Mode.
  81:./src/asf/common/utils/stdio/stdio_serial/stdio_serial.h ****  *
  82:./src/asf/common/utils/stdio/stdio_serial/stdio_serial.h ****  * \param usart       Base address of the USART instance.
  83:./src/asf/common/utils/stdio/stdio_serial/stdio_serial.h ****  * \param opt         Options needed to set up RS232 communication (see \ref usart_options_t).
  84:./src/asf/common/utils/stdio/stdio_serial/stdio_serial.h ****  *
  85:./src/asf/common/utils/stdio/stdio_serial/stdio_serial.h ****  */
  86:./src/asf/common/utils/stdio/stdio_serial/stdio_serial.h **** static inline void stdio_serial_init(volatile void *usart, const usart_serial_options_t *opt)
  87:./src/asf/common/utils/stdio/stdio_serial/stdio_serial.h **** {
  88:./src/asf/common/utils/stdio/stdio_serial/stdio_serial.h **** 	stdio_base = (void *)usart;
 553               		.loc 6 88 0
 554 022c 20EA      		ldi r18,lo8(2720)
 555 022e 3AE0      		ldi r19,hi8(2720)
 556 0230 2093 0000 		sts stdio_base,r18
 557 0234 3093 0000 		sts stdio_base+1,r19
  89:./src/asf/common/utils/stdio/stdio_serial/stdio_serial.h **** 	ptr_put = (int (*)(void volatile*,char))&usart_serial_putchar;
 558               		.loc 6 89 0
 559 0238 20E0      		ldi r18,lo8(gs(usart_serial_putchar))
 560 023a 30E0      		ldi r19,hi8(gs(usart_serial_putchar))
 561 023c 2093 0000 		sts ptr_put,r18
 562 0240 3093 0000 		sts ptr_put+1,r19
  90:./src/asf/common/utils/stdio/stdio_serial/stdio_serial.h **** 	ptr_get = (void (*)(void volatile*,char*))&usart_serial_getchar;
 563               		.loc 6 90 0
 564 0244 20E0      		ldi r18,lo8(gs(usart_serial_getchar))
 565 0246 30E0      		ldi r19,hi8(gs(usart_serial_getchar))
 566 0248 2093 0000 		sts ptr_get,r18
 567 024c 3093 0000 		sts ptr_get+1,r19
 568               	.LVL11:
 569               	.LBB166:
 570               	.LBB167:
  75:./src/asf/common/services/serial/xmega_usart/usart_serial.h **** 	usart_rs232_options.charlength   = options->charlength;
 571               		.loc 2 75 0
GAS LISTING /tmp/ccwf6aFs.s 			page 25


 572 0250 1C87      		std Y+12,r17
  76:./src/asf/common/services/serial/xmega_usart/usart_serial.h **** 	usart_rs232_options.paritytype   = options->paritytype;
 573               		.loc 2 76 0
 574 0252 1D86      		std Y+13,__zero_reg__
  77:./src/asf/common/services/serial/xmega_usart/usart_serial.h **** 	usart_rs232_options.stopbits     = options->stopbits;
 575               		.loc 2 77 0
 576 0254 1E86      		std Y+14,__zero_reg__
  78:./src/asf/common/services/serial/xmega_usart/usart_serial.h **** 	usart_rs232_options.baudrate     = options->baudrate;
 577               		.loc 2 78 0
 578 0256 8887      		std Y+8,r24
 579 0258 9987      		std Y+9,r25
 580 025a AA87      		std Y+10,r26
 581 025c BB87      		std Y+11,r27
 102:./src/asf/common/services/serial/xmega_usart/usart_serial.h **** 		sysclk_enable_module(SYSCLK_PORT_E,PR_USART0_bm);
 582               		.loc 2 102 0
 583 025e 85E0      		ldi r24,lo8(5)
 584 0260 60E1      		ldi r22,lo8(16)
 585 0262 0E94 0000 		call sysclk_enable_module
 120:./src/asf/common/services/serial/xmega_usart/usart_serial.h **** 	if (usart_init_rs232(usart, &usart_rs232_options)) {
 586               		.loc 2 120 0
 587 0266 80EA      		ldi r24,lo8(2720)
 588 0268 9AE0      		ldi r25,hi8(2720)
 589 026a BE01      		movw r22,r28
 590 026c 685F      		subi r22,lo8(-(8))
 591 026e 7F4F      		sbci r23,hi8(-(8))
 592 0270 0E94 0000 		call usart_init_rs232
 593               	.LBE167:
 594               	.LBE166:
  91:./src/asf/common/utils/stdio/stdio_serial/stdio_serial.h **** #if XMEGA
  92:./src/asf/common/utils/stdio/stdio_serial/stdio_serial.h **** 	usart_serial_init((USART_t *)usart,opt);
  93:./src/asf/common/utils/stdio/stdio_serial/stdio_serial.h **** #elif UC3
  94:./src/asf/common/utils/stdio/stdio_serial/stdio_serial.h **** 	usart_serial_init(usart,(usart_serial_options_t *)opt);
  95:./src/asf/common/utils/stdio/stdio_serial/stdio_serial.h **** #elif SAM
  96:./src/asf/common/utils/stdio/stdio_serial/stdio_serial.h **** 	usart_serial_init((Usart *)usart,(usart_serial_options_t *)opt);
  97:./src/asf/common/utils/stdio/stdio_serial/stdio_serial.h **** #else
  98:./src/asf/common/utils/stdio/stdio_serial/stdio_serial.h **** # error Unsupported chip type
  99:./src/asf/common/utils/stdio/stdio_serial/stdio_serial.h **** #endif
 100:./src/asf/common/utils/stdio/stdio_serial/stdio_serial.h **** 
 101:./src/asf/common/utils/stdio/stdio_serial/stdio_serial.h **** #if defined(__GNUC__)
 102:./src/asf/common/utils/stdio/stdio_serial/stdio_serial.h **** # if XMEGA
 103:./src/asf/common/utils/stdio/stdio_serial/stdio_serial.h **** 	// For AVR GCC libc print redirection uses fdevopen.
 104:./src/asf/common/utils/stdio/stdio_serial/stdio_serial.h **** 	fdevopen((int (*)(char, FILE*))(_write),(int (*)(FILE*))(_read));
 595               		.loc 6 104 0
 596 0274 80E0      		ldi r24,lo8(gs(_write))
 597 0276 90E0      		ldi r25,hi8(gs(_write))
 598 0278 60E0      		ldi r22,lo8(gs(_read))
 599 027a 70E0      		ldi r23,hi8(gs(_read))
 600 027c 0E94 0000 		call fdevopen
 601               	.LBE165:
 602               	.LBE164:
 104:src/main.c    **** 	stdio_serial_init(&USARTE0, &usart_params);
 105:src/main.c    **** 
 106:src/main.c    **** 	usart_params.baudrate = 2000000;
 603               		.loc 1 106 0
 604 0280 80E8      		ldi r24,lo8(2000000)
 605 0282 94E8      		ldi r25,hi8(2000000)
 606 0284 AEE1      		ldi r26,hlo8(2000000)
GAS LISTING /tmp/ccwf6aFs.s 			page 26


 607 0286 B0E0      		ldi r27,hhi8(2000000)
 608 0288 8983      		std Y+1,r24
 609 028a 9A83      		std Y+2,r25
 610 028c AB83      		std Y+3,r26
 611 028e BC83      		std Y+4,r27
 107:src/main.c    **** 	usart_params.charlength = USART_CHSIZE_8BIT_gc;
 612               		.loc 1 107 0
 613 0290 1D83      		std Y+5,r17
 108:src/main.c    **** 	usart_params.paritytype = USART_PMODE_DISABLED_gc;
 614               		.loc 1 108 0
 615 0292 1E82      		std Y+6,__zero_reg__
 109:src/main.c    **** 	usart_params.stopbits = false;
 616               		.loc 1 109 0
 617 0294 1F82      		std Y+7,__zero_reg__
 110:src/main.c    **** 	usart_init_rs232(&USARTC0, &usart_params);
 618               		.loc 1 110 0
 619 0296 80EA      		ldi r24,lo8(2208)
 620 0298 98E0      		ldi r25,hi8(2208)
 621 029a BE01      		movw r22,r28
 622 029c 6F5F      		subi r22,lo8(-(1))
 623 029e 7F4F      		sbci r23,hi8(-(1))
 624 02a0 0E94 0000 		call usart_init_rs232
 625               	.LVL12:
 626               	.LBB168:
 627               	.LBB169:
 628               		.file 7 "./src/asf/xmega/drivers/usart/usart.h"
   1:./src/asf/xmega/drivers/usart/usart.h **** /**
   2:./src/asf/xmega/drivers/usart/usart.h ****  * \file
   3:./src/asf/xmega/drivers/usart/usart.h ****  *
   4:./src/asf/xmega/drivers/usart/usart.h ****  * \brief USART driver for AVR XMEGA.
   5:./src/asf/xmega/drivers/usart/usart.h ****  *
   6:./src/asf/xmega/drivers/usart/usart.h ****  * This file contains basic functions for the AVR XMEGA USART, with support for all
   7:./src/asf/xmega/drivers/usart/usart.h ****  * modes, settings and clock speeds.
   8:./src/asf/xmega/drivers/usart/usart.h ****  *
   9:./src/asf/xmega/drivers/usart/usart.h ****  * Copyright (c) 2009-2012 Atmel Corporation. All rights reserved.
  10:./src/asf/xmega/drivers/usart/usart.h ****  *
  11:./src/asf/xmega/drivers/usart/usart.h ****  * \asf_license_start
  12:./src/asf/xmega/drivers/usart/usart.h ****  *
  13:./src/asf/xmega/drivers/usart/usart.h ****  * \page License
  14:./src/asf/xmega/drivers/usart/usart.h ****  *
  15:./src/asf/xmega/drivers/usart/usart.h ****  * Redistribution and use in source and binary forms, with or without
  16:./src/asf/xmega/drivers/usart/usart.h ****  * modification, are permitted provided that the following conditions are met:
  17:./src/asf/xmega/drivers/usart/usart.h ****  *
  18:./src/asf/xmega/drivers/usart/usart.h ****  * 1. Redistributions of source code must retain the above copyright notice,
  19:./src/asf/xmega/drivers/usart/usart.h ****  *    this list of conditions and the following disclaimer.
  20:./src/asf/xmega/drivers/usart/usart.h ****  *
  21:./src/asf/xmega/drivers/usart/usart.h ****  * 2. Redistributions in binary form must reproduce the above copyright notice,
  22:./src/asf/xmega/drivers/usart/usart.h ****  *    this list of conditions and the following disclaimer in the documentation
  23:./src/asf/xmega/drivers/usart/usart.h ****  *    and/or other materials provided with the distribution.
  24:./src/asf/xmega/drivers/usart/usart.h ****  *
  25:./src/asf/xmega/drivers/usart/usart.h ****  * 3. The name of Atmel may not be used to endorse or promote products derived
  26:./src/asf/xmega/drivers/usart/usart.h ****  *    from this software without specific prior written permission.
  27:./src/asf/xmega/drivers/usart/usart.h ****  *
  28:./src/asf/xmega/drivers/usart/usart.h ****  * 4. This software may only be redistributed and used in connection with an
  29:./src/asf/xmega/drivers/usart/usart.h ****  *    Atmel microcontroller product.
  30:./src/asf/xmega/drivers/usart/usart.h ****  *
  31:./src/asf/xmega/drivers/usart/usart.h ****  * THIS SOFTWARE IS PROVIDED BY ATMEL "AS IS" AND ANY EXPRESS OR IMPLIED
GAS LISTING /tmp/ccwf6aFs.s 			page 27


  32:./src/asf/xmega/drivers/usart/usart.h ****  * WARRANTIES, INCLUDING, BUT NOT LIMITED TO, THE IMPLIED WARRANTIES OF
  33:./src/asf/xmega/drivers/usart/usart.h ****  * MERCHANTABILITY, FITNESS FOR A PARTICULAR PURPOSE AND NON-INFRINGEMENT ARE
  34:./src/asf/xmega/drivers/usart/usart.h ****  * EXPRESSLY AND SPECIFICALLY DISCLAIMED. IN NO EVENT SHALL ATMEL BE LIABLE FOR
  35:./src/asf/xmega/drivers/usart/usart.h ****  * ANY DIRECT, INDIRECT, INCIDENTAL, SPECIAL, EXEMPLARY, OR CONSEQUENTIAL
  36:./src/asf/xmega/drivers/usart/usart.h ****  * DAMAGES (INCLUDING, BUT NOT LIMITED TO, PROCUREMENT OF SUBSTITUTE GOODS
  37:./src/asf/xmega/drivers/usart/usart.h ****  * OR SERVICES; LOSS OF USE, DATA, OR PROFITS; OR BUSINESS INTERRUPTION)
  38:./src/asf/xmega/drivers/usart/usart.h ****  * HOWEVER CAUSED AND ON ANY THEORY OF LIABILITY, WHETHER IN CONTRACT,
  39:./src/asf/xmega/drivers/usart/usart.h ****  * STRICT LIABILITY, OR TORT (INCLUDING NEGLIGENCE OR OTHERWISE) ARISING IN
  40:./src/asf/xmega/drivers/usart/usart.h ****  * ANY WAY OUT OF THE USE OF THIS SOFTWARE, EVEN IF ADVISED OF THE
  41:./src/asf/xmega/drivers/usart/usart.h ****  * POSSIBILITY OF SUCH DAMAGE.
  42:./src/asf/xmega/drivers/usart/usart.h ****  *
  43:./src/asf/xmega/drivers/usart/usart.h ****  * \asf_license_stop
  44:./src/asf/xmega/drivers/usart/usart.h ****  *
  45:./src/asf/xmega/drivers/usart/usart.h ****  */
  46:./src/asf/xmega/drivers/usart/usart.h **** #ifndef _USART_H_
  47:./src/asf/xmega/drivers/usart/usart.h **** #define _USART_H_
  48:./src/asf/xmega/drivers/usart/usart.h **** 
  49:./src/asf/xmega/drivers/usart/usart.h **** #ifdef __cplusplus
  50:./src/asf/xmega/drivers/usart/usart.h **** extern "C" {
  51:./src/asf/xmega/drivers/usart/usart.h **** #endif
  52:./src/asf/xmega/drivers/usart/usart.h **** 
  53:./src/asf/xmega/drivers/usart/usart.h **** #include "compiler.h"
  54:./src/asf/xmega/drivers/usart/usart.h **** #include "pmic.h"
  55:./src/asf/xmega/drivers/usart/usart.h **** 
  56:./src/asf/xmega/drivers/usart/usart.h **** /**
  57:./src/asf/xmega/drivers/usart/usart.h ****  * \defgroup usart_group USART module (USART)
  58:./src/asf/xmega/drivers/usart/usart.h ****  *
  59:./src/asf/xmega/drivers/usart/usart.h ****  * See \ref xmega_usart_quickstart.
  60:./src/asf/xmega/drivers/usart/usart.h ****  *
  61:./src/asf/xmega/drivers/usart/usart.h ****  * This is a driver for configuring, enabling, disabling and use of the on-chip
  62:./src/asf/xmega/drivers/usart/usart.h ****  * USART.
  63:./src/asf/xmega/drivers/usart/usart.h ****  *
  64:./src/asf/xmega/drivers/usart/usart.h ****  * \section dependencies Dependencies
  65:./src/asf/xmega/drivers/usart/usart.h ****  *
  66:./src/asf/xmega/drivers/usart/usart.h ****  * The USART module depends on the following modules:
  67:./src/asf/xmega/drivers/usart/usart.h ****  *  - \ref sysclk_group for peripheral clock control.
  68:./src/asf/xmega/drivers/usart/usart.h ****  *  - \ref port_driver_group for peripheral io port control.
  69:./src/asf/xmega/drivers/usart/usart.h ****  *
  70:./src/asf/xmega/drivers/usart/usart.h ****  * @{
  71:./src/asf/xmega/drivers/usart/usart.h ****  */
  72:./src/asf/xmega/drivers/usart/usart.h **** 
  73:./src/asf/xmega/drivers/usart/usart.h **** //! Offset in lookup table for baudrate 1200
  74:./src/asf/xmega/drivers/usart/usart.h **** #define USART_BAUD_1200      0x00
  75:./src/asf/xmega/drivers/usart/usart.h **** //! Offset in lookup table for baudrate 2400
  76:./src/asf/xmega/drivers/usart/usart.h **** #define USART_BAUD_2400      0x01
  77:./src/asf/xmega/drivers/usart/usart.h **** //! Offset in lookup table for baudrate 4800
  78:./src/asf/xmega/drivers/usart/usart.h **** #define USART_BAUD_4800      0x02
  79:./src/asf/xmega/drivers/usart/usart.h **** //! Offset in lookup table for baudrate 9600
  80:./src/asf/xmega/drivers/usart/usart.h **** #define USART_BAUD_9600      0x03
  81:./src/asf/xmega/drivers/usart/usart.h **** //! Offset in lookup table for baudrate 19200
  82:./src/asf/xmega/drivers/usart/usart.h **** #define USART_BAUD_19200     0x04
  83:./src/asf/xmega/drivers/usart/usart.h **** //! Offset in lookup table for baudrate 38400
  84:./src/asf/xmega/drivers/usart/usart.h **** #define USART_BAUD_38400     0x05
  85:./src/asf/xmega/drivers/usart/usart.h **** //! Offset in lookup table for baudrate 57600
  86:./src/asf/xmega/drivers/usart/usart.h **** #define USART_BAUD_57600     0x06
  87:./src/asf/xmega/drivers/usart/usart.h **** //! Baudrate not in lookup table
  88:./src/asf/xmega/drivers/usart/usart.h **** #define USART_BAUD_UNDEFINED 0xFF
GAS LISTING /tmp/ccwf6aFs.s 			page 28


  89:./src/asf/xmega/drivers/usart/usart.h **** 
  90:./src/asf/xmega/drivers/usart/usart.h **** //! Lookup table containing baudctrl values for CPU frequency 2 Mhz
  91:./src/asf/xmega/drivers/usart/usart.h **** static PROGMEM_DECLARE(uint16_t, baudctrl_2mhz[]) = {
  92:./src/asf/xmega/drivers/usart/usart.h **** 	0xE5BC, // Baud: 1200
  93:./src/asf/xmega/drivers/usart/usart.h **** 	0xC5AC, // Baud: 2400
  94:./src/asf/xmega/drivers/usart/usart.h **** 	0x859C, // Baud: 4800
  95:./src/asf/xmega/drivers/usart/usart.h **** 	0x0396, // Baud: 9600
  96:./src/asf/xmega/drivers/usart/usart.h **** 	0xC192, // Baud: 19200
  97:./src/asf/xmega/drivers/usart/usart.h **** 	0x2191, // Baud: 38400
  98:./src/asf/xmega/drivers/usart/usart.h **** 	0x9690, // Baud: 57600
  99:./src/asf/xmega/drivers/usart/usart.h **** };
 100:./src/asf/xmega/drivers/usart/usart.h **** 
 101:./src/asf/xmega/drivers/usart/usart.h **** //! Lookup table containing baudctrl values for CPU frequency 32 Mhz
 102:./src/asf/xmega/drivers/usart/usart.h **** static PROGMEM_DECLARE(uint16_t, baudctrl_32mhz[]) = {
 103:./src/asf/xmega/drivers/usart/usart.h **** 	0x031D, // Baud: 1200
 104:./src/asf/xmega/drivers/usart/usart.h **** 	0x01ED, // Baud: 2400
 105:./src/asf/xmega/drivers/usart/usart.h **** 	0xFDDC, // Baud: 4800
 106:./src/asf/xmega/drivers/usart/usart.h **** 	0xF5CC, // Baud: 9600
 107:./src/asf/xmega/drivers/usart/usart.h **** 	0xE5BC, // Baud: 19200
 108:./src/asf/xmega/drivers/usart/usart.h **** 	0xC5AC, // Baud: 38400
 109:./src/asf/xmega/drivers/usart/usart.h **** 	0x6EA8, // Baud: 57600
 110:./src/asf/xmega/drivers/usart/usart.h **** };
 111:./src/asf/xmega/drivers/usart/usart.h **** //! @}
 112:./src/asf/xmega/drivers/usart/usart.h **** 
 113:./src/asf/xmega/drivers/usart/usart.h **** //! Input parameters when initializing RS232 and similar modes.
 114:./src/asf/xmega/drivers/usart/usart.h **** typedef struct usart_rs232_options {
 115:./src/asf/xmega/drivers/usart/usart.h **** 	//! Set baud rate of the USART (unused in slave modes).
 116:./src/asf/xmega/drivers/usart/usart.h **** 	uint32_t baudrate;
 117:./src/asf/xmega/drivers/usart/usart.h **** 
 118:./src/asf/xmega/drivers/usart/usart.h **** 	//! Number of bits to transmit as a character (5 to 9).
 119:./src/asf/xmega/drivers/usart/usart.h **** 	USART_CHSIZE_t charlength;
 120:./src/asf/xmega/drivers/usart/usart.h **** 
 121:./src/asf/xmega/drivers/usart/usart.h **** 	//! Parity type: USART_PMODE_DISABLED_gc, USART_PMODE_EVEN_gc,
 122:./src/asf/xmega/drivers/usart/usart.h **** 	//! USART_PMODE_ODD_gc.
 123:./src/asf/xmega/drivers/usart/usart.h **** 	USART_PMODE_t paritytype;
 124:./src/asf/xmega/drivers/usart/usart.h **** 
 125:./src/asf/xmega/drivers/usart/usart.h **** 	//! Number of stop bits between two characters:
 126:./src/asf/xmega/drivers/usart/usart.h **** 	//! true: 2 stop bits
 127:./src/asf/xmega/drivers/usart/usart.h **** 	//! false: 1 stop bit
 128:./src/asf/xmega/drivers/usart/usart.h **** 	bool stopbits;
 129:./src/asf/xmega/drivers/usart/usart.h **** 
 130:./src/asf/xmega/drivers/usart/usart.h **** } usart_rs232_options_t;
 131:./src/asf/xmega/drivers/usart/usart.h **** 
 132:./src/asf/xmega/drivers/usart/usart.h **** //! Input parameters when initializing SPI master mode.
 133:./src/asf/xmega/drivers/usart/usart.h **** typedef struct usart_spi_options {
 134:./src/asf/xmega/drivers/usart/usart.h **** 	//! Set baud rate of the USART in SPI mode.
 135:./src/asf/xmega/drivers/usart/usart.h **** 	uint32_t baudrate;
 136:./src/asf/xmega/drivers/usart/usart.h **** 
 137:./src/asf/xmega/drivers/usart/usart.h **** 	//! SPI transmission mode.
 138:./src/asf/xmega/drivers/usart/usart.h **** 	uint8_t spimode;
 139:./src/asf/xmega/drivers/usart/usart.h **** 
 140:./src/asf/xmega/drivers/usart/usart.h **** 	uint8_t data_order;
 141:./src/asf/xmega/drivers/usart/usart.h **** } usart_spi_options_t;
 142:./src/asf/xmega/drivers/usart/usart.h **** 
 143:./src/asf/xmega/drivers/usart/usart.h **** //! USART interrupt levels
 144:./src/asf/xmega/drivers/usart/usart.h **** enum usart_int_level_t {
 145:./src/asf/xmega/drivers/usart/usart.h **** 	USART_INT_LVL_OFF = 0x00,
GAS LISTING /tmp/ccwf6aFs.s 			page 29


 146:./src/asf/xmega/drivers/usart/usart.h **** 	USART_INT_LVL_LO = 0x01,
 147:./src/asf/xmega/drivers/usart/usart.h **** 	USART_INT_LVL_MED = 0x02,
 148:./src/asf/xmega/drivers/usart/usart.h **** 	USART_INT_LVL_HI = 0x03,
 149:./src/asf/xmega/drivers/usart/usart.h **** };
 150:./src/asf/xmega/drivers/usart/usart.h **** 
 151:./src/asf/xmega/drivers/usart/usart.h **** /**
 152:./src/asf/xmega/drivers/usart/usart.h ****  * \brief Enable USART receiver.
 153:./src/asf/xmega/drivers/usart/usart.h ****  *
 154:./src/asf/xmega/drivers/usart/usart.h ****  * \param usart Pointer to the USART module
 155:./src/asf/xmega/drivers/usart/usart.h ****  */
 156:./src/asf/xmega/drivers/usart/usart.h **** static inline void usart_rx_enable(USART_t *usart)
 157:./src/asf/xmega/drivers/usart/usart.h **** {
 158:./src/asf/xmega/drivers/usart/usart.h **** 	(usart)->CTRLB |= USART_RXEN_bm;
 159:./src/asf/xmega/drivers/usart/usart.h **** }
 160:./src/asf/xmega/drivers/usart/usart.h **** 
 161:./src/asf/xmega/drivers/usart/usart.h **** /**
 162:./src/asf/xmega/drivers/usart/usart.h ****  * \brief Disable USART receiver.
 163:./src/asf/xmega/drivers/usart/usart.h ****  *
 164:./src/asf/xmega/drivers/usart/usart.h ****  * \param usart Pointer to the USART module.
 165:./src/asf/xmega/drivers/usart/usart.h ****  */
 166:./src/asf/xmega/drivers/usart/usart.h **** static inline void usart_rx_disable(USART_t *usart)
 167:./src/asf/xmega/drivers/usart/usart.h **** {
 168:./src/asf/xmega/drivers/usart/usart.h **** 	(usart)->CTRLB &= ~USART_RXEN_bm;
 169:./src/asf/xmega/drivers/usart/usart.h **** }
 170:./src/asf/xmega/drivers/usart/usart.h **** 
 171:./src/asf/xmega/drivers/usart/usart.h **** /**
 172:./src/asf/xmega/drivers/usart/usart.h ****  * \brief  Configure the USART frame format.
 173:./src/asf/xmega/drivers/usart/usart.h ****  *
 174:./src/asf/xmega/drivers/usart/usart.h ****  *  Sets the frame format, Frame Size, parity mode and number of stop bits.
 175:./src/asf/xmega/drivers/usart/usart.h ****  *
 176:./src/asf/xmega/drivers/usart/usart.h ****  *  \param usart Pointer to the USART module
 177:./src/asf/xmega/drivers/usart/usart.h ****  *  \param charSize The character size. Use USART_CHSIZE_t type.
 178:./src/asf/xmega/drivers/usart/usart.h ****  *  \param parityMode The parity Mode. Use USART_PMODE_t type.
 179:./src/asf/xmega/drivers/usart/usart.h ****  *  \param twoStopBits Enable two stop bit mode. Use bool type.
 180:./src/asf/xmega/drivers/usart/usart.h ****  */
 181:./src/asf/xmega/drivers/usart/usart.h **** static inline void usart_format_set(USART_t *usart, USART_CHSIZE_t charSize,
 182:./src/asf/xmega/drivers/usart/usart.h **** 		USART_PMODE_t parityMode, bool twoStopBits)
 183:./src/asf/xmega/drivers/usart/usart.h **** {
 184:./src/asf/xmega/drivers/usart/usart.h **** 	(usart)->CTRLC = (uint8_t)charSize | parityMode
 185:./src/asf/xmega/drivers/usart/usart.h **** 		| (twoStopBits ? USART_SBMODE_bm : 0);
 186:./src/asf/xmega/drivers/usart/usart.h **** }
 187:./src/asf/xmega/drivers/usart/usart.h **** 
 188:./src/asf/xmega/drivers/usart/usart.h **** /**
 189:./src/asf/xmega/drivers/usart/usart.h ****  * \brief Enable USART transmitter.
 190:./src/asf/xmega/drivers/usart/usart.h ****  *
 191:./src/asf/xmega/drivers/usart/usart.h ****  * \param usart Pointer to the USART module.
 192:./src/asf/xmega/drivers/usart/usart.h ****  */
 193:./src/asf/xmega/drivers/usart/usart.h **** static inline void usart_tx_enable(USART_t *usart)
 194:./src/asf/xmega/drivers/usart/usart.h **** {
 195:./src/asf/xmega/drivers/usart/usart.h **** 	(usart)->CTRLB |= USART_TXEN_bm;
 196:./src/asf/xmega/drivers/usart/usart.h **** }
 197:./src/asf/xmega/drivers/usart/usart.h **** 
 198:./src/asf/xmega/drivers/usart/usart.h **** /**
 199:./src/asf/xmega/drivers/usart/usart.h ****  * \brief Disable USART transmitter.
 200:./src/asf/xmega/drivers/usart/usart.h ****  *
 201:./src/asf/xmega/drivers/usart/usart.h ****  * \param usart Pointer to the USART module.
 202:./src/asf/xmega/drivers/usart/usart.h ****  */
GAS LISTING /tmp/ccwf6aFs.s 			page 30


 203:./src/asf/xmega/drivers/usart/usart.h **** static inline void usart_tx_disable(USART_t *usart)
 204:./src/asf/xmega/drivers/usart/usart.h **** {
 205:./src/asf/xmega/drivers/usart/usart.h **** 	(usart)->CTRLB &= ~USART_TXEN_bm;
 206:./src/asf/xmega/drivers/usart/usart.h **** }
 207:./src/asf/xmega/drivers/usart/usart.h **** 
 208:./src/asf/xmega/drivers/usart/usart.h **** /**
 209:./src/asf/xmega/drivers/usart/usart.h ****  * \brief Set USART RXD interrupt level.
 210:./src/asf/xmega/drivers/usart/usart.h ****  *
 211:./src/asf/xmega/drivers/usart/usart.h ****  * Sets the interrupt level on RX Complete interrupt.
 212:./src/asf/xmega/drivers/usart/usart.h ****  *
 213:./src/asf/xmega/drivers/usart/usart.h ****  * \param usart Pointer to the USART module.
 214:./src/asf/xmega/drivers/usart/usart.h ****  * \param level Interrupt level of the RXD interrupt.
 215:./src/asf/xmega/drivers/usart/usart.h ****  */
 216:./src/asf/xmega/drivers/usart/usart.h **** static inline void usart_set_rx_interrupt_level(USART_t *usart,
 217:./src/asf/xmega/drivers/usart/usart.h **** 		enum usart_int_level_t level)
 218:./src/asf/xmega/drivers/usart/usart.h **** {
 219:./src/asf/xmega/drivers/usart/usart.h **** 	(usart)->CTRLA = ((usart)->CTRLA & ~USART_RXCINTLVL_gm) |
 629               		.loc 7 219 0
 630 02a4 E0EA      		ldi r30,lo8(2208)
 631 02a6 F8E0      		ldi r31,hi8(2208)
 632 02a8 8381      		ldd r24,Z+3
 633 02aa 8F7C      		andi r24,lo8(-49)
 634 02ac 8062      		ori r24,lo8(32)
 635 02ae 8383      		std Z+3,r24
 636               	.LBE169:
 637               	.LBE168:
 111:src/main.c    **** 
 112:src/main.c    **** 	usart_set_rx_interrupt_level(&USARTC0, USART_INT_LVL_MED);
 113:src/main.c    **** 
 114:src/main.c    **** 	board_init();
 638               		.loc 1 114 0
 639 02b0 0E94 0000 		call board_init
 115:src/main.c    **** 	
 116:src/main.c    **** 	//printf("OpenLights Strand Controller\r\n");
 117:src/main.c    **** 	//printf("Firmware revision %d.%d", FW_REV_MAJOR, FW_REV_MINOR);
 118:src/main.c    **** 	
 119:src/main.c    **** 	spi_init_pins();
 640               		.loc 1 119 0
 641 02b4 0E94 0000 		call spi_init_pins
 120:src/main.c    **** 	spi_init_module();
 642               		.loc 1 120 0
 643 02b8 0E94 0000 		call spi_init_module
 121:src/main.c    **** 	
 122:src/main.c    **** 	// Init board address
 123:src/main.c    **** 	g_address = 0x00;
 644               		.loc 1 123 0
 645 02bc 1092 0000 		sts g_address,__zero_reg__
 646               	.LVL13:
 647               	.LBB170:
 648               	.LBB171:
 649               	.LBB172:
 262:./src/asf/common/services/ioport/xmega/ioport.h **** 	}
 263:./src/asf/common/services/ioport/xmega/ioport.h **** }
 264:./src/asf/common/services/ioport/xmega/ioport.h **** 
 265:./src/asf/common/services/ioport/xmega/ioport.h **** __always_inline static void arch_ioport_set_port_level(ioport_port_t port,
 266:./src/asf/common/services/ioport/xmega/ioport.h **** 		ioport_port_mask_t mask, ioport_port_mask_t level)
 267:./src/asf/common/services/ioport/xmega/ioport.h **** {
GAS LISTING /tmp/ccwf6aFs.s 			page 31


 268:./src/asf/common/services/ioport/xmega/ioport.h **** 	PORT_t *base = arch_ioport_port_to_base(port);
 269:./src/asf/common/services/ioport/xmega/ioport.h **** 
 270:./src/asf/common/services/ioport/xmega/ioport.h **** 	base->OUTSET = mask & level;
 271:./src/asf/common/services/ioport/xmega/ioport.h **** 	base->OUTCLR = mask & ~level;
 272:./src/asf/common/services/ioport/xmega/ioport.h **** }
 273:./src/asf/common/services/ioport/xmega/ioport.h **** 
 274:./src/asf/common/services/ioport/xmega/ioport.h **** __always_inline static bool arch_ioport_get_pin_level(ioport_pin_t pin)
 275:./src/asf/common/services/ioport/xmega/ioport.h **** {
 276:./src/asf/common/services/ioport/xmega/ioport.h **** 	PORT_t *base = arch_ioport_pin_to_base(pin);
 277:./src/asf/common/services/ioport/xmega/ioport.h **** 
 278:./src/asf/common/services/ioport/xmega/ioport.h **** 	return base->IN & arch_ioport_pin_to_mask(pin);
 650               		.loc 3 278 0
 651 02c0 E0E2      		ldi r30,lo8(1568)
 652 02c2 F6E0      		ldi r31,hi8(1568)
 653 02c4 8085      		ldd r24,Z+8
 654               	.LVL14:
 655               	.LBE172:
 656               	.LBE171:
 657               	.LBE170:
 124:src/main.c    **** 	
 125:src/main.c    **** 	if (!ioport_get_pin_level(SW0)) {
 658               		.loc 1 125 0
 659 02c6 80FD      		sbrc r24,0
 660 02c8 00C0      		rjmp .L25
 126:src/main.c    **** 		g_address |= (1<<0);
 661               		.loc 1 126 0
 662 02ca 81E0      		ldi r24,lo8(1)
 663 02cc 8093 0000 		sts g_address,r24
 664               	.L25:
 665               	.LVL15:
 666               	.LBB173:
 667               	.LBB174:
 668               	.LBB175:
 669               		.loc 3 278 0
 670 02d0 E0E2      		ldi r30,lo8(1568)
 671 02d2 F6E0      		ldi r31,hi8(1568)
 672 02d4 8085      		ldd r24,Z+8
 673               	.LVL16:
 674               	.LBE175:
 675               	.LBE174:
 676               	.LBE173:
 127:src/main.c    **** 	}
 128:src/main.c    **** 	
 129:src/main.c    **** 	if (!ioport_get_pin_level(SW1)) {
 677               		.loc 1 129 0
 678 02d6 81FD      		sbrc r24,1
 679 02d8 00C0      		rjmp .L26
 130:src/main.c    **** 		g_address |= (1<<1);
 680               		.loc 1 130 0
 681 02da 8091 0000 		lds r24,g_address
 682 02de 8260      		ori r24,lo8(2)
 683 02e0 8093 0000 		sts g_address,r24
 684               	.L26:
 685               	.LVL17:
 686               	.LBB176:
 687               	.LBB177:
 688               	.LBB178:
GAS LISTING /tmp/ccwf6aFs.s 			page 32


 689               		.loc 3 278 0
 690 02e4 E0E2      		ldi r30,lo8(1568)
 691 02e6 F6E0      		ldi r31,hi8(1568)
 692 02e8 8085      		ldd r24,Z+8
 693               	.LVL18:
 694               	.LBE178:
 695               	.LBE177:
 696               	.LBE176:
 131:src/main.c    **** 	}
 132:src/main.c    **** 	
 133:src/main.c    **** 	if (!ioport_get_pin_level(SW2)) {
 697               		.loc 1 133 0
 698 02ea 82FD      		sbrc r24,2
 699 02ec 00C0      		rjmp .L27
 134:src/main.c    **** 		g_address |= (1<<2);
 700               		.loc 1 134 0
 701 02ee 8091 0000 		lds r24,g_address
 702 02f2 8460      		ori r24,lo8(4)
 703 02f4 8093 0000 		sts g_address,r24
 704               	.L27:
 705               	.LVL19:
 706               	.LBB179:
 707               	.LBB180:
 708               	.LBB181:
 709               		.loc 3 278 0
 710 02f8 E0E2      		ldi r30,lo8(1568)
 711 02fa F6E0      		ldi r31,hi8(1568)
 712 02fc 8085      		ldd r24,Z+8
 713               	.LVL20:
 714               	.LBE181:
 715               	.LBE180:
 716               	.LBE179:
 135:src/main.c    **** 	}
 136:src/main.c    **** 	
 137:src/main.c    **** 	if (!ioport_get_pin_level(SW3)) {
 717               		.loc 1 137 0
 718 02fe 83FD      		sbrc r24,3
 719 0300 00C0      		rjmp .L28
 138:src/main.c    **** 		g_address |= (1<<3);
 720               		.loc 1 138 0
 721 0302 8091 0000 		lds r24,g_address
 722 0306 8860      		ori r24,lo8(8)
 723 0308 8093 0000 		sts g_address,r24
 724               	.L28:
 139:src/main.c    **** 	}
 140:src/main.c    **** 	
 141:src/main.c    **** 	// Init USB communications
 142:src/main.c    **** 	g_cmdState = STATE_IDLE;
 725               		.loc 1 142 0
 726 030c 1092 0000 		sts g_cmdState,__zero_reg__
 143:src/main.c    **** 	g_usbDataLength = 0;
 727               		.loc 1 143 0
 728 0310 1092 0000 		sts g_usbDataLength,__zero_reg__
 729 0314 1092 0000 		sts g_usbDataLength+1,__zero_reg__
 144:src/main.c    **** 	g_usbDataCount = 0;
 730               		.loc 1 144 0
 731 0318 1092 0000 		sts g_usbDataCount,__zero_reg__
GAS LISTING /tmp/ccwf6aFs.s 			page 33


 732 031c 1092 0000 		sts g_usbDataCount+1,__zero_reg__
 145:src/main.c    **** 	//num_bytes = 3 * num_leds;
 146:src/main.c    **** 	
 147:src/main.c    **** 	udc_start();
 733               		.loc 1 147 0
 734 0320 0E94 0000 		call udc_start
 735               	.LBB182:
 736               	.LBB183:
 737               		.file 8 "./src/asf/common/services/usb/udc/udc.h"
   1:./src/asf/common/services/usb/udc/udc.h **** /**
   2:./src/asf/common/services/usb/udc/udc.h ****  * \file
   3:./src/asf/common/services/usb/udc/udc.h ****  *
   4:./src/asf/common/services/usb/udc/udc.h ****  * \brief Interface of the USB Device Controller (UDC)
   5:./src/asf/common/services/usb/udc/udc.h ****  *
   6:./src/asf/common/services/usb/udc/udc.h ****  * Copyright (c) 2009 - 2012 Atmel Corporation. All rights reserved.
   7:./src/asf/common/services/usb/udc/udc.h ****  *
   8:./src/asf/common/services/usb/udc/udc.h ****  * \asf_license_start
   9:./src/asf/common/services/usb/udc/udc.h ****  *
  10:./src/asf/common/services/usb/udc/udc.h ****  * \page License
  11:./src/asf/common/services/usb/udc/udc.h ****  *
  12:./src/asf/common/services/usb/udc/udc.h ****  * Redistribution and use in source and binary forms, with or without
  13:./src/asf/common/services/usb/udc/udc.h ****  * modification, are permitted provided that the following conditions are met:
  14:./src/asf/common/services/usb/udc/udc.h ****  *
  15:./src/asf/common/services/usb/udc/udc.h ****  * 1. Redistributions of source code must retain the above copyright notice,
  16:./src/asf/common/services/usb/udc/udc.h ****  *    this list of conditions and the following disclaimer.
  17:./src/asf/common/services/usb/udc/udc.h ****  *
  18:./src/asf/common/services/usb/udc/udc.h ****  * 2. Redistributions in binary form must reproduce the above copyright notice,
  19:./src/asf/common/services/usb/udc/udc.h ****  *    this list of conditions and the following disclaimer in the documentation
  20:./src/asf/common/services/usb/udc/udc.h ****  *    and/or other materials provided with the distribution.
  21:./src/asf/common/services/usb/udc/udc.h ****  *
  22:./src/asf/common/services/usb/udc/udc.h ****  * 3. The name of Atmel may not be used to endorse or promote products derived
  23:./src/asf/common/services/usb/udc/udc.h ****  *    from this software without specific prior written permission.
  24:./src/asf/common/services/usb/udc/udc.h ****  *
  25:./src/asf/common/services/usb/udc/udc.h ****  * 4. This software may only be redistributed and used in connection with an
  26:./src/asf/common/services/usb/udc/udc.h ****  *    Atmel microcontroller product.
  27:./src/asf/common/services/usb/udc/udc.h ****  *
  28:./src/asf/common/services/usb/udc/udc.h ****  * THIS SOFTWARE IS PROVIDED BY ATMEL "AS IS" AND ANY EXPRESS OR IMPLIED
  29:./src/asf/common/services/usb/udc/udc.h ****  * WARRANTIES, INCLUDING, BUT NOT LIMITED TO, THE IMPLIED WARRANTIES OF
  30:./src/asf/common/services/usb/udc/udc.h ****  * MERCHANTABILITY, FITNESS FOR A PARTICULAR PURPOSE AND NON-INFRINGEMENT ARE
  31:./src/asf/common/services/usb/udc/udc.h ****  * EXPRESSLY AND SPECIFICALLY DISCLAIMED. IN NO EVENT SHALL ATMEL BE LIABLE FOR
  32:./src/asf/common/services/usb/udc/udc.h ****  * ANY DIRECT, INDIRECT, INCIDENTAL, SPECIAL, EXEMPLARY, OR CONSEQUENTIAL
  33:./src/asf/common/services/usb/udc/udc.h ****  * DAMAGES (INCLUDING, BUT NOT LIMITED TO, PROCUREMENT OF SUBSTITUTE GOODS
  34:./src/asf/common/services/usb/udc/udc.h ****  * OR SERVICES; LOSS OF USE, DATA, OR PROFITS; OR BUSINESS INTERRUPTION)
  35:./src/asf/common/services/usb/udc/udc.h ****  * HOWEVER CAUSED AND ON ANY THEORY OF LIABILITY, WHETHER IN CONTRACT,
  36:./src/asf/common/services/usb/udc/udc.h ****  * STRICT LIABILITY, OR TORT (INCLUDING NEGLIGENCE OR OTHERWISE) ARISING IN
  37:./src/asf/common/services/usb/udc/udc.h ****  * ANY WAY OUT OF THE USE OF THIS SOFTWARE, EVEN IF ADVISED OF THE
  38:./src/asf/common/services/usb/udc/udc.h ****  * POSSIBILITY OF SUCH DAMAGE.
  39:./src/asf/common/services/usb/udc/udc.h ****  *
  40:./src/asf/common/services/usb/udc/udc.h ****  * \asf_license_stop
  41:./src/asf/common/services/usb/udc/udc.h ****  *
  42:./src/asf/common/services/usb/udc/udc.h ****  */
  43:./src/asf/common/services/usb/udc/udc.h **** 
  44:./src/asf/common/services/usb/udc/udc.h **** #ifndef _UDC_H_
  45:./src/asf/common/services/usb/udc/udc.h **** #define _UDC_H_
  46:./src/asf/common/services/usb/udc/udc.h **** 
  47:./src/asf/common/services/usb/udc/udc.h **** #include "conf_usb.h"
  48:./src/asf/common/services/usb/udc/udc.h **** #include "usb_protocol.h"
GAS LISTING /tmp/ccwf6aFs.s 			page 34


  49:./src/asf/common/services/usb/udc/udc.h **** #include "udc_desc.h"
  50:./src/asf/common/services/usb/udc/udc.h **** #include "udd.h"
  51:./src/asf/common/services/usb/udc/udc.h **** 
  52:./src/asf/common/services/usb/udc/udc.h **** #ifdef __cplusplus
  53:./src/asf/common/services/usb/udc/udc.h **** extern "C" {
  54:./src/asf/common/services/usb/udc/udc.h **** #endif
  55:./src/asf/common/services/usb/udc/udc.h **** 
  56:./src/asf/common/services/usb/udc/udc.h **** /**
  57:./src/asf/common/services/usb/udc/udc.h ****  * \ingroup usb_device_group
  58:./src/asf/common/services/usb/udc/udc.h ****  * \defgroup udc_group USB Device Controller (UDC)
  59:./src/asf/common/services/usb/udc/udc.h ****  *
  60:./src/asf/common/services/usb/udc/udc.h ****  * The UDC provides a high-level abstraction of the usb device.
  61:./src/asf/common/services/usb/udc/udc.h ****  * You can use these functions to control the main device state
  62:./src/asf/common/services/usb/udc/udc.h ****  * (start/attach/wakeup).
  63:./src/asf/common/services/usb/udc/udc.h ****  *
  64:./src/asf/common/services/usb/udc/udc.h ****  * \section USB_DEVICE_CONF USB Device Custom configuration
  65:./src/asf/common/services/usb/udc/udc.h ****  * The following USB Device configuration must be included in the conf_usb.h
  66:./src/asf/common/services/usb/udc/udc.h ****  * file of the application.
  67:./src/asf/common/services/usb/udc/udc.h ****  *
  68:./src/asf/common/services/usb/udc/udc.h ****  * USB_DEVICE_VENDOR_ID (Word)<br>
  69:./src/asf/common/services/usb/udc/udc.h ****  * Vendor ID provided by USB org (ATMEL 0x03EB).
  70:./src/asf/common/services/usb/udc/udc.h ****  *
  71:./src/asf/common/services/usb/udc/udc.h ****  * USB_DEVICE_PRODUCT_ID (Word)<br>
  72:./src/asf/common/services/usb/udc/udc.h ****  * Product ID (Referenced in usb_atmel.h).
  73:./src/asf/common/services/usb/udc/udc.h ****  *
  74:./src/asf/common/services/usb/udc/udc.h ****  * USB_DEVICE_MAJOR_VERSION (Byte)<br>
  75:./src/asf/common/services/usb/udc/udc.h ****  * Major version of the device
  76:./src/asf/common/services/usb/udc/udc.h ****  *
  77:./src/asf/common/services/usb/udc/udc.h ****  * USB_DEVICE_MINOR_VERSION (Byte)<br>
  78:./src/asf/common/services/usb/udc/udc.h ****  * Minor version of the device
  79:./src/asf/common/services/usb/udc/udc.h ****  *
  80:./src/asf/common/services/usb/udc/udc.h ****  * USB_DEVICE_MANUFACTURE_NAME (string)<br>
  81:./src/asf/common/services/usb/udc/udc.h ****  * ASCII name for the manufacture
  82:./src/asf/common/services/usb/udc/udc.h ****  *
  83:./src/asf/common/services/usb/udc/udc.h ****  * USB_DEVICE_PRODUCT_NAME (string)<br>
  84:./src/asf/common/services/usb/udc/udc.h ****  * ASCII name for the product
  85:./src/asf/common/services/usb/udc/udc.h ****  *
  86:./src/asf/common/services/usb/udc/udc.h ****  * USB_DEVICE_SERIAL_NAME (string)<br>
  87:./src/asf/common/services/usb/udc/udc.h ****  * ASCII name to enable and set a serial number
  88:./src/asf/common/services/usb/udc/udc.h ****  *
  89:./src/asf/common/services/usb/udc/udc.h ****  * USB_DEVICE_POWER (Numeric)<br>
  90:./src/asf/common/services/usb/udc/udc.h ****  * (unit mA) Maximum device power
  91:./src/asf/common/services/usb/udc/udc.h ****  *
  92:./src/asf/common/services/usb/udc/udc.h ****  * USB_DEVICE_ATTR (Byte)<br>
  93:./src/asf/common/services/usb/udc/udc.h ****  * USB attributes available:
  94:./src/asf/common/services/usb/udc/udc.h ****  *  - USB_CONFIG_ATTR_SELF_POWERED
  95:./src/asf/common/services/usb/udc/udc.h ****  *  - USB_CONFIG_ATTR_REMOTE_WAKEUP
  96:./src/asf/common/services/usb/udc/udc.h ****  *  Note: if remote wake enabled then defines remotewakeup callbacks,
  97:./src/asf/common/services/usb/udc/udc.h ****  * see Table 5-2. External API from UDC - Callback
  98:./src/asf/common/services/usb/udc/udc.h ****  *
  99:./src/asf/common/services/usb/udc/udc.h ****  * USB_DEVICE_LOW_SPEED (Only defined)<br>
 100:./src/asf/common/services/usb/udc/udc.h ****  * Force the USB Device to run in low speed
 101:./src/asf/common/services/usb/udc/udc.h ****  *
 102:./src/asf/common/services/usb/udc/udc.h ****  * USB_DEVICE_HS_SUPPORT (Only defined)<br>
 103:./src/asf/common/services/usb/udc/udc.h ****  * Authorize the USB Device to run in high speed
 104:./src/asf/common/services/usb/udc/udc.h ****  *
 105:./src/asf/common/services/usb/udc/udc.h ****  * USB_DEVICE_MAX_EP (Byte)<br>
GAS LISTING /tmp/ccwf6aFs.s 			page 35


 106:./src/asf/common/services/usb/udc/udc.h ****  * Define the maximum endpoint number used by the USB Device.<br>
 107:./src/asf/common/services/usb/udc/udc.h ****  * This one is already defined in UDI default configuration.
 108:./src/asf/common/services/usb/udc/udc.h ****  * Ex:
 109:./src/asf/common/services/usb/udc/udc.h ****  * - When endpoint control 0x00, endpoint 0x01 and
 110:./src/asf/common/services/usb/udc/udc.h ****  *   endpoint 0x82 is used then USB_DEVICE_MAX_EP=2
 111:./src/asf/common/services/usb/udc/udc.h ****  * - When only endpoint control 0x00 is used then USB_DEVICE_MAX_EP=0
 112:./src/asf/common/services/usb/udc/udc.h ****  * - When endpoint 0x01 and endpoint 0x81 is used then USB_DEVICE_MAX_EP=1<br>
 113:./src/asf/common/services/usb/udc/udc.h ****  *   (configuration not possible on USBB interface)
 114:./src/asf/common/services/usb/udc/udc.h ****  * @{
 115:./src/asf/common/services/usb/udc/udc.h ****  */
 116:./src/asf/common/services/usb/udc/udc.h **** 
 117:./src/asf/common/services/usb/udc/udc.h **** /**
 118:./src/asf/common/services/usb/udc/udc.h ****  * \brief Authorizes the VBUS event
 119:./src/asf/common/services/usb/udc/udc.h ****  *
 120:./src/asf/common/services/usb/udc/udc.h ****  * \return true, if the VBUS monitoring is possible.
 121:./src/asf/common/services/usb/udc/udc.h ****  *
 122:./src/asf/common/services/usb/udc/udc.h ****  * \section udc_vbus_monitoring VBus monitoring used cases
 123:./src/asf/common/services/usb/udc/udc.h ****  *
 124:./src/asf/common/services/usb/udc/udc.h ****  * The VBus monitoring is used only for USB SELF Power application.
 125:./src/asf/common/services/usb/udc/udc.h ****  *
 126:./src/asf/common/services/usb/udc/udc.h ****  *  -  No custom implementation \n
 127:./src/asf/common/services/usb/udc/udc.h ****  *     // Authorize VBUS monitoring \n
 128:./src/asf/common/services/usb/udc/udc.h ****  *     if (!udc_include_vbus_monitoring()) { \n
 129:./src/asf/common/services/usb/udc/udc.h ****  *       // VBUS monitoring is not available on this product \n
 130:./src/asf/common/services/usb/udc/udc.h ****  *       // thereby VBUS has to be considered as present \n
 131:./src/asf/common/services/usb/udc/udc.h ****  *       // Attach USB Device \n
 132:./src/asf/common/services/usb/udc/udc.h ****  *       udc_attach(); \n
 133:./src/asf/common/services/usb/udc/udc.h ****  *     } \n
 134:./src/asf/common/services/usb/udc/udc.h ****  *
 135:./src/asf/common/services/usb/udc/udc.h ****  *  -  Add custom VBUS monitoring \n
 136:./src/asf/common/services/usb/udc/udc.h ****  *     // Authorize VBUS monitoring \n
 137:./src/asf/common/services/usb/udc/udc.h ****  *     if (!udc_include_vbus_monitoring()) { \n
 138:./src/asf/common/services/usb/udc/udc.h ****  *       // Implement custom VBUS monitoring via GPIO or other \n
 139:./src/asf/common/services/usb/udc/udc.h ****  *     } \n
 140:./src/asf/common/services/usb/udc/udc.h ****  *     Event_VBUS_present() // VBUS interrupt or GPIO interrupt or other \n
 141:./src/asf/common/services/usb/udc/udc.h ****  *     { \n
 142:./src/asf/common/services/usb/udc/udc.h ****  *        // Attach USB Device \n
 143:./src/asf/common/services/usb/udc/udc.h ****  *        udc_attach(); \n
 144:./src/asf/common/services/usb/udc/udc.h ****  *     } \n
 145:./src/asf/common/services/usb/udc/udc.h ****  *
 146:./src/asf/common/services/usb/udc/udc.h ****  *  -  Case of battery charging \n
 147:./src/asf/common/services/usb/udc/udc.h ****  *     Event VBUS present() // VBUS interrupt or GPIO interrupt or .. \n
 148:./src/asf/common/services/usb/udc/udc.h ****  *     { \n
 149:./src/asf/common/services/usb/udc/udc.h ****  *        // Authorize battery charging, but wait key press to start USB. \n
 150:./src/asf/common/services/usb/udc/udc.h ****  *     } \n
 151:./src/asf/common/services/usb/udc/udc.h ****  *     Event Key press() \n
 152:./src/asf/common/services/usb/udc/udc.h ****  *     { \n
 153:./src/asf/common/services/usb/udc/udc.h ****  *        // Stop batteries charging \n
 154:./src/asf/common/services/usb/udc/udc.h ****  *        // Start USB \n
 155:./src/asf/common/services/usb/udc/udc.h ****  *        udc_attach(); \n
 156:./src/asf/common/services/usb/udc/udc.h ****  *     }  \n
 157:./src/asf/common/services/usb/udc/udc.h ****  */
 158:./src/asf/common/services/usb/udc/udc.h **** static inline bool udc_include_vbus_monitoring(void)
 159:./src/asf/common/services/usb/udc/udc.h **** {
 160:./src/asf/common/services/usb/udc/udc.h **** 	return udd_include_vbus_monitoring();
 161:./src/asf/common/services/usb/udc/udc.h **** }
 162:./src/asf/common/services/usb/udc/udc.h **** 
GAS LISTING /tmp/ccwf6aFs.s 			page 36


 163:./src/asf/common/services/usb/udc/udc.h **** /*! \brief Start the USB Device stack
 164:./src/asf/common/services/usb/udc/udc.h ****  */
 165:./src/asf/common/services/usb/udc/udc.h **** void udc_start(void);
 166:./src/asf/common/services/usb/udc/udc.h **** 
 167:./src/asf/common/services/usb/udc/udc.h **** /*! \brief Stop the USB Device stack
 168:./src/asf/common/services/usb/udc/udc.h ****  */
 169:./src/asf/common/services/usb/udc/udc.h **** void udc_stop(void);
 170:./src/asf/common/services/usb/udc/udc.h **** 
 171:./src/asf/common/services/usb/udc/udc.h **** /**
 172:./src/asf/common/services/usb/udc/udc.h ****  * \brief Attach device to the bus when possible
 173:./src/asf/common/services/usb/udc/udc.h ****  *
 174:./src/asf/common/services/usb/udc/udc.h ****  * \warning If a VBus control is included in driver,
 175:./src/asf/common/services/usb/udc/udc.h ****  * then it will attach device when an acceptable Vbus
 176:./src/asf/common/services/usb/udc/udc.h ****  * level from the host is detected.
 177:./src/asf/common/services/usb/udc/udc.h ****  */
 178:./src/asf/common/services/usb/udc/udc.h **** static inline void udc_attach(void)
 179:./src/asf/common/services/usb/udc/udc.h **** {
 180:./src/asf/common/services/usb/udc/udc.h **** 	udd_attach();
 738               		.loc 8 180 0
 739 0324 0E94 0000 		call udd_attach
 740               	.LVL21:
 741               	.LBE183:
 742               	.LBE182:
 743               	.LBB184:
 744               	.LBB185:
 158:./src/asf/xmega/drivers/usart/usart.h **** 	(usart)->CTRLB |= USART_RXEN_bm;
 745               		.loc 7 158 0
 746 0328 E0EA      		ldi r30,lo8(2208)
 747 032a F8E0      		ldi r31,hi8(2208)
 748 032c 8481      		ldd r24,Z+4
 749 032e 8061      		ori r24,lo8(16)
 750 0330 8483      		std Z+4,r24
 751               	.LBE185:
 752               	.LBE184:
 148:src/main.c    **** 	udc_attach();
 149:src/main.c    **** 	usart_rx_enable(&USARTC0);
 150:src/main.c    **** 	
 151:src/main.c    **** 	// Init LED data buffers
 152:src/main.c    **** 	dirty = 1;
 753               		.loc 1 152 0
 754 0332 81E0      		ldi r24,lo8(1)
 755 0334 8093 0000 		sts dirty,r24
 153:src/main.c    **** 	memset(&data_buffer, 0, sizeof(data_buffer));
 756               		.loc 1 153 0
 757 0338 60E0      		ldi r22,lo8(data_buffer)
 758 033a 70E0      		ldi r23,hi8(data_buffer)
 759 033c 80E4      		ldi r24,lo8(576)
 760 033e 92E0      		ldi r25,hi8(576)
 761 0340 FB01      		movw r30,r22
 762 0342 9C01      		movw r18,r24
 763 0344 1192      		st Z+,__zero_reg__
 764 0346 2150      		subi r18,1
 765 0348 3040      		sbci r19,0
 766 034a 01F4      		brne .-8
 154:src/main.c    **** 	//memset(&back_buffer, 0, sizeof(back_buffer));
 155:src/main.c    **** 	spi_write_packet(&SPIC, data_buffer, sizeof(data_buffer));
 767               		.loc 1 155 0
GAS LISTING /tmp/ccwf6aFs.s 			page 37


 768 034c 80EC      		ldi r24,lo8(2240)
 769 034e 98E0      		ldi r25,hi8(2240)
 770 0350 40E4      		ldi r20,lo8(576)
 771 0352 52E0      		ldi r21,hi8(576)
 772 0354 0E94 0000 		call spi_write_packet
 156:src/main.c    **** 	
 157:src/main.c    **** 	// Setup timer interrupt for strand output
 158:src/main.c    **** 	tc_enable(&TCC0);
 773               		.loc 1 158 0
 774 0358 80E0      		ldi r24,lo8(2048)
 775 035a 98E0      		ldi r25,hi8(2048)
 776 035c 0E94 0000 		call tc_enable
 159:src/main.c    **** 	tc_set_overflow_interrupt_callback(&TCC0, strand_output_isr);
 777               		.loc 1 159 0
 778 0360 80E0      		ldi r24,lo8(2048)
 779 0362 98E0      		ldi r25,hi8(2048)
 780 0364 60E0      		ldi r22,lo8(gs(strand_output_isr))
 781 0366 70E0      		ldi r23,hi8(gs(strand_output_isr))
 782 0368 0E94 0000 		call tc_set_overflow_interrupt_callback
 783               	.LVL22:
 784               	.LBB186:
 785               	.LBB187:
 786               		.file 9 "./src/asf/xmega/drivers/tc/tc.h"
   1:./src/asf/xmega/drivers/tc/tc.h **** /**
   2:./src/asf/xmega/drivers/tc/tc.h ****  * \file
   3:./src/asf/xmega/drivers/tc/tc.h ****  *
   4:./src/asf/xmega/drivers/tc/tc.h ****  * \brief AVR XMEGA Timer Counter (TC) driver
   5:./src/asf/xmega/drivers/tc/tc.h ****  *
   6:./src/asf/xmega/drivers/tc/tc.h ****  * Copyright (c) 2010-2011 Atmel Corporation. All rights reserved.
   7:./src/asf/xmega/drivers/tc/tc.h ****  *
   8:./src/asf/xmega/drivers/tc/tc.h ****  * \asf_license_start
   9:./src/asf/xmega/drivers/tc/tc.h ****  *
  10:./src/asf/xmega/drivers/tc/tc.h ****  * \page License
  11:./src/asf/xmega/drivers/tc/tc.h ****  *
  12:./src/asf/xmega/drivers/tc/tc.h ****  * Redistribution and use in source and binary forms, with or without
  13:./src/asf/xmega/drivers/tc/tc.h ****  * modification, are permitted provided that the following conditions are met:
  14:./src/asf/xmega/drivers/tc/tc.h ****  *
  15:./src/asf/xmega/drivers/tc/tc.h ****  * 1. Redistributions of source code must retain the above copyright notice,
  16:./src/asf/xmega/drivers/tc/tc.h ****  *    this list of conditions and the following disclaimer.
  17:./src/asf/xmega/drivers/tc/tc.h ****  *
  18:./src/asf/xmega/drivers/tc/tc.h ****  * 2. Redistributions in binary form must reproduce the above copyright notice,
  19:./src/asf/xmega/drivers/tc/tc.h ****  *    this list of conditions and the following disclaimer in the documentation
  20:./src/asf/xmega/drivers/tc/tc.h ****  *    and/or other materials provided with the distribution.
  21:./src/asf/xmega/drivers/tc/tc.h ****  *
  22:./src/asf/xmega/drivers/tc/tc.h ****  * 3. The name of Atmel may not be used to endorse or promote products derived
  23:./src/asf/xmega/drivers/tc/tc.h ****  *    from this software without specific prior written permission.
  24:./src/asf/xmega/drivers/tc/tc.h ****  *
  25:./src/asf/xmega/drivers/tc/tc.h ****  * 4. This software may only be redistributed and used in connection with an
  26:./src/asf/xmega/drivers/tc/tc.h ****  *    Atmel microcontroller product.
  27:./src/asf/xmega/drivers/tc/tc.h ****  *
  28:./src/asf/xmega/drivers/tc/tc.h ****  * THIS SOFTWARE IS PROVIDED BY ATMEL "AS IS" AND ANY EXPRESS OR IMPLIED
  29:./src/asf/xmega/drivers/tc/tc.h ****  * WARRANTIES, INCLUDING, BUT NOT LIMITED TO, THE IMPLIED WARRANTIES OF
  30:./src/asf/xmega/drivers/tc/tc.h ****  * MERCHANTABILITY, FITNESS FOR A PARTICULAR PURPOSE AND NON-INFRINGEMENT ARE
  31:./src/asf/xmega/drivers/tc/tc.h ****  * EXPRESSLY AND SPECIFICALLY DISCLAIMED. IN NO EVENT SHALL ATMEL BE LIABLE FOR
  32:./src/asf/xmega/drivers/tc/tc.h ****  * ANY DIRECT, INDIRECT, INCIDENTAL, SPECIAL, EXEMPLARY, OR CONSEQUENTIAL
  33:./src/asf/xmega/drivers/tc/tc.h ****  * DAMAGES (INCLUDING, BUT NOT LIMITED TO, PROCUREMENT OF SUBSTITUTE GOODS
  34:./src/asf/xmega/drivers/tc/tc.h ****  * OR SERVICES; LOSS OF USE, DATA, OR PROFITS; OR BUSINESS INTERRUPTION)
GAS LISTING /tmp/ccwf6aFs.s 			page 38


  35:./src/asf/xmega/drivers/tc/tc.h ****  * HOWEVER CAUSED AND ON ANY THEORY OF LIABILITY, WHETHER IN CONTRACT,
  36:./src/asf/xmega/drivers/tc/tc.h ****  * STRICT LIABILITY, OR TORT (INCLUDING NEGLIGENCE OR OTHERWISE) ARISING IN
  37:./src/asf/xmega/drivers/tc/tc.h ****  * ANY WAY OUT OF THE USE OF THIS SOFTWARE, EVEN IF ADVISED OF THE
  38:./src/asf/xmega/drivers/tc/tc.h ****  * POSSIBILITY OF SUCH DAMAGE.
  39:./src/asf/xmega/drivers/tc/tc.h ****  *
  40:./src/asf/xmega/drivers/tc/tc.h ****  * \asf_license_stop
  41:./src/asf/xmega/drivers/tc/tc.h ****  *
  42:./src/asf/xmega/drivers/tc/tc.h ****  */
  43:./src/asf/xmega/drivers/tc/tc.h **** #ifndef TC_H
  44:./src/asf/xmega/drivers/tc/tc.h **** #define TC_H
  45:./src/asf/xmega/drivers/tc/tc.h **** 
  46:./src/asf/xmega/drivers/tc/tc.h **** #include <compiler.h>
  47:./src/asf/xmega/drivers/tc/tc.h **** #include <parts.h>
  48:./src/asf/xmega/drivers/tc/tc.h **** #include "status_codes.h"
  49:./src/asf/xmega/drivers/tc/tc.h **** #include "pmic.h"
  50:./src/asf/xmega/drivers/tc/tc.h **** #include <sleepmgr.h>
  51:./src/asf/xmega/drivers/tc/tc.h **** #include <sysclk.h>
  52:./src/asf/xmega/drivers/tc/tc.h **** 
  53:./src/asf/xmega/drivers/tc/tc.h **** 
  54:./src/asf/xmega/drivers/tc/tc.h **** #ifdef __cplusplus
  55:./src/asf/xmega/drivers/tc/tc.h **** extern "C" {
  56:./src/asf/xmega/drivers/tc/tc.h **** #endif
  57:./src/asf/xmega/drivers/tc/tc.h **** 
  58:./src/asf/xmega/drivers/tc/tc.h **** 
  59:./src/asf/xmega/drivers/tc/tc.h **** 
  60:./src/asf/xmega/drivers/tc/tc.h **** /**
  61:./src/asf/xmega/drivers/tc/tc.h ****  * \defgroup tc_group Timer Counter (TC)
  62:./src/asf/xmega/drivers/tc/tc.h ****  *
  63:./src/asf/xmega/drivers/tc/tc.h ****  * See \ref xmega_tc_quickstart
  64:./src/asf/xmega/drivers/tc/tc.h ****  *
  65:./src/asf/xmega/drivers/tc/tc.h ****  * This is a driver for the AVR XMEGA Timer Counter (TC). It provides functions
  66:./src/asf/xmega/drivers/tc/tc.h ****  * for enabling, disabling and configuring the TC modules.
  67:./src/asf/xmega/drivers/tc/tc.h ****  *
  68:./src/asf/xmega/drivers/tc/tc.h ****  * \section dependencies Dependencies
  69:./src/asf/xmega/drivers/tc/tc.h ****  * This driver depends on the following modules:
  70:./src/asf/xmega/drivers/tc/tc.h ****  * - \ref sysclk_group for peripheral clock control.
  71:./src/asf/xmega/drivers/tc/tc.h ****  * - \ref sleepmgr_group for setting allowed sleep mode.
  72:./src/asf/xmega/drivers/tc/tc.h ****  * - \ref interrupt_group for ISR definition and disabling interrupts during
  73:./src/asf/xmega/drivers/tc/tc.h ****  * critical code sections.
  74:./src/asf/xmega/drivers/tc/tc.h ****  * @{
  75:./src/asf/xmega/drivers/tc/tc.h ****  */
  76:./src/asf/xmega/drivers/tc/tc.h **** 
  77:./src/asf/xmega/drivers/tc/tc.h **** 
  78:./src/asf/xmega/drivers/tc/tc.h **** 
  79:./src/asf/xmega/drivers/tc/tc.h **** /**
  80:./src/asf/xmega/drivers/tc/tc.h ****  * \brief Interrupt event callback function type
  81:./src/asf/xmega/drivers/tc/tc.h ****  *
  82:./src/asf/xmega/drivers/tc/tc.h ****  * The interrupt handler can be configured to do a function callback,
  83:./src/asf/xmega/drivers/tc/tc.h ****  * the callback function must match the tc_callback_t type.
  84:./src/asf/xmega/drivers/tc/tc.h ****  *
  85:./src/asf/xmega/drivers/tc/tc.h ****  */
  86:./src/asf/xmega/drivers/tc/tc.h **** typedef void (*tc_callback_t) (void);
  87:./src/asf/xmega/drivers/tc/tc.h **** 
  88:./src/asf/xmega/drivers/tc/tc.h **** //! Timer Counter Capture Compare Channel index
  89:./src/asf/xmega/drivers/tc/tc.h **** enum tc_cc_channel_t {
  90:./src/asf/xmega/drivers/tc/tc.h **** 	//! Channel A
  91:./src/asf/xmega/drivers/tc/tc.h **** 	TC_CCA = 1,
GAS LISTING /tmp/ccwf6aFs.s 			page 39


  92:./src/asf/xmega/drivers/tc/tc.h **** 	//! Channel B
  93:./src/asf/xmega/drivers/tc/tc.h **** 	TC_CCB = 2,
  94:./src/asf/xmega/drivers/tc/tc.h **** 	//! Channel C
  95:./src/asf/xmega/drivers/tc/tc.h **** 	TC_CCC = 3,
  96:./src/asf/xmega/drivers/tc/tc.h **** 	//! Channel D
  97:./src/asf/xmega/drivers/tc/tc.h **** 	TC_CCD = 4,
  98:./src/asf/xmega/drivers/tc/tc.h **** };
  99:./src/asf/xmega/drivers/tc/tc.h **** 
 100:./src/asf/xmega/drivers/tc/tc.h **** //! Timer Counter Capture Compare Channel index
 101:./src/asf/xmega/drivers/tc/tc.h **** enum tc_cc_channel_mask_enable_t {
 102:./src/asf/xmega/drivers/tc/tc.h **** 	//! Channel A Enable mask
 103:./src/asf/xmega/drivers/tc/tc.h **** 	TC_CCAEN = TC0_CCAEN_bm,
 104:./src/asf/xmega/drivers/tc/tc.h **** 	//! Channel B Enable mask
 105:./src/asf/xmega/drivers/tc/tc.h **** 	TC_CCBEN = TC0_CCBEN_bm,
 106:./src/asf/xmega/drivers/tc/tc.h **** 	//! Channel C Enable mask
 107:./src/asf/xmega/drivers/tc/tc.h **** 	TC_CCCEN = TC0_CCCEN_bm,
 108:./src/asf/xmega/drivers/tc/tc.h **** 	//! Channel D Enable mask
 109:./src/asf/xmega/drivers/tc/tc.h **** 	TC_CCDEN = TC0_CCDEN_bm,
 110:./src/asf/xmega/drivers/tc/tc.h **** };
 111:./src/asf/xmega/drivers/tc/tc.h **** 
 112:./src/asf/xmega/drivers/tc/tc.h **** //! Timer Counter Direction
 113:./src/asf/xmega/drivers/tc/tc.h **** enum tc_dir_t {
 114:./src/asf/xmega/drivers/tc/tc.h **** 	//! Counting up
 115:./src/asf/xmega/drivers/tc/tc.h **** 	TC_UP = 0,
 116:./src/asf/xmega/drivers/tc/tc.h **** 	//! Down Counting B
 117:./src/asf/xmega/drivers/tc/tc.h **** 	TC_DOWN = 1
 118:./src/asf/xmega/drivers/tc/tc.h **** };
 119:./src/asf/xmega/drivers/tc/tc.h **** //! Timer Counter Waveform Generator mode
 120:./src/asf/xmega/drivers/tc/tc.h **** enum tc_wg_mode_t {
 121:./src/asf/xmega/drivers/tc/tc.h **** 	//! TC in normal Mode
 122:./src/asf/xmega/drivers/tc/tc.h **** 	TC_WG_NORMAL = TC_WGMODE_NORMAL_gc,
 123:./src/asf/xmega/drivers/tc/tc.h **** 	//! TC in Frequency Generator mode
 124:./src/asf/xmega/drivers/tc/tc.h **** 	TC_WG_FRQ = TC_WGMODE_FRQ_gc,
 125:./src/asf/xmega/drivers/tc/tc.h **** 	//! TC in single slope PWM mode
 126:./src/asf/xmega/drivers/tc/tc.h **** 	TC_WG_SS = TC_WGMODE_SS_gc,
 127:./src/asf/xmega/drivers/tc/tc.h **** 	//! TC in dual slope Top PWM mode
 128:./src/asf/xmega/drivers/tc/tc.h **** 	TC_WG_DS_T = TC_WGMODE_DS_T_gc,
 129:./src/asf/xmega/drivers/tc/tc.h **** 	//! TC in dual slope Top Bottom PWM mode
 130:./src/asf/xmega/drivers/tc/tc.h **** 	TC_WG_DS_TB = TC_WGMODE_DS_TB_gc,
 131:./src/asf/xmega/drivers/tc/tc.h **** 	//! TC in dual slope Bottom PWM mode
 132:./src/asf/xmega/drivers/tc/tc.h **** 	TC_WG_DS_B = TC_WGMODE_DS_B_gc
 133:./src/asf/xmega/drivers/tc/tc.h **** };
 134:./src/asf/xmega/drivers/tc/tc.h **** 
 135:./src/asf/xmega/drivers/tc/tc.h **** //! TC interrupt levels
 136:./src/asf/xmega/drivers/tc/tc.h **** enum TC_INT_LEVEL_t {
 137:./src/asf/xmega/drivers/tc/tc.h **** 	TC_INT_LVL_OFF = 0x00,
 138:./src/asf/xmega/drivers/tc/tc.h **** 	TC_INT_LVL_LO = 0x01,
 139:./src/asf/xmega/drivers/tc/tc.h **** 	TC_INT_LVL_MED = 0x02,
 140:./src/asf/xmega/drivers/tc/tc.h **** 	TC_INT_LVL_HI = 0x03,
 141:./src/asf/xmega/drivers/tc/tc.h **** };
 142:./src/asf/xmega/drivers/tc/tc.h **** 
 143:./src/asf/xmega/drivers/tc/tc.h **** //! Macro to check if type of passed TC is TC1_t
 144:./src/asf/xmega/drivers/tc/tc.h **** #define tc_is_tc1(void) ((uint16_t)tc&0x40 ? true : false)
 145:./src/asf/xmega/drivers/tc/tc.h **** //! Macro to check if type of passed TC is TC0_t
 146:./src/asf/xmega/drivers/tc/tc.h **** #define tc_is_tc0(void) ((uint16_t)tc&0x40 ? false : true)
 147:./src/asf/xmega/drivers/tc/tc.h **** 
 148:./src/asf/xmega/drivers/tc/tc.h **** /**
GAS LISTING /tmp/ccwf6aFs.s 			page 40


 149:./src/asf/xmega/drivers/tc/tc.h ****  * \brief Enable TC
 150:./src/asf/xmega/drivers/tc/tc.h ****  *
 151:./src/asf/xmega/drivers/tc/tc.h ****  * Enables the TC.
 152:./src/asf/xmega/drivers/tc/tc.h ****  *
 153:./src/asf/xmega/drivers/tc/tc.h ****  * \param tc Pointer to TC module
 154:./src/asf/xmega/drivers/tc/tc.h ****  *
 155:./src/asf/xmega/drivers/tc/tc.h ****  * \note
 156:./src/asf/xmega/drivers/tc/tc.h ****  * unmask TC clock (sysclk), but does not configure the TC clock source.
 157:./src/asf/xmega/drivers/tc/tc.h ****  */
 158:./src/asf/xmega/drivers/tc/tc.h **** void tc_enable(volatile void *tc);
 159:./src/asf/xmega/drivers/tc/tc.h **** 
 160:./src/asf/xmega/drivers/tc/tc.h **** /**
 161:./src/asf/xmega/drivers/tc/tc.h ****  * \brief Disable TC
 162:./src/asf/xmega/drivers/tc/tc.h ****  *
 163:./src/asf/xmega/drivers/tc/tc.h ****  * Disables the TC.
 164:./src/asf/xmega/drivers/tc/tc.h ****  *
 165:./src/asf/xmega/drivers/tc/tc.h ****  * \param tc Pointer to TC module
 166:./src/asf/xmega/drivers/tc/tc.h ****  *
 167:./src/asf/xmega/drivers/tc/tc.h ****  * \note
 168:./src/asf/xmega/drivers/tc/tc.h ****  * mask TC clock (sysclk).
 169:./src/asf/xmega/drivers/tc/tc.h ****  */
 170:./src/asf/xmega/drivers/tc/tc.h **** void tc_disable(volatile void *tc);
 171:./src/asf/xmega/drivers/tc/tc.h **** 
 172:./src/asf/xmega/drivers/tc/tc.h **** /**
 173:./src/asf/xmega/drivers/tc/tc.h ****  * \ingroup tc_group
 174:./src/asf/xmega/drivers/tc/tc.h ****  * \defgroup tc_interrupt_group Timer Counter (TC) interrupt management
 175:./src/asf/xmega/drivers/tc/tc.h ****  * This group provides functions to configure TC module interrupts
 176:./src/asf/xmega/drivers/tc/tc.h ****  *
 177:./src/asf/xmega/drivers/tc/tc.h ****  *
 178:./src/asf/xmega/drivers/tc/tc.h ****  * @{
 179:./src/asf/xmega/drivers/tc/tc.h ****  */
 180:./src/asf/xmega/drivers/tc/tc.h **** /**
 181:./src/asf/xmega/drivers/tc/tc.h ****  * \brief Set TC overflow interrupt callback function
 182:./src/asf/xmega/drivers/tc/tc.h ****  *
 183:./src/asf/xmega/drivers/tc/tc.h ****  * This function allows the caller to set and change the interrupt callback
 184:./src/asf/xmega/drivers/tc/tc.h ****  * function. Without setting a callback function the interrupt handler in the
 185:./src/asf/xmega/drivers/tc/tc.h ****  * driver will only clear the interrupt flags.
 186:./src/asf/xmega/drivers/tc/tc.h ****  *
 187:./src/asf/xmega/drivers/tc/tc.h ****  * \param tc Pointer to the Timer Counter (TC) base address
 188:./src/asf/xmega/drivers/tc/tc.h ****  * \param callback Reference to a callback function
 189:./src/asf/xmega/drivers/tc/tc.h ****  */
 190:./src/asf/xmega/drivers/tc/tc.h **** void tc_set_overflow_interrupt_callback(volatile void *tc,
 191:./src/asf/xmega/drivers/tc/tc.h **** 		tc_callback_t callback);
 192:./src/asf/xmega/drivers/tc/tc.h **** 
 193:./src/asf/xmega/drivers/tc/tc.h **** /**
 194:./src/asf/xmega/drivers/tc/tc.h ****  * \brief Set TC error interrupt callback function
 195:./src/asf/xmega/drivers/tc/tc.h ****  *
 196:./src/asf/xmega/drivers/tc/tc.h ****  * This function allows the caller to set and change the interrupt callback
 197:./src/asf/xmega/drivers/tc/tc.h ****  * function. Without setting a callback function the interrupt handler in the
 198:./src/asf/xmega/drivers/tc/tc.h ****  * driver will only clear the interrupt flags.
 199:./src/asf/xmega/drivers/tc/tc.h ****  *
 200:./src/asf/xmega/drivers/tc/tc.h ****  * \param tc Pointer to the Timer Counter (TC) base address
 201:./src/asf/xmega/drivers/tc/tc.h ****  * \param callback Reference to a callback function
 202:./src/asf/xmega/drivers/tc/tc.h ****  */
 203:./src/asf/xmega/drivers/tc/tc.h **** void tc_set_error_interrupt_callback(volatile void *tc, tc_callback_t callback);
 204:./src/asf/xmega/drivers/tc/tc.h **** 
 205:./src/asf/xmega/drivers/tc/tc.h **** /**
GAS LISTING /tmp/ccwf6aFs.s 			page 41


 206:./src/asf/xmega/drivers/tc/tc.h ****  * \brief Set TC Capture Compare Channel A interrupt callback function
 207:./src/asf/xmega/drivers/tc/tc.h ****  *
 208:./src/asf/xmega/drivers/tc/tc.h ****  * This function allows the caller to set and change the interrupt callback
 209:./src/asf/xmega/drivers/tc/tc.h ****  * function. Without setting a callback function the interrupt handler in the
 210:./src/asf/xmega/drivers/tc/tc.h ****  * driver will only clear the interrupt flags.
 211:./src/asf/xmega/drivers/tc/tc.h ****  *
 212:./src/asf/xmega/drivers/tc/tc.h ****  * \param tc Pointer to the Timer Counter (TC) base address
 213:./src/asf/xmega/drivers/tc/tc.h ****  * \param callback Reference to a callback function
 214:./src/asf/xmega/drivers/tc/tc.h ****  */
 215:./src/asf/xmega/drivers/tc/tc.h **** void tc_set_cca_interrupt_callback(volatile void *tc, tc_callback_t callback);
 216:./src/asf/xmega/drivers/tc/tc.h **** 
 217:./src/asf/xmega/drivers/tc/tc.h **** /**
 218:./src/asf/xmega/drivers/tc/tc.h ****  * \brief Set TC Capture Compare Channel B interrupt callback function
 219:./src/asf/xmega/drivers/tc/tc.h ****  *
 220:./src/asf/xmega/drivers/tc/tc.h ****  * This function allows the caller to set and change the interrupt callback
 221:./src/asf/xmega/drivers/tc/tc.h ****  * function. Without setting a callback function the interrupt handler in the
 222:./src/asf/xmega/drivers/tc/tc.h ****  * driver will only clear the interrupt flags.
 223:./src/asf/xmega/drivers/tc/tc.h ****  *
 224:./src/asf/xmega/drivers/tc/tc.h ****  * \param tc Pointer to the Timer Counter (TC) base address
 225:./src/asf/xmega/drivers/tc/tc.h ****  * \param callback Reference to a callback function
 226:./src/asf/xmega/drivers/tc/tc.h ****  */
 227:./src/asf/xmega/drivers/tc/tc.h **** void tc_set_ccb_interrupt_callback(volatile void *tc, tc_callback_t callback);
 228:./src/asf/xmega/drivers/tc/tc.h **** 
 229:./src/asf/xmega/drivers/tc/tc.h **** /**
 230:./src/asf/xmega/drivers/tc/tc.h ****  * \brief Set TC Capture Compare Channel C interrupt callback function
 231:./src/asf/xmega/drivers/tc/tc.h ****  *
 232:./src/asf/xmega/drivers/tc/tc.h ****  * This function allows the caller to set and change the interrupt callback
 233:./src/asf/xmega/drivers/tc/tc.h ****  * function. Without setting a callback function the interrupt handler in the
 234:./src/asf/xmega/drivers/tc/tc.h ****  * driver will only clear the interrupt flags.
 235:./src/asf/xmega/drivers/tc/tc.h ****  *
 236:./src/asf/xmega/drivers/tc/tc.h ****  * \param tc Pointer to the Timer Counter (TC) base address
 237:./src/asf/xmega/drivers/tc/tc.h ****  * \param callback Reference to a callback function
 238:./src/asf/xmega/drivers/tc/tc.h ****  */
 239:./src/asf/xmega/drivers/tc/tc.h **** void tc_set_ccc_interrupt_callback(volatile void *tc, tc_callback_t callback);
 240:./src/asf/xmega/drivers/tc/tc.h **** 
 241:./src/asf/xmega/drivers/tc/tc.h **** /**
 242:./src/asf/xmega/drivers/tc/tc.h ****  * \brief Set TC Capture Compare Channel D interrupt callback function
 243:./src/asf/xmega/drivers/tc/tc.h ****  *
 244:./src/asf/xmega/drivers/tc/tc.h ****  * This function allows the caller to set and change the interrupt callback
 245:./src/asf/xmega/drivers/tc/tc.h ****  * function. Without setting a callback function the interrupt handler in the
 246:./src/asf/xmega/drivers/tc/tc.h ****  * driver will only clear the interrupt flags.
 247:./src/asf/xmega/drivers/tc/tc.h ****  *
 248:./src/asf/xmega/drivers/tc/tc.h ****  * \param tc Pointer to the Timer Counter (TC) base address
 249:./src/asf/xmega/drivers/tc/tc.h ****  * \param callback Reference to a callback function
 250:./src/asf/xmega/drivers/tc/tc.h ****  */
 251:./src/asf/xmega/drivers/tc/tc.h **** void tc_set_ccd_interrupt_callback(volatile void *tc, tc_callback_t callback);
 252:./src/asf/xmega/drivers/tc/tc.h **** /**
 253:./src/asf/xmega/drivers/tc/tc.h ****  * \brief Configures TC overflow Interrupt level
 254:./src/asf/xmega/drivers/tc/tc.h ****  *
 255:./src/asf/xmega/drivers/tc/tc.h ****  * \param tc Pointer to TC module.
 256:./src/asf/xmega/drivers/tc/tc.h ****  * \param level Overflow interrupt level
 257:./src/asf/xmega/drivers/tc/tc.h ****  * \note  Configures OVFINTLVL in INTCTRLA
 258:./src/asf/xmega/drivers/tc/tc.h ****  */
 259:./src/asf/xmega/drivers/tc/tc.h **** static inline void tc_set_overflow_interrupt_level(volatile void *tc,
 260:./src/asf/xmega/drivers/tc/tc.h **** 		enum TC_INT_LEVEL_t level)
 261:./src/asf/xmega/drivers/tc/tc.h **** {
 262:./src/asf/xmega/drivers/tc/tc.h **** 	((TC0_t *)tc)->INTCTRLA = ((TC0_t *)tc)->INTCTRLA & ~TC0_OVFINTLVL_gm;
GAS LISTING /tmp/ccwf6aFs.s 			page 42


 263:./src/asf/xmega/drivers/tc/tc.h **** 	((TC0_t *)tc)->INTCTRLA =
 264:./src/asf/xmega/drivers/tc/tc.h **** 			((TC0_t *)tc)->INTCTRLA | (level << TC0_OVFINTLVL_gp);
 265:./src/asf/xmega/drivers/tc/tc.h **** }
 266:./src/asf/xmega/drivers/tc/tc.h **** 
 267:./src/asf/xmega/drivers/tc/tc.h **** /**
 268:./src/asf/xmega/drivers/tc/tc.h ****  * \brief Configures TC error Interrupt level
 269:./src/asf/xmega/drivers/tc/tc.h ****  *
 270:./src/asf/xmega/drivers/tc/tc.h ****  * \param tc Pointer to TC module.
 271:./src/asf/xmega/drivers/tc/tc.h ****  * \param level Error interrupt level
 272:./src/asf/xmega/drivers/tc/tc.h ****  * \note  Configures ERRINTLVL in INTCTRLA
 273:./src/asf/xmega/drivers/tc/tc.h ****  */
 274:./src/asf/xmega/drivers/tc/tc.h **** static inline void tc_set_error_interrupt_level(volatile void *tc,
 275:./src/asf/xmega/drivers/tc/tc.h **** 		enum TC_INT_LEVEL_t level)
 276:./src/asf/xmega/drivers/tc/tc.h **** {
 277:./src/asf/xmega/drivers/tc/tc.h **** 	((TC0_t *)tc)->INTCTRLA = ((TC0_t *)tc)->INTCTRLA & ~TC0_ERRINTLVL_gm;
 278:./src/asf/xmega/drivers/tc/tc.h **** 	((TC0_t *)tc)->INTCTRLA =
 279:./src/asf/xmega/drivers/tc/tc.h **** 			((TC0_t *)tc)->INTCTRLA | (level << TC0_ERRINTLVL_gp);
 280:./src/asf/xmega/drivers/tc/tc.h **** }
 281:./src/asf/xmega/drivers/tc/tc.h **** 
 282:./src/asf/xmega/drivers/tc/tc.h **** /**
 283:./src/asf/xmega/drivers/tc/tc.h ****  * \brief Configures TC Capture Compare A Interrupt level
 284:./src/asf/xmega/drivers/tc/tc.h ****  *
 285:./src/asf/xmega/drivers/tc/tc.h ****  * \param tc Pointer to TC module.
 286:./src/asf/xmega/drivers/tc/tc.h ****  * \param level CCA interrupt level
 287:./src/asf/xmega/drivers/tc/tc.h ****  * \note Configures CCAINTLVL in INTCTRLB
 288:./src/asf/xmega/drivers/tc/tc.h ****  */
 289:./src/asf/xmega/drivers/tc/tc.h **** static inline void tc_set_cca_interrupt_level(volatile void *tc,
 290:./src/asf/xmega/drivers/tc/tc.h **** 		enum TC_INT_LEVEL_t level)
 291:./src/asf/xmega/drivers/tc/tc.h **** {
 292:./src/asf/xmega/drivers/tc/tc.h **** 	((TC0_t *)tc)->INTCTRLB = ((TC0_t *)tc)->INTCTRLB & ~TC0_CCAINTLVL_gm;
 293:./src/asf/xmega/drivers/tc/tc.h **** 	((TC0_t *)tc)->INTCTRLB =
 294:./src/asf/xmega/drivers/tc/tc.h **** 			((TC0_t *)tc)->INTCTRLB | (level << TC0_CCAINTLVL_gp);
 295:./src/asf/xmega/drivers/tc/tc.h **** }
 296:./src/asf/xmega/drivers/tc/tc.h **** 
 297:./src/asf/xmega/drivers/tc/tc.h **** /**
 298:./src/asf/xmega/drivers/tc/tc.h ****  * \brief Configures TC Capture Compare B Interrupt level
 299:./src/asf/xmega/drivers/tc/tc.h ****  *
 300:./src/asf/xmega/drivers/tc/tc.h ****  * \param tc Pointer to TC module.
 301:./src/asf/xmega/drivers/tc/tc.h ****  * \param level CCB interrupt level
 302:./src/asf/xmega/drivers/tc/tc.h ****  * \note Configures CCBINTLVL in INTCTRLB
 303:./src/asf/xmega/drivers/tc/tc.h ****  */
 304:./src/asf/xmega/drivers/tc/tc.h **** static inline void tc_set_ccb_interrupt_level(volatile void *tc,
 305:./src/asf/xmega/drivers/tc/tc.h **** 		enum TC_INT_LEVEL_t level)
 306:./src/asf/xmega/drivers/tc/tc.h **** {
 307:./src/asf/xmega/drivers/tc/tc.h **** 	((TC0_t *)tc)->INTCTRLB = ((TC0_t *)tc)->INTCTRLB & ~TC0_CCBINTLVL_gm;
 308:./src/asf/xmega/drivers/tc/tc.h **** 	((TC0_t *)tc)->INTCTRLB =
 309:./src/asf/xmega/drivers/tc/tc.h **** 			((TC0_t *)tc)->INTCTRLB | (level << TC0_CCBINTLVL_gp);
 310:./src/asf/xmega/drivers/tc/tc.h **** }
 311:./src/asf/xmega/drivers/tc/tc.h **** 
 312:./src/asf/xmega/drivers/tc/tc.h **** /**
 313:./src/asf/xmega/drivers/tc/tc.h ****  * \brief Configures TC Capture Compare C Interrupt level
 314:./src/asf/xmega/drivers/tc/tc.h ****  *
 315:./src/asf/xmega/drivers/tc/tc.h ****  * \param tc Pointer to TC module.
 316:./src/asf/xmega/drivers/tc/tc.h ****  * \param level CCC interrupt level
 317:./src/asf/xmega/drivers/tc/tc.h ****  * \note Configures CCCINTLVL in INTCTRLB
 318:./src/asf/xmega/drivers/tc/tc.h ****  */
 319:./src/asf/xmega/drivers/tc/tc.h **** static inline void tc_set_ccc_interrupt_level(volatile void *tc,
GAS LISTING /tmp/ccwf6aFs.s 			page 43


 320:./src/asf/xmega/drivers/tc/tc.h **** 		enum TC_INT_LEVEL_t level)
 321:./src/asf/xmega/drivers/tc/tc.h **** {
 322:./src/asf/xmega/drivers/tc/tc.h **** 	((TC0_t *)tc)->INTCTRLB = ((TC0_t *)tc)->INTCTRLB & ~TC0_CCCINTLVL_gm;
 323:./src/asf/xmega/drivers/tc/tc.h **** 	((TC0_t *)tc)->INTCTRLB =
 324:./src/asf/xmega/drivers/tc/tc.h **** 			((TC0_t *)tc)->INTCTRLB | (level << TC0_CCCINTLVL_gp);
 325:./src/asf/xmega/drivers/tc/tc.h **** }
 326:./src/asf/xmega/drivers/tc/tc.h **** 
 327:./src/asf/xmega/drivers/tc/tc.h ****   /**
 328:./src/asf/xmega/drivers/tc/tc.h ****  * \brief Configures TC Capture Compare D Interrupt level
 329:./src/asf/xmega/drivers/tc/tc.h ****  *
 330:./src/asf/xmega/drivers/tc/tc.h ****  * \param tc Pointer to TC module.
 331:./src/asf/xmega/drivers/tc/tc.h ****  * \param level CCD interrupt level
 332:./src/asf/xmega/drivers/tc/tc.h ****  * \note Configures CCDINTLVL in INTCTRLB
 333:./src/asf/xmega/drivers/tc/tc.h ****  */
 334:./src/asf/xmega/drivers/tc/tc.h **** static inline void tc_set_ccd_interrupt_level(volatile void *tc,
 335:./src/asf/xmega/drivers/tc/tc.h **** 		enum TC_INT_LEVEL_t level)
 336:./src/asf/xmega/drivers/tc/tc.h **** {
 337:./src/asf/xmega/drivers/tc/tc.h **** 	((TC0_t *)tc)->INTCTRLB = ((TC0_t *)tc)->INTCTRLB & ~TC0_CCDINTLVL_gm;
 338:./src/asf/xmega/drivers/tc/tc.h **** 	((TC0_t *)tc)->INTCTRLB =
 339:./src/asf/xmega/drivers/tc/tc.h **** 			((TC0_t *)tc)->INTCTRLB | (level << TC0_CCDINTLVL_gp);
 340:./src/asf/xmega/drivers/tc/tc.h **** }
 341:./src/asf/xmega/drivers/tc/tc.h **** 
 342:./src/asf/xmega/drivers/tc/tc.h **** //@}
 343:./src/asf/xmega/drivers/tc/tc.h **** 
 344:./src/asf/xmega/drivers/tc/tc.h **** /**
 345:./src/asf/xmega/drivers/tc/tc.h ****  * \brief Configure Timer Clock Source
 346:./src/asf/xmega/drivers/tc/tc.h ****  *
 347:./src/asf/xmega/drivers/tc/tc.h ****  * \param tc Pointer to TC module.
 348:./src/asf/xmega/drivers/tc/tc.h ****  * \param TC_CLKSEL_enum Clock source selection
 349:./src/asf/xmega/drivers/tc/tc.h ****  * \note Configuring the clock also starts the timer
 350:./src/asf/xmega/drivers/tc/tc.h ****  */
 351:./src/asf/xmega/drivers/tc/tc.h **** static inline void tc_write_clock_source(volatile void *tc,
 352:./src/asf/xmega/drivers/tc/tc.h **** 		TC_CLKSEL_t TC_CLKSEL_enum)
 353:./src/asf/xmega/drivers/tc/tc.h **** {
 354:./src/asf/xmega/drivers/tc/tc.h **** 	((TC0_t *)tc)->CTRLA =
 355:./src/asf/xmega/drivers/tc/tc.h **** 			(((TC0_t *)tc)->CTRLA & ~TC0_CLKSEL_gm) |
 356:./src/asf/xmega/drivers/tc/tc.h **** 			TC_CLKSEL_enum;
 357:./src/asf/xmega/drivers/tc/tc.h **** }
 358:./src/asf/xmega/drivers/tc/tc.h **** 
 359:./src/asf/xmega/drivers/tc/tc.h **** /**
 360:./src/asf/xmega/drivers/tc/tc.h ****  * \brief Read Timer Clock Source
 361:./src/asf/xmega/drivers/tc/tc.h ****  *
 362:./src/asf/xmega/drivers/tc/tc.h ****  * \param tc Pointer to TC module.
 363:./src/asf/xmega/drivers/tc/tc.h ****  * \return TC_CLKSEL_enum Clock source selection
 364:./src/asf/xmega/drivers/tc/tc.h ****  */
 365:./src/asf/xmega/drivers/tc/tc.h **** static inline TC_CLKSEL_t tc_read_clock_source(volatile void *tc)
 366:./src/asf/xmega/drivers/tc/tc.h **** {
 367:./src/asf/xmega/drivers/tc/tc.h **** 	return (TC_CLKSEL_t)(((TC0_t *)tc)->CTRLA & TC0_CLKSEL_gm);
 368:./src/asf/xmega/drivers/tc/tc.h **** }
 369:./src/asf/xmega/drivers/tc/tc.h **** 
 370:./src/asf/xmega/drivers/tc/tc.h **** /**
 371:./src/asf/xmega/drivers/tc/tc.h ****  * \brief Select clock for a specified TC and resolution.
 372:./src/asf/xmega/drivers/tc/tc.h ****  *
 373:./src/asf/xmega/drivers/tc/tc.h ****  * This function configures the clock selection, as prescaled CLKper, for a
 374:./src/asf/xmega/drivers/tc/tc.h ****  * specified TC that gives a resolution at least as high as the one specified.
 375:./src/asf/xmega/drivers/tc/tc.h ****  * The resolution of a TC is synonymous with its clock frequency.
 376:./src/asf/xmega/drivers/tc/tc.h ****  *
GAS LISTING /tmp/ccwf6aFs.s 			page 44


 377:./src/asf/xmega/drivers/tc/tc.h ****  * \note It is also possible to clock TCs with event channels. This is not
 378:./src/asf/xmega/drivers/tc/tc.h ****  * handled by this implementation.
 379:./src/asf/xmega/drivers/tc/tc.h ****  *
 380:./src/asf/xmega/drivers/tc/tc.h ****  * \param tc   ID of TC to get clock selection for.
 381:./src/asf/xmega/drivers/tc/tc.h ****  * \param resolution Desired resolution for the TC in Hz.
 382:./src/asf/xmega/drivers/tc/tc.h ****  */
 383:./src/asf/xmega/drivers/tc/tc.h **** static inline void tc_set_resolution(void *tc, uint32_t resolution)
 384:./src/asf/xmega/drivers/tc/tc.h **** {
 385:./src/asf/xmega/drivers/tc/tc.h **** 	uint32_t tc_clk_rate = sysclk_get_per_hz();
 386:./src/asf/xmega/drivers/tc/tc.h **** 
 387:./src/asf/xmega/drivers/tc/tc.h **** 	if (resolution <= (tc_clk_rate / 1024)) {
 388:./src/asf/xmega/drivers/tc/tc.h **** 		tc_write_clock_source(tc, TC_CLKSEL_DIV1024_gc);
 389:./src/asf/xmega/drivers/tc/tc.h **** 	} else if (resolution <= (tc_clk_rate / 256)) {
 390:./src/asf/xmega/drivers/tc/tc.h **** 		tc_write_clock_source(tc, TC_CLKSEL_DIV256_gc);
 391:./src/asf/xmega/drivers/tc/tc.h **** 	} else if (resolution <= (tc_clk_rate / 64)) {
 392:./src/asf/xmega/drivers/tc/tc.h **** 		tc_write_clock_source(tc, TC_CLKSEL_DIV64_gc);
 393:./src/asf/xmega/drivers/tc/tc.h **** 	} else if (resolution <= (tc_clk_rate / 8)) {
 394:./src/asf/xmega/drivers/tc/tc.h **** 		tc_write_clock_source(tc, TC_CLKSEL_DIV8_gc);
 395:./src/asf/xmega/drivers/tc/tc.h **** 	} else if (resolution <= (tc_clk_rate / 4)) {
 396:./src/asf/xmega/drivers/tc/tc.h **** 		tc_write_clock_source(tc, TC_CLKSEL_DIV4_gc);
 397:./src/asf/xmega/drivers/tc/tc.h **** 	} else if (resolution <= (tc_clk_rate / 2)) {
 398:./src/asf/xmega/drivers/tc/tc.h **** 		tc_write_clock_source(tc, TC_CLKSEL_DIV2_gc);
 399:./src/asf/xmega/drivers/tc/tc.h **** 	} else {
 400:./src/asf/xmega/drivers/tc/tc.h **** 		tc_write_clock_source(tc, TC_CLKSEL_DIV1_gc);
 401:./src/asf/xmega/drivers/tc/tc.h **** 	}
 402:./src/asf/xmega/drivers/tc/tc.h **** }
 403:./src/asf/xmega/drivers/tc/tc.h **** 
 404:./src/asf/xmega/drivers/tc/tc.h **** /**
 405:./src/asf/xmega/drivers/tc/tc.h ****  * \brief Get real resolution for a specified TC.
 406:./src/asf/xmega/drivers/tc/tc.h ****  *
 407:./src/asf/xmega/drivers/tc/tc.h ****  * This function returns the resolution which the specified clock selection
 408:./src/asf/xmega/drivers/tc/tc.h ****  * of TC will result in. The resolution of a TC is synonymous with its clock
 409:./src/asf/xmega/drivers/tc/tc.h ****  * frequency.
 410:./src/asf/xmega/drivers/tc/tc.h ****  *
 411:./src/asf/xmega/drivers/tc/tc.h ****  * \note This function does not handle event channel clock selections.
 412:./src/asf/xmega/drivers/tc/tc.h ****  *
 413:./src/asf/xmega/drivers/tc/tc.h ****  * \param tc Pointer of TC module to get resolution for.
 414:./src/asf/xmega/drivers/tc/tc.h ****  *
 415:./src/asf/xmega/drivers/tc/tc.h ****  * \return The resolution of \a tc.
 416:./src/asf/xmega/drivers/tc/tc.h ****  */
 417:./src/asf/xmega/drivers/tc/tc.h **** static inline uint32_t tc_get_resolution(void *tc)
 418:./src/asf/xmega/drivers/tc/tc.h **** {
 419:./src/asf/xmega/drivers/tc/tc.h **** 	uint32_t tc_clk_rate = sysclk_get_per_hz();
 420:./src/asf/xmega/drivers/tc/tc.h **** 	switch (tc_read_clock_source(tc)) {
 421:./src/asf/xmega/drivers/tc/tc.h **** 	case TC_CLKSEL_OFF_gc:
 422:./src/asf/xmega/drivers/tc/tc.h **** 		tc_clk_rate = 0;
 423:./src/asf/xmega/drivers/tc/tc.h **** 		break;
 424:./src/asf/xmega/drivers/tc/tc.h **** 
 425:./src/asf/xmega/drivers/tc/tc.h **** 	case TC_CLKSEL_DIV1024_gc:
 426:./src/asf/xmega/drivers/tc/tc.h **** 		tc_clk_rate /= 1024;
 427:./src/asf/xmega/drivers/tc/tc.h **** 		break;
 428:./src/asf/xmega/drivers/tc/tc.h **** 
 429:./src/asf/xmega/drivers/tc/tc.h **** 	case TC_CLKSEL_DIV256_gc:
 430:./src/asf/xmega/drivers/tc/tc.h **** 		tc_clk_rate /= 256;
 431:./src/asf/xmega/drivers/tc/tc.h **** 		break;
 432:./src/asf/xmega/drivers/tc/tc.h **** 
 433:./src/asf/xmega/drivers/tc/tc.h **** 	case TC_CLKSEL_DIV64_gc:
GAS LISTING /tmp/ccwf6aFs.s 			page 45


 434:./src/asf/xmega/drivers/tc/tc.h **** 		tc_clk_rate /= 64;
 435:./src/asf/xmega/drivers/tc/tc.h **** 		break;
 436:./src/asf/xmega/drivers/tc/tc.h **** 
 437:./src/asf/xmega/drivers/tc/tc.h **** 	case TC_CLKSEL_DIV8_gc:
 438:./src/asf/xmega/drivers/tc/tc.h **** 		tc_clk_rate /= 8;
 439:./src/asf/xmega/drivers/tc/tc.h **** 		break;
 440:./src/asf/xmega/drivers/tc/tc.h **** 
 441:./src/asf/xmega/drivers/tc/tc.h **** 	case TC_CLKSEL_DIV4_gc:
 442:./src/asf/xmega/drivers/tc/tc.h **** 		tc_clk_rate /= 4;
 443:./src/asf/xmega/drivers/tc/tc.h **** 		break;
 444:./src/asf/xmega/drivers/tc/tc.h **** 
 445:./src/asf/xmega/drivers/tc/tc.h **** 	case TC_CLKSEL_DIV2_gc:
 446:./src/asf/xmega/drivers/tc/tc.h **** 		tc_clk_rate /= 2;
 447:./src/asf/xmega/drivers/tc/tc.h **** 		break;
 448:./src/asf/xmega/drivers/tc/tc.h **** 
 449:./src/asf/xmega/drivers/tc/tc.h **** 	case TC_CLKSEL_DIV1_gc:
 450:./src/asf/xmega/drivers/tc/tc.h **** 		break;
 451:./src/asf/xmega/drivers/tc/tc.h **** 
 452:./src/asf/xmega/drivers/tc/tc.h **** 	default:
 453:./src/asf/xmega/drivers/tc/tc.h **** 		tc_clk_rate = 0;
 454:./src/asf/xmega/drivers/tc/tc.h **** 		break;
 455:./src/asf/xmega/drivers/tc/tc.h **** 	}
 456:./src/asf/xmega/drivers/tc/tc.h **** 	return (tc_clk_rate);
 457:./src/asf/xmega/drivers/tc/tc.h **** }
 458:./src/asf/xmega/drivers/tc/tc.h **** 
 459:./src/asf/xmega/drivers/tc/tc.h **** /**
 460:./src/asf/xmega/drivers/tc/tc.h ****  * \brief Configure Timer Direction
 461:./src/asf/xmega/drivers/tc/tc.h ****  *
 462:./src/asf/xmega/drivers/tc/tc.h ****  * \param tc Pointer to TC module.
 463:./src/asf/xmega/drivers/tc/tc.h ****  * \param dir Timer direction :
 464:./src/asf/xmega/drivers/tc/tc.h ****  */
 465:./src/asf/xmega/drivers/tc/tc.h **** static inline void tc_set_direction(volatile void *tc, enum tc_dir_t dir)
 466:./src/asf/xmega/drivers/tc/tc.h **** {
 467:./src/asf/xmega/drivers/tc/tc.h **** 	if (dir == TC_UP) {
 468:./src/asf/xmega/drivers/tc/tc.h **** 		((TC0_t *)tc)->CTRLFCLR |= ~TC0_DIR_bm;
 469:./src/asf/xmega/drivers/tc/tc.h **** 	} else {
 470:./src/asf/xmega/drivers/tc/tc.h **** 		((TC0_t *)tc)->CTRLFSET |= TC0_DIR_bm;
 471:./src/asf/xmega/drivers/tc/tc.h **** 	}
 472:./src/asf/xmega/drivers/tc/tc.h **** }
 473:./src/asf/xmega/drivers/tc/tc.h **** 
 474:./src/asf/xmega/drivers/tc/tc.h **** /**
 475:./src/asf/xmega/drivers/tc/tc.h ****  * \brief Write the Counter value of the Timer
 476:./src/asf/xmega/drivers/tc/tc.h ****  *
 477:./src/asf/xmega/drivers/tc/tc.h ****  * \param tc Pointer to TC module.
 478:./src/asf/xmega/drivers/tc/tc.h ****  * \param cnt_value Counter value :
 479:./src/asf/xmega/drivers/tc/tc.h ****  */
 480:./src/asf/xmega/drivers/tc/tc.h **** static inline void tc_write_count(volatile void *tc, uint16_t cnt_value)
 481:./src/asf/xmega/drivers/tc/tc.h **** {
 482:./src/asf/xmega/drivers/tc/tc.h **** 	((TC0_t *)tc)->CNT = cnt_value;
 483:./src/asf/xmega/drivers/tc/tc.h **** }
 484:./src/asf/xmega/drivers/tc/tc.h **** 
 485:./src/asf/xmega/drivers/tc/tc.h **** /**
 486:./src/asf/xmega/drivers/tc/tc.h ****  * \brief Reads the Counter value of the Timer
 487:./src/asf/xmega/drivers/tc/tc.h ****  *
 488:./src/asf/xmega/drivers/tc/tc.h ****  * \param tc Pointer to TC module.
 489:./src/asf/xmega/drivers/tc/tc.h ****  * \note Output the Counter value CNT
 490:./src/asf/xmega/drivers/tc/tc.h ****  */
GAS LISTING /tmp/ccwf6aFs.s 			page 46


 491:./src/asf/xmega/drivers/tc/tc.h **** static inline uint16_t tc_read_count(volatile void *tc)
 492:./src/asf/xmega/drivers/tc/tc.h **** {
 493:./src/asf/xmega/drivers/tc/tc.h **** 	return (((TC0_t *)tc)->CNT);
 494:./src/asf/xmega/drivers/tc/tc.h **** }
 495:./src/asf/xmega/drivers/tc/tc.h **** 
 496:./src/asf/xmega/drivers/tc/tc.h **** /**
 497:./src/asf/xmega/drivers/tc/tc.h ****  * \brief Writes the Period value of the Timer
 498:./src/asf/xmega/drivers/tc/tc.h ****  *
 499:./src/asf/xmega/drivers/tc/tc.h ****  * \param tc Pointer to TC module.
 500:./src/asf/xmega/drivers/tc/tc.h ****  * \param per_value Period value : PER
 501:./src/asf/xmega/drivers/tc/tc.h ****  */
 502:./src/asf/xmega/drivers/tc/tc.h **** static inline void tc_write_period(volatile void *tc, uint16_t per_value)
 503:./src/asf/xmega/drivers/tc/tc.h **** {
 504:./src/asf/xmega/drivers/tc/tc.h **** 	((TC0_t *)tc)->PER = per_value;
 505:./src/asf/xmega/drivers/tc/tc.h **** }
 506:./src/asf/xmega/drivers/tc/tc.h **** 
 507:./src/asf/xmega/drivers/tc/tc.h **** /**
 508:./src/asf/xmega/drivers/tc/tc.h ****  * \brief Reads the Period value of the Timer
 509:./src/asf/xmega/drivers/tc/tc.h ****  *
 510:./src/asf/xmega/drivers/tc/tc.h ****  * \param tc Pointer to TC module.
 511:./src/asf/xmega/drivers/tc/tc.h ****  * \return Period value : PER
 512:./src/asf/xmega/drivers/tc/tc.h ****  */
 513:./src/asf/xmega/drivers/tc/tc.h **** static inline uint16_t tc_read_period(volatile void *tc)
 514:./src/asf/xmega/drivers/tc/tc.h **** {
 515:./src/asf/xmega/drivers/tc/tc.h **** 	return (((TC0_t *)tc)->PER);
 516:./src/asf/xmega/drivers/tc/tc.h **** }
 517:./src/asf/xmega/drivers/tc/tc.h **** 
 518:./src/asf/xmega/drivers/tc/tc.h **** /**
 519:./src/asf/xmega/drivers/tc/tc.h ****  * \brief Writes the Period Buffer value of the Timer
 520:./src/asf/xmega/drivers/tc/tc.h ****  *
 521:./src/asf/xmega/drivers/tc/tc.h ****  * \param tc Pointer to TC module.
 522:./src/asf/xmega/drivers/tc/tc.h ****  * \param per_buf Period Buffer value : PERH/PERL
 523:./src/asf/xmega/drivers/tc/tc.h ****  */
 524:./src/asf/xmega/drivers/tc/tc.h **** static inline void tc_write_period_buffer(volatile void *tc, uint16_t per_buf)
 525:./src/asf/xmega/drivers/tc/tc.h **** {
 526:./src/asf/xmega/drivers/tc/tc.h **** 	((TC0_t *)tc)->PERBUF = per_buf;
 527:./src/asf/xmega/drivers/tc/tc.h **** }
 528:./src/asf/xmega/drivers/tc/tc.h **** 
 529:./src/asf/xmega/drivers/tc/tc.h **** /**
 530:./src/asf/xmega/drivers/tc/tc.h ****  * \brief Reads the Period Buffer value of the Timer
 531:./src/asf/xmega/drivers/tc/tc.h ****  *
 532:./src/asf/xmega/drivers/tc/tc.h ****  * \param tc Pointer to TC module.
 533:./src/asf/xmega/drivers/tc/tc.h ****  * \return Period Buffer value : PERH/PERL
 534:./src/asf/xmega/drivers/tc/tc.h ****  */
 535:./src/asf/xmega/drivers/tc/tc.h **** static inline uint16_t tc_read_period_buffer(volatile void *tc)
 536:./src/asf/xmega/drivers/tc/tc.h **** {
 537:./src/asf/xmega/drivers/tc/tc.h **** 	return (((TC0_t *)tc)->PERBUF);
 538:./src/asf/xmega/drivers/tc/tc.h **** }
 539:./src/asf/xmega/drivers/tc/tc.h **** 
 540:./src/asf/xmega/drivers/tc/tc.h **** /**
 541:./src/asf/xmega/drivers/tc/tc.h ****  * \brief Tests if the Period Buffer is valid
 542:./src/asf/xmega/drivers/tc/tc.h ****  *
 543:./src/asf/xmega/drivers/tc/tc.h ****  * \param tc Pointer to TC module.
 544:./src/asf/xmega/drivers/tc/tc.h ****  * \return  period Buffer is valid or not:PERBV
 545:./src/asf/xmega/drivers/tc/tc.h ****  */
 546:./src/asf/xmega/drivers/tc/tc.h **** static inline bool tc_period_buffer_is_valid(volatile void *tc)
 547:./src/asf/xmega/drivers/tc/tc.h **** {
GAS LISTING /tmp/ccwf6aFs.s 			page 47


 548:./src/asf/xmega/drivers/tc/tc.h **** 	return (((TC0_t *)tc)->CTRLGCLR & TC0_PERBV_bm);
 549:./src/asf/xmega/drivers/tc/tc.h **** }
 550:./src/asf/xmega/drivers/tc/tc.h **** 
 551:./src/asf/xmega/drivers/tc/tc.h **** /**
 552:./src/asf/xmega/drivers/tc/tc.h ****  * \brief Enables delay (used for 32bit timer mode)
 553:./src/asf/xmega/drivers/tc/tc.h ****  *
 554:./src/asf/xmega/drivers/tc/tc.h ****  * \param tc Pointer to TC module.
 555:./src/asf/xmega/drivers/tc/tc.h ****  * \note  enables Delay mode
 556:./src/asf/xmega/drivers/tc/tc.h ****  */
 557:./src/asf/xmega/drivers/tc/tc.h **** static inline void tc_enable_delay(volatile void *tc)
 558:./src/asf/xmega/drivers/tc/tc.h **** {
 559:./src/asf/xmega/drivers/tc/tc.h **** 	((TC0_t *)tc)->CTRLD = (((TC0_t *)tc)->CTRLD &
 560:./src/asf/xmega/drivers/tc/tc.h **** 			~TC0_EVDLY_bm) | (1 << TC0_EVDLY_bp);
 561:./src/asf/xmega/drivers/tc/tc.h **** }
 562:./src/asf/xmega/drivers/tc/tc.h **** 
 563:./src/asf/xmega/drivers/tc/tc.h **** /**
 564:./src/asf/xmega/drivers/tc/tc.h ****  * \brief Disables delay
 565:./src/asf/xmega/drivers/tc/tc.h ****  *
 566:./src/asf/xmega/drivers/tc/tc.h ****  * \param tc Pointer to TC module.
 567:./src/asf/xmega/drivers/tc/tc.h ****  * \note  disables Delay mode
 568:./src/asf/xmega/drivers/tc/tc.h ****  */
 569:./src/asf/xmega/drivers/tc/tc.h **** static inline void tc_disable_delay(volatile void *tc)
 570:./src/asf/xmega/drivers/tc/tc.h **** {
 571:./src/asf/xmega/drivers/tc/tc.h **** 	((TC0_t *)tc)->CTRLD = ((TC0_t *)tc)->CTRLD & ~TC0_EVDLY_bm;
 572:./src/asf/xmega/drivers/tc/tc.h **** }
 573:./src/asf/xmega/drivers/tc/tc.h **** 
 574:./src/asf/xmega/drivers/tc/tc.h **** /**
 575:./src/asf/xmega/drivers/tc/tc.h ****  * \brief Tests if the Overflow flag is set
 576:./src/asf/xmega/drivers/tc/tc.h ****  *
 577:./src/asf/xmega/drivers/tc/tc.h ****  * \param tc Pointer to TC module.
 578:./src/asf/xmega/drivers/tc/tc.h ****  * \return  overflow has occurred or not : OVFIF
 579:./src/asf/xmega/drivers/tc/tc.h ****  */
 580:./src/asf/xmega/drivers/tc/tc.h **** static inline bool tc_is_overflow(volatile void *tc)
 581:./src/asf/xmega/drivers/tc/tc.h **** {
 582:./src/asf/xmega/drivers/tc/tc.h **** 	return (((TC0_t *)tc)->INTFLAGS & TC0_OVFIF_bm);
 583:./src/asf/xmega/drivers/tc/tc.h **** }
 584:./src/asf/xmega/drivers/tc/tc.h **** 
 585:./src/asf/xmega/drivers/tc/tc.h **** /**
 586:./src/asf/xmega/drivers/tc/tc.h ****  * \brief Clears the Overflow flag
 587:./src/asf/xmega/drivers/tc/tc.h ****  *
 588:./src/asf/xmega/drivers/tc/tc.h ****  * \param tc Pointer to TC module.
 589:./src/asf/xmega/drivers/tc/tc.h ****  * \note  OVFIF is cleared
 590:./src/asf/xmega/drivers/tc/tc.h ****  */
 591:./src/asf/xmega/drivers/tc/tc.h **** static inline void tc_clear_overflow(volatile void *tc)
 592:./src/asf/xmega/drivers/tc/tc.h **** {
 593:./src/asf/xmega/drivers/tc/tc.h **** 	((TC0_t *)tc)->INTFLAGS |= TC0_OVFIF_bm;
 594:./src/asf/xmega/drivers/tc/tc.h **** }
 595:./src/asf/xmega/drivers/tc/tc.h **** 
 596:./src/asf/xmega/drivers/tc/tc.h **** /**
 597:./src/asf/xmega/drivers/tc/tc.h ****  * \brief Tests if the Error flag is set
 598:./src/asf/xmega/drivers/tc/tc.h ****  *
 599:./src/asf/xmega/drivers/tc/tc.h ****  * \param tc Pointer to TC module.
 600:./src/asf/xmega/drivers/tc/tc.h ****  * \return  Error has occurred or not : ERRIF
 601:./src/asf/xmega/drivers/tc/tc.h ****  */
 602:./src/asf/xmega/drivers/tc/tc.h **** static inline bool tc_read_error(volatile void *tc)
 603:./src/asf/xmega/drivers/tc/tc.h **** {
 604:./src/asf/xmega/drivers/tc/tc.h **** 	return (((TC0_t *)tc)->INTFLAGS & TC0_ERRIF_bm);
GAS LISTING /tmp/ccwf6aFs.s 			page 48


 605:./src/asf/xmega/drivers/tc/tc.h **** }
 606:./src/asf/xmega/drivers/tc/tc.h **** 
 607:./src/asf/xmega/drivers/tc/tc.h **** /**
 608:./src/asf/xmega/drivers/tc/tc.h ****  * \brief Clears the Error flag
 609:./src/asf/xmega/drivers/tc/tc.h ****  *
 610:./src/asf/xmega/drivers/tc/tc.h ****  * \param tc Pointer to TC module.
 611:./src/asf/xmega/drivers/tc/tc.h ****  * \note  ERRIF is cleared
 612:./src/asf/xmega/drivers/tc/tc.h ****  */
 613:./src/asf/xmega/drivers/tc/tc.h **** static inline void tc_clear_error(volatile void *tc)
 614:./src/asf/xmega/drivers/tc/tc.h **** {
 615:./src/asf/xmega/drivers/tc/tc.h **** 	((TC0_t *)tc)->INTFLAGS |= TC0_ERRIF_bm;
 616:./src/asf/xmega/drivers/tc/tc.h **** }
 617:./src/asf/xmega/drivers/tc/tc.h **** 
 618:./src/asf/xmega/drivers/tc/tc.h **** /**
 619:./src/asf/xmega/drivers/tc/tc.h ****  * \brief Restart the Timer
 620:./src/asf/xmega/drivers/tc/tc.h ****  *
 621:./src/asf/xmega/drivers/tc/tc.h ****  * \param tc Pointer to TC module.
 622:./src/asf/xmega/drivers/tc/tc.h ****  * \note  CMD[3] in CTRLFSET is set to 1 and CMD[2] in CTRLFCLR is set
 623:./src/asf/xmega/drivers/tc/tc.h ****  */
 624:./src/asf/xmega/drivers/tc/tc.h **** static inline void tc_restart(volatile void *tc)
 625:./src/asf/xmega/drivers/tc/tc.h **** {
 626:./src/asf/xmega/drivers/tc/tc.h **** 	((TC0_t *)tc)->CTRLFSET = TC_CMD_RESTART_gc;
 627:./src/asf/xmega/drivers/tc/tc.h **** }
 628:./src/asf/xmega/drivers/tc/tc.h **** 
 629:./src/asf/xmega/drivers/tc/tc.h **** /**
 630:./src/asf/xmega/drivers/tc/tc.h ****  * \brief Reset the Timer
 631:./src/asf/xmega/drivers/tc/tc.h ****  *
 632:./src/asf/xmega/drivers/tc/tc.h ****  * \param tc Pointer to TC module.
 633:./src/asf/xmega/drivers/tc/tc.h ****  * \note  CMD[3:2] in CTRLFSET are set to 1
 634:./src/asf/xmega/drivers/tc/tc.h ****  */
 635:./src/asf/xmega/drivers/tc/tc.h **** static inline void tc_reset(volatile void *tc)
 636:./src/asf/xmega/drivers/tc/tc.h **** {
 637:./src/asf/xmega/drivers/tc/tc.h **** 	((TC0_t *)tc)->CTRLFSET = TC_CMD_RESET_gc;
 638:./src/asf/xmega/drivers/tc/tc.h **** }
 639:./src/asf/xmega/drivers/tc/tc.h **** 
 640:./src/asf/xmega/drivers/tc/tc.h **** /**
 641:./src/asf/xmega/drivers/tc/tc.h ****  * \brief Update the Timer
 642:./src/asf/xmega/drivers/tc/tc.h ****  *
 643:./src/asf/xmega/drivers/tc/tc.h ****  * \param tc Pointer to TC module.
 644:./src/asf/xmega/drivers/tc/tc.h ****  * \note  CMD[2] in CTRLFSET is set to 1 and CMD[3] in CTRLFCLR is set
 645:./src/asf/xmega/drivers/tc/tc.h ****  */
 646:./src/asf/xmega/drivers/tc/tc.h **** static inline void tc_update(volatile void *tc)
 647:./src/asf/xmega/drivers/tc/tc.h **** {
 648:./src/asf/xmega/drivers/tc/tc.h **** 	((TC0_t *)tc)->CTRLFSET = TC_CMD_UPDATE_gc;
 649:./src/asf/xmega/drivers/tc/tc.h **** }
 650:./src/asf/xmega/drivers/tc/tc.h **** 
 651:./src/asf/xmega/drivers/tc/tc.h **** /**
 652:./src/asf/xmega/drivers/tc/tc.h ****  * \brief Configures the Timer in Byte mode
 653:./src/asf/xmega/drivers/tc/tc.h ****  *
 654:./src/asf/xmega/drivers/tc/tc.h ****  * \param tc Pointer to TC module.
 655:./src/asf/xmega/drivers/tc/tc.h ****  * \note Configures  BYTEM in CTRLE
 656:./src/asf/xmega/drivers/tc/tc.h ****  */
 657:./src/asf/xmega/drivers/tc/tc.h **** static inline void tc_set_8bits_mode(volatile void *tc)
 658:./src/asf/xmega/drivers/tc/tc.h **** {
 659:./src/asf/xmega/drivers/tc/tc.h **** #ifdef TC0_BYTEM0_bm
 660:./src/asf/xmega/drivers/tc/tc.h **** 	((TC0_t *)tc)->CTRLE |= TC0_BYTEM0_bm;
 661:./src/asf/xmega/drivers/tc/tc.h **** #else
GAS LISTING /tmp/ccwf6aFs.s 			page 49


 662:./src/asf/xmega/drivers/tc/tc.h **** 	((TC0_t *)tc)->CTRLE |= TC0_BYTEM_bm;
 663:./src/asf/xmega/drivers/tc/tc.h **** #endif
 664:./src/asf/xmega/drivers/tc/tc.h **** }
 665:./src/asf/xmega/drivers/tc/tc.h **** 
 666:./src/asf/xmega/drivers/tc/tc.h **** /**
 667:./src/asf/xmega/drivers/tc/tc.h ****  * \brief Locks the Update of the Buffered registers
 668:./src/asf/xmega/drivers/tc/tc.h ****  *
 669:./src/asf/xmega/drivers/tc/tc.h ****  * \param tc Pointer to TC module.
 670:./src/asf/xmega/drivers/tc/tc.h ****  *
 671:./src/asf/xmega/drivers/tc/tc.h ****  *  */
 672:./src/asf/xmega/drivers/tc/tc.h **** static inline void tc_lock_update_buffers(volatile void *tc)
 673:./src/asf/xmega/drivers/tc/tc.h **** {
 674:./src/asf/xmega/drivers/tc/tc.h **** 	((TC0_t *)tc)->CTRLFSET |= TC0_LUPD_bm;
 675:./src/asf/xmega/drivers/tc/tc.h **** }
 676:./src/asf/xmega/drivers/tc/tc.h **** 
 677:./src/asf/xmega/drivers/tc/tc.h **** /**
 678:./src/asf/xmega/drivers/tc/tc.h ****  * \brief Unlocks the Update of the Buffered registers
 679:./src/asf/xmega/drivers/tc/tc.h ****  *
 680:./src/asf/xmega/drivers/tc/tc.h ****  * \param tc Pointer to TC module.
 681:./src/asf/xmega/drivers/tc/tc.h ****  * \note  Configures LUPD in CTRLFCLR
 682:./src/asf/xmega/drivers/tc/tc.h ****  */
 683:./src/asf/xmega/drivers/tc/tc.h **** static inline void tc_unlock_update_buffers(volatile void *tc)
 684:./src/asf/xmega/drivers/tc/tc.h **** {
 685:./src/asf/xmega/drivers/tc/tc.h **** 	((TC0_t *)tc)->CTRLFCLR |= TC0_LUPD_bm;
 686:./src/asf/xmega/drivers/tc/tc.h **** }
 687:./src/asf/xmega/drivers/tc/tc.h **** 
 688:./src/asf/xmega/drivers/tc/tc.h **** /**
 689:./src/asf/xmega/drivers/tc/tc.h ****  * \brief Enables Compare/Capture channel
 690:./src/asf/xmega/drivers/tc/tc.h ****  *
 691:./src/asf/xmega/drivers/tc/tc.h ****  * \param tc Pointer to TC module.
 692:./src/asf/xmega/drivers/tc/tc.h ****  * \param enablemask CC channel
 693:./src/asf/xmega/drivers/tc/tc.h ****  */
 694:./src/asf/xmega/drivers/tc/tc.h **** static inline void tc_enable_cc_channels(volatile void *tc,
 695:./src/asf/xmega/drivers/tc/tc.h **** 		enum tc_cc_channel_mask_enable_t enablemask)
 696:./src/asf/xmega/drivers/tc/tc.h **** {
 697:./src/asf/xmega/drivers/tc/tc.h **** 	if (tc_is_tc0(void *tc)) {
 698:./src/asf/xmega/drivers/tc/tc.h **** 		((TC0_t *)tc)->CTRLB |= enablemask;
 699:./src/asf/xmega/drivers/tc/tc.h **** 	} else if (tc_is_tc1(void *tc)) {
 700:./src/asf/xmega/drivers/tc/tc.h **** 		((TC1_t *)tc)->CTRLB |=
 701:./src/asf/xmega/drivers/tc/tc.h **** 				enablemask & (TC1_CCAEN_bm | TC1_CCBEN_bm);
 702:./src/asf/xmega/drivers/tc/tc.h **** 	}
 703:./src/asf/xmega/drivers/tc/tc.h **** }
 704:./src/asf/xmega/drivers/tc/tc.h **** 
 705:./src/asf/xmega/drivers/tc/tc.h **** /**
 706:./src/asf/xmega/drivers/tc/tc.h ****  * \brief Disables Compare/Capture channel
 707:./src/asf/xmega/drivers/tc/tc.h ****  *
 708:./src/asf/xmega/drivers/tc/tc.h ****  * \param tc Pointer to TC module.
 709:./src/asf/xmega/drivers/tc/tc.h ****  * \param disablemask CC channel
 710:./src/asf/xmega/drivers/tc/tc.h ****  */
 711:./src/asf/xmega/drivers/tc/tc.h **** static inline void tc_disable_cc_channels(volatile void *tc,
 712:./src/asf/xmega/drivers/tc/tc.h **** 		enum tc_cc_channel_mask_enable_t disablemask)
 713:./src/asf/xmega/drivers/tc/tc.h **** {
 714:./src/asf/xmega/drivers/tc/tc.h **** 	if (tc_is_tc0(void *tc)) {
 715:./src/asf/xmega/drivers/tc/tc.h **** 		((TC0_t *)tc)->CTRLB &= ~disablemask;
 716:./src/asf/xmega/drivers/tc/tc.h **** 	} else if (tc_is_tc1(void *tc)) {
 717:./src/asf/xmega/drivers/tc/tc.h **** 		((TC1_t *)tc)->CTRLB &=
 718:./src/asf/xmega/drivers/tc/tc.h **** 				~(disablemask & TC0_CCAEN_bm & TC0_CCBEN_bm);
GAS LISTING /tmp/ccwf6aFs.s 			page 50


 719:./src/asf/xmega/drivers/tc/tc.h **** 	}
 720:./src/asf/xmega/drivers/tc/tc.h **** }
 721:./src/asf/xmega/drivers/tc/tc.h **** 
 722:./src/asf/xmega/drivers/tc/tc.h **** /**
 723:./src/asf/xmega/drivers/tc/tc.h ****  * \brief Enables Input capture mode
 724:./src/asf/xmega/drivers/tc/tc.h ****  *
 725:./src/asf/xmega/drivers/tc/tc.h ****  * \param tc Pointer to TC module.
 726:./src/asf/xmega/drivers/tc/tc.h ****  * \param eventsource Source for the capture
 727:./src/asf/xmega/drivers/tc/tc.h ****  * \param eventaction Event action capture type
 728:./src/asf/xmega/drivers/tc/tc.h ****  */
 729:./src/asf/xmega/drivers/tc/tc.h **** static inline void tc_set_input_capture(volatile void *tc,
 730:./src/asf/xmega/drivers/tc/tc.h **** 		TC_EVSEL_t eventsource, TC_EVACT_t eventaction)
 731:./src/asf/xmega/drivers/tc/tc.h **** {
 732:./src/asf/xmega/drivers/tc/tc.h **** 	((TC0_t *)tc)->CTRLD &= ~(TC0_EVSEL_gm | TC0_EVACT_gm);
 733:./src/asf/xmega/drivers/tc/tc.h **** 	((TC0_t *)tc)->CTRLD |= ((uint8_t)eventsource | (uint8_t)eventaction);
 734:./src/asf/xmega/drivers/tc/tc.h **** }
 735:./src/asf/xmega/drivers/tc/tc.h **** 
 736:./src/asf/xmega/drivers/tc/tc.h **** /**
 737:./src/asf/xmega/drivers/tc/tc.h ****  * \brief Reads the Capture value
 738:./src/asf/xmega/drivers/tc/tc.h ****  *
 739:./src/asf/xmega/drivers/tc/tc.h ****  * \param tc Pointer to TC module.
 740:./src/asf/xmega/drivers/tc/tc.h ****  * \param channel_index Channel x
 741:./src/asf/xmega/drivers/tc/tc.h ****  * \return  Read value of CCx
 742:./src/asf/xmega/drivers/tc/tc.h ****  */
 743:./src/asf/xmega/drivers/tc/tc.h **** static inline uint16_t tc_read_cc(volatile void *tc,
 744:./src/asf/xmega/drivers/tc/tc.h **** 		enum tc_cc_channel_t channel_index)
 745:./src/asf/xmega/drivers/tc/tc.h **** {
 746:./src/asf/xmega/drivers/tc/tc.h **** 	if (tc_is_tc0(void *tc)) {
 747:./src/asf/xmega/drivers/tc/tc.h **** 		switch (channel_index) {
 748:./src/asf/xmega/drivers/tc/tc.h **** 		case TC_CCA:
 749:./src/asf/xmega/drivers/tc/tc.h **** 			return (((TC0_t *)tc)->CCA);
 750:./src/asf/xmega/drivers/tc/tc.h **** 		case TC_CCB:
 751:./src/asf/xmega/drivers/tc/tc.h **** 			return (((TC0_t *)tc)->CCB);
 752:./src/asf/xmega/drivers/tc/tc.h **** 		case TC_CCC:
 753:./src/asf/xmega/drivers/tc/tc.h **** 			return (((TC0_t *)tc)->CCC);
 754:./src/asf/xmega/drivers/tc/tc.h **** 		case TC_CCD:
 755:./src/asf/xmega/drivers/tc/tc.h **** 			return (((TC0_t *)tc)->CCD);
 756:./src/asf/xmega/drivers/tc/tc.h **** 		}
 757:./src/asf/xmega/drivers/tc/tc.h **** 	} else if (tc_is_tc1(void *tc)) {
 758:./src/asf/xmega/drivers/tc/tc.h **** 			switch (channel_index) {
 759:./src/asf/xmega/drivers/tc/tc.h **** 			case TC_CCA:
 760:./src/asf/xmega/drivers/tc/tc.h **** 				return (((TC1_t *)tc)->CCA);
 761:./src/asf/xmega/drivers/tc/tc.h **** 			case TC_CCB:
 762:./src/asf/xmega/drivers/tc/tc.h **** 				return (((TC1_t *)tc)->CCB);
 763:./src/asf/xmega/drivers/tc/tc.h **** 			default:
 764:./src/asf/xmega/drivers/tc/tc.h **** 				return (0);
 765:./src/asf/xmega/drivers/tc/tc.h **** 			}
 766:./src/asf/xmega/drivers/tc/tc.h **** 		}
 767:./src/asf/xmega/drivers/tc/tc.h **** 	return (0);
 768:./src/asf/xmega/drivers/tc/tc.h **** }
 769:./src/asf/xmega/drivers/tc/tc.h **** 
 770:./src/asf/xmega/drivers/tc/tc.h **** /**
 771:./src/asf/xmega/drivers/tc/tc.h ****  * \brief Writes the CC value
 772:./src/asf/xmega/drivers/tc/tc.h ****  *
 773:./src/asf/xmega/drivers/tc/tc.h ****  * \param tc Pointer to TC module.
 774:./src/asf/xmega/drivers/tc/tc.h ****  * \param channel_index CC Channel
 775:./src/asf/xmega/drivers/tc/tc.h ****  * \param value Counter value
GAS LISTING /tmp/ccwf6aFs.s 			page 51


 776:./src/asf/xmega/drivers/tc/tc.h ****  */
 777:./src/asf/xmega/drivers/tc/tc.h **** static inline void tc_write_cc(volatile void *tc,
 778:./src/asf/xmega/drivers/tc/tc.h **** 		enum tc_cc_channel_t channel_index, uint16_t value)
 779:./src/asf/xmega/drivers/tc/tc.h **** {
 780:./src/asf/xmega/drivers/tc/tc.h **** 	if (tc_is_tc0(void *tc)) {
 781:./src/asf/xmega/drivers/tc/tc.h **** 		switch (channel_index) {
 782:./src/asf/xmega/drivers/tc/tc.h **** 		case TC_CCA:
 783:./src/asf/xmega/drivers/tc/tc.h **** 			((TC0_t *)tc)->CCA = value;
 784:./src/asf/xmega/drivers/tc/tc.h **** 			break;
 785:./src/asf/xmega/drivers/tc/tc.h **** 		case TC_CCB:
 786:./src/asf/xmega/drivers/tc/tc.h **** 			((TC0_t *)tc)->CCB = value;
 787:./src/asf/xmega/drivers/tc/tc.h **** 			break;
 788:./src/asf/xmega/drivers/tc/tc.h **** 		case TC_CCC:
 789:./src/asf/xmega/drivers/tc/tc.h **** 			((TC0_t *)tc)->CCC = value;
 790:./src/asf/xmega/drivers/tc/tc.h **** 			break;
 791:./src/asf/xmega/drivers/tc/tc.h **** 		case TC_CCD:
 792:./src/asf/xmega/drivers/tc/tc.h **** 			((TC0_t *)tc)->CCD = value;
 793:./src/asf/xmega/drivers/tc/tc.h **** 			break;
 794:./src/asf/xmega/drivers/tc/tc.h **** 		}
 795:./src/asf/xmega/drivers/tc/tc.h **** 	} else if (tc_is_tc1(void *tc)) {
 796:./src/asf/xmega/drivers/tc/tc.h **** 			switch (channel_index) {
 797:./src/asf/xmega/drivers/tc/tc.h **** 			case TC_CCA:
 798:./src/asf/xmega/drivers/tc/tc.h **** 				((TC1_t *)tc)->CCA = value;
 799:./src/asf/xmega/drivers/tc/tc.h **** 				break;
 800:./src/asf/xmega/drivers/tc/tc.h **** 			case TC_CCB:
 801:./src/asf/xmega/drivers/tc/tc.h **** 				((TC1_t *)tc)->CCB = value;
 802:./src/asf/xmega/drivers/tc/tc.h **** 				break;
 803:./src/asf/xmega/drivers/tc/tc.h **** 			default:
 804:./src/asf/xmega/drivers/tc/tc.h **** 				return ;
 805:./src/asf/xmega/drivers/tc/tc.h **** 			}
 806:./src/asf/xmega/drivers/tc/tc.h **** 		}
 807:./src/asf/xmega/drivers/tc/tc.h **** }
 808:./src/asf/xmega/drivers/tc/tc.h **** 
 809:./src/asf/xmega/drivers/tc/tc.h **** /**
 810:./src/asf/xmega/drivers/tc/tc.h ****  * \brief Writes the Capture/Compare Buffer value
 811:./src/asf/xmega/drivers/tc/tc.h ****  *
 812:./src/asf/xmega/drivers/tc/tc.h ****  * \param tc Pointer to TC module.
 813:./src/asf/xmega/drivers/tc/tc.h ****  * \param channel_index CC Channel
 814:./src/asf/xmega/drivers/tc/tc.h ****  * \param buffer_value Counter Buffer value
 815:./src/asf/xmega/drivers/tc/tc.h ****  */
 816:./src/asf/xmega/drivers/tc/tc.h **** static inline void tc_write_cc_buffer(volatile void *tc,
 817:./src/asf/xmega/drivers/tc/tc.h **** 		enum tc_cc_channel_t channel_index, uint16_t buffer_value)
 818:./src/asf/xmega/drivers/tc/tc.h **** {
 819:./src/asf/xmega/drivers/tc/tc.h **** 	if (tc_is_tc0(void *tc)) {
 820:./src/asf/xmega/drivers/tc/tc.h **** 		switch (channel_index) {
 821:./src/asf/xmega/drivers/tc/tc.h **** 		case TC_CCA:
 822:./src/asf/xmega/drivers/tc/tc.h **** 			((TC0_t *)tc)->CCABUF = buffer_value;
 823:./src/asf/xmega/drivers/tc/tc.h **** 			break;
 824:./src/asf/xmega/drivers/tc/tc.h **** 		case TC_CCB:
 825:./src/asf/xmega/drivers/tc/tc.h **** 			((TC0_t *)tc)->CCBBUF = buffer_value;
 826:./src/asf/xmega/drivers/tc/tc.h **** 			break;
 827:./src/asf/xmega/drivers/tc/tc.h **** 		case TC_CCC:
 828:./src/asf/xmega/drivers/tc/tc.h **** 			((TC0_t *)tc)->CCCBUF = buffer_value;
 829:./src/asf/xmega/drivers/tc/tc.h **** 			break;
 830:./src/asf/xmega/drivers/tc/tc.h **** 		case TC_CCD:
 831:./src/asf/xmega/drivers/tc/tc.h **** 			((TC0_t *)tc)->CCDBUF = buffer_value;
 832:./src/asf/xmega/drivers/tc/tc.h **** 			break;
GAS LISTING /tmp/ccwf6aFs.s 			page 52


 833:./src/asf/xmega/drivers/tc/tc.h **** 		}
 834:./src/asf/xmega/drivers/tc/tc.h **** 	} else if (tc_is_tc1(void *tc)) {
 835:./src/asf/xmega/drivers/tc/tc.h **** 			switch (channel_index) {
 836:./src/asf/xmega/drivers/tc/tc.h **** 			case TC_CCA:
 837:./src/asf/xmega/drivers/tc/tc.h **** 				((TC1_t *)tc)->CCABUF = buffer_value;
 838:./src/asf/xmega/drivers/tc/tc.h **** 				break;
 839:./src/asf/xmega/drivers/tc/tc.h **** 			case TC_CCB:
 840:./src/asf/xmega/drivers/tc/tc.h **** 				((TC1_t *)tc)->CCBBUF = buffer_value;
 841:./src/asf/xmega/drivers/tc/tc.h **** 				break;
 842:./src/asf/xmega/drivers/tc/tc.h **** 			default:
 843:./src/asf/xmega/drivers/tc/tc.h **** 				return;
 844:./src/asf/xmega/drivers/tc/tc.h **** 			}
 845:./src/asf/xmega/drivers/tc/tc.h **** 		}
 846:./src/asf/xmega/drivers/tc/tc.h **** }
 847:./src/asf/xmega/drivers/tc/tc.h **** 
 848:./src/asf/xmega/drivers/tc/tc.h **** /**
 849:./src/asf/xmega/drivers/tc/tc.h ****  * \brief Reads the Capture/Compare Buffer value
 850:./src/asf/xmega/drivers/tc/tc.h ****  *
 851:./src/asf/xmega/drivers/tc/tc.h ****  * \param tc Pointer to TC module.
 852:./src/asf/xmega/drivers/tc/tc.h ****  * \param channel_index CC Channel
 853:./src/asf/xmega/drivers/tc/tc.h ****  * \return  CCx Buffer value
 854:./src/asf/xmega/drivers/tc/tc.h ****  */
 855:./src/asf/xmega/drivers/tc/tc.h **** static inline uint16_t tc_read_cc_buffer(volatile void *tc,
 856:./src/asf/xmega/drivers/tc/tc.h **** 		enum tc_cc_channel_t channel_index)
 857:./src/asf/xmega/drivers/tc/tc.h **** {
 858:./src/asf/xmega/drivers/tc/tc.h **** 	if (tc_is_tc0(void *tc)) {
 859:./src/asf/xmega/drivers/tc/tc.h **** 		switch (channel_index) {
 860:./src/asf/xmega/drivers/tc/tc.h **** 		case TC_CCA:
 861:./src/asf/xmega/drivers/tc/tc.h **** 			return (((TC0_t *)tc)->CCABUF);
 862:./src/asf/xmega/drivers/tc/tc.h **** 		case TC_CCB:
 863:./src/asf/xmega/drivers/tc/tc.h **** 			return (((TC0_t *)tc)->CCBBUF);
 864:./src/asf/xmega/drivers/tc/tc.h **** 		case TC_CCC:
 865:./src/asf/xmega/drivers/tc/tc.h **** 			return (((TC0_t *)tc)->CCCBUF);
 866:./src/asf/xmega/drivers/tc/tc.h **** 		case TC_CCD:
 867:./src/asf/xmega/drivers/tc/tc.h **** 			return (((TC0_t *)tc)->CCDBUF);
 868:./src/asf/xmega/drivers/tc/tc.h **** 		}
 869:./src/asf/xmega/drivers/tc/tc.h **** 	} else if (tc_is_tc1(void *tc)) {
 870:./src/asf/xmega/drivers/tc/tc.h **** 			switch (channel_index) {
 871:./src/asf/xmega/drivers/tc/tc.h **** 			case TC_CCA:
 872:./src/asf/xmega/drivers/tc/tc.h **** 				return (((TC1_t *)tc)->CCABUF);
 873:./src/asf/xmega/drivers/tc/tc.h **** 			case TC_CCB:
 874:./src/asf/xmega/drivers/tc/tc.h **** 				return (((TC1_t *)tc)->CCBBUF);
 875:./src/asf/xmega/drivers/tc/tc.h **** 			default:
 876:./src/asf/xmega/drivers/tc/tc.h **** 				return (0);
 877:./src/asf/xmega/drivers/tc/tc.h **** 			}
 878:./src/asf/xmega/drivers/tc/tc.h **** 		}
 879:./src/asf/xmega/drivers/tc/tc.h **** 	return (0);
 880:./src/asf/xmega/drivers/tc/tc.h **** }
 881:./src/asf/xmega/drivers/tc/tc.h **** 
 882:./src/asf/xmega/drivers/tc/tc.h **** /**
 883:./src/asf/xmega/drivers/tc/tc.h ****  * \brief Reports is Capture/Compare Buffer is valid
 884:./src/asf/xmega/drivers/tc/tc.h ****  *
 885:./src/asf/xmega/drivers/tc/tc.h ****  * \param tc Pointer to TC module.
 886:./src/asf/xmega/drivers/tc/tc.h ****  * \param channel_index CC Channel
 887:./src/asf/xmega/drivers/tc/tc.h ****  * \return  CCx Buffer is valid or not
 888:./src/asf/xmega/drivers/tc/tc.h ****  */
 889:./src/asf/xmega/drivers/tc/tc.h **** static inline bool tc_cc_buffer_is_valid(volatile void *tc,
GAS LISTING /tmp/ccwf6aFs.s 			page 53


 890:./src/asf/xmega/drivers/tc/tc.h **** 		enum tc_cc_channel_t channel_index)
 891:./src/asf/xmega/drivers/tc/tc.h **** {
 892:./src/asf/xmega/drivers/tc/tc.h **** 	if (tc_is_tc0(void *tc)) {
 893:./src/asf/xmega/drivers/tc/tc.h **** 		switch (channel_index) {
 894:./src/asf/xmega/drivers/tc/tc.h **** 		case TC_CCA:
 895:./src/asf/xmega/drivers/tc/tc.h **** 			return ((TC0_t *)tc)->CTRLGCLR & TC0_CCABV_bm;
 896:./src/asf/xmega/drivers/tc/tc.h **** 		case TC_CCB:
 897:./src/asf/xmega/drivers/tc/tc.h **** 			return ((TC0_t *)tc)->CTRLGCLR & TC0_CCBBV_bm;
 898:./src/asf/xmega/drivers/tc/tc.h **** 		case TC_CCC:
 899:./src/asf/xmega/drivers/tc/tc.h **** 			return ((TC0_t *)tc)->CTRLGCLR & TC0_CCCBV_bm;
 900:./src/asf/xmega/drivers/tc/tc.h **** 		case TC_CCD:
 901:./src/asf/xmega/drivers/tc/tc.h **** 			return ((TC0_t *)tc)->CTRLGCLR & TC0_CCDBV_bm;
 902:./src/asf/xmega/drivers/tc/tc.h **** 		}
 903:./src/asf/xmega/drivers/tc/tc.h **** 	} else if (tc_is_tc1(void *tc)) {
 904:./src/asf/xmega/drivers/tc/tc.h **** 			switch (channel_index) {
 905:./src/asf/xmega/drivers/tc/tc.h **** 			case TC_CCA:
 906:./src/asf/xmega/drivers/tc/tc.h **** 				return (((TC1_t *)tc)->CTRLGCLR &
 907:./src/asf/xmega/drivers/tc/tc.h **** 						TC1_CCABV_bm);
 908:./src/asf/xmega/drivers/tc/tc.h **** 			case TC_CCB:
 909:./src/asf/xmega/drivers/tc/tc.h **** 				return (((TC1_t *)tc)->CTRLGCLR &
 910:./src/asf/xmega/drivers/tc/tc.h **** 						TC1_CCBBV_bm);
 911:./src/asf/xmega/drivers/tc/tc.h **** 			default:
 912:./src/asf/xmega/drivers/tc/tc.h **** 				return (0);
 913:./src/asf/xmega/drivers/tc/tc.h **** 			}
 914:./src/asf/xmega/drivers/tc/tc.h **** 		}
 915:./src/asf/xmega/drivers/tc/tc.h **** 	return (0);
 916:./src/asf/xmega/drivers/tc/tc.h **** }
 917:./src/asf/xmega/drivers/tc/tc.h **** 
 918:./src/asf/xmega/drivers/tc/tc.h **** /**
 919:./src/asf/xmega/drivers/tc/tc.h ****  * \brief Reports if Capture/Compare interrupt has occurred
 920:./src/asf/xmega/drivers/tc/tc.h ****  *
 921:./src/asf/xmega/drivers/tc/tc.h ****  * \param tc Pointer to TC module.
 922:./src/asf/xmega/drivers/tc/tc.h ****  * \param channel_index CC Channel
 923:./src/asf/xmega/drivers/tc/tc.h ****  * \return  CCx Interrupt or not
 924:./src/asf/xmega/drivers/tc/tc.h ****  */
 925:./src/asf/xmega/drivers/tc/tc.h **** static inline bool tc_is_cc_interrupt(volatile void *tc,
 926:./src/asf/xmega/drivers/tc/tc.h **** 		enum tc_cc_channel_t channel_index)
 927:./src/asf/xmega/drivers/tc/tc.h **** {
 928:./src/asf/xmega/drivers/tc/tc.h **** 	if (tc_is_tc0(void *tc)) {
 929:./src/asf/xmega/drivers/tc/tc.h **** 		switch (channel_index) {
 930:./src/asf/xmega/drivers/tc/tc.h **** 		case TC_CCA:
 931:./src/asf/xmega/drivers/tc/tc.h **** 			return (((TC0_t *)tc)->INTFLAGS & TC0_CCAIF_bm);
 932:./src/asf/xmega/drivers/tc/tc.h **** 		case TC_CCB:
 933:./src/asf/xmega/drivers/tc/tc.h **** 			return (((TC0_t *)tc)->INTFLAGS & TC0_CCBIF_bm);
 934:./src/asf/xmega/drivers/tc/tc.h **** 		case TC_CCC:
 935:./src/asf/xmega/drivers/tc/tc.h **** 			return (((TC0_t *)tc)->INTFLAGS & TC0_CCCIF_bm);
 936:./src/asf/xmega/drivers/tc/tc.h **** 		case TC_CCD:
 937:./src/asf/xmega/drivers/tc/tc.h **** 			return (((TC0_t *)tc)->INTFLAGS & TC0_CCDIF_bm);
 938:./src/asf/xmega/drivers/tc/tc.h **** 		}
 939:./src/asf/xmega/drivers/tc/tc.h **** 	} else if (tc_is_tc1(void *tc)) {
 940:./src/asf/xmega/drivers/tc/tc.h **** 			switch (channel_index) {
 941:./src/asf/xmega/drivers/tc/tc.h **** 			case TC_CCA:
 942:./src/asf/xmega/drivers/tc/tc.h **** 				return (((TC1_t *)tc)->INTFLAGS &
 943:./src/asf/xmega/drivers/tc/tc.h **** 						TC1_CCAIF_bm);
 944:./src/asf/xmega/drivers/tc/tc.h **** 			case TC_CCB:
 945:./src/asf/xmega/drivers/tc/tc.h **** 				return (((TC1_t *)tc)->INTFLAGS &
 946:./src/asf/xmega/drivers/tc/tc.h **** 						TC1_CCBIF_bm);
GAS LISTING /tmp/ccwf6aFs.s 			page 54


 947:./src/asf/xmega/drivers/tc/tc.h **** 			default:
 948:./src/asf/xmega/drivers/tc/tc.h **** 				return (0);
 949:./src/asf/xmega/drivers/tc/tc.h **** 			}
 950:./src/asf/xmega/drivers/tc/tc.h **** 		}
 951:./src/asf/xmega/drivers/tc/tc.h **** 	return (0);
 952:./src/asf/xmega/drivers/tc/tc.h **** }
 953:./src/asf/xmega/drivers/tc/tc.h **** 
 954:./src/asf/xmega/drivers/tc/tc.h **** /**
 955:./src/asf/xmega/drivers/tc/tc.h ****  * \brief Clears Capture/Compare interrupt
 956:./src/asf/xmega/drivers/tc/tc.h ****  *
 957:./src/asf/xmega/drivers/tc/tc.h ****  * \param tc Pointer to TC module.
 958:./src/asf/xmega/drivers/tc/tc.h ****  * \param channel_index CC Channel
 959:./src/asf/xmega/drivers/tc/tc.h ****  */
 960:./src/asf/xmega/drivers/tc/tc.h **** static inline void tc_clear_cc_interrupt(volatile void *tc,
 961:./src/asf/xmega/drivers/tc/tc.h **** 		enum tc_cc_channel_t channel_index)
 962:./src/asf/xmega/drivers/tc/tc.h **** {
 963:./src/asf/xmega/drivers/tc/tc.h **** 	if (tc_is_tc0(void *tc)) {
 964:./src/asf/xmega/drivers/tc/tc.h **** 		switch (channel_index) {
 965:./src/asf/xmega/drivers/tc/tc.h **** 		case TC_CCA:
 966:./src/asf/xmega/drivers/tc/tc.h **** 			((TC0_t *)tc)->INTFLAGS = TC0_CCAIF_bm;
 967:./src/asf/xmega/drivers/tc/tc.h **** 			break;
 968:./src/asf/xmega/drivers/tc/tc.h **** 		case TC_CCB:
 969:./src/asf/xmega/drivers/tc/tc.h **** 			((TC0_t *)tc)->INTFLAGS = TC0_CCBIF_bm;
 970:./src/asf/xmega/drivers/tc/tc.h **** 			break;
 971:./src/asf/xmega/drivers/tc/tc.h **** 		case TC_CCC:
 972:./src/asf/xmega/drivers/tc/tc.h **** 			((TC0_t *)tc)->INTFLAGS = TC0_CCCIF_bm;
 973:./src/asf/xmega/drivers/tc/tc.h **** 			break;
 974:./src/asf/xmega/drivers/tc/tc.h **** 		case TC_CCD:
 975:./src/asf/xmega/drivers/tc/tc.h **** 			((TC0_t *)tc)->INTFLAGS = TC0_CCDIF_bm;
 976:./src/asf/xmega/drivers/tc/tc.h **** 			break;
 977:./src/asf/xmega/drivers/tc/tc.h **** 		}
 978:./src/asf/xmega/drivers/tc/tc.h **** 	} else if (tc_is_tc1(void *tc)) {
 979:./src/asf/xmega/drivers/tc/tc.h **** 			switch (channel_index) {
 980:./src/asf/xmega/drivers/tc/tc.h **** 			case TC_CCA:
 981:./src/asf/xmega/drivers/tc/tc.h **** 				((TC1_t *)tc)->INTFLAGS = TC1_CCAIF_bm;
 982:./src/asf/xmega/drivers/tc/tc.h **** 				break;
 983:./src/asf/xmega/drivers/tc/tc.h **** 			case TC_CCB:
 984:./src/asf/xmega/drivers/tc/tc.h **** 				((TC1_t *)tc)->INTFLAGS = TC1_CCBIF_bm;
 985:./src/asf/xmega/drivers/tc/tc.h **** 				break;
 986:./src/asf/xmega/drivers/tc/tc.h **** 			default:
 987:./src/asf/xmega/drivers/tc/tc.h **** 				return;
 988:./src/asf/xmega/drivers/tc/tc.h **** 			}
 989:./src/asf/xmega/drivers/tc/tc.h **** 		}
 990:./src/asf/xmega/drivers/tc/tc.h **** }
 991:./src/asf/xmega/drivers/tc/tc.h **** 
 992:./src/asf/xmega/drivers/tc/tc.h **** /**
 993:./src/asf/xmega/drivers/tc/tc.h ****  * \brief Configures TC in the specified Waveform generator mode
 994:./src/asf/xmega/drivers/tc/tc.h ****  *
 995:./src/asf/xmega/drivers/tc/tc.h ****  * \param tc Pointer to TC module.
 996:./src/asf/xmega/drivers/tc/tc.h ****  * \param wgm : waveform generator
 997:./src/asf/xmega/drivers/tc/tc.h ****  */
 998:./src/asf/xmega/drivers/tc/tc.h **** static inline void tc_set_wgm(volatile void *tc, enum tc_wg_mode_t wgm)
 999:./src/asf/xmega/drivers/tc/tc.h **** {
1000:./src/asf/xmega/drivers/tc/tc.h **** 	((TC0_t *)tc)->CTRLB = (((TC0_t *)tc)->CTRLB & ~TC0_WGMODE_gm) | wgm;
 787               		.loc 9 1000 0
 788 036c E0E0      		ldi r30,lo8(2048)
 789 036e F8E0      		ldi r31,hi8(2048)
GAS LISTING /tmp/ccwf6aFs.s 			page 55


 790 0370 8181      		ldd r24,Z+1
 791 0372 887F      		andi r24,lo8(-8)
 792 0374 8183      		std Z+1,r24
 793               	.LVL23:
 794               	.LBE187:
 795               	.LBE186:
 796               	.LBB188:
 797               	.LBB189:
 504:./src/asf/xmega/drivers/tc/tc.h **** 	((TC0_t *)tc)->PER = per_value;
 798               		.loc 9 504 0
 799 0376 83E2      		ldi r24,lo8(2083)
 800 0378 98E0      		ldi r25,hi8(2083)
 801 037a 86A3      		std Z+38,r24
 802 037c 97A3      		std Z+39,r25
 803               	.LVL24:
 804               	.LBE189:
 805               	.LBE188:
 806               	.LBB190:
 807               	.LBB191:
 355:./src/asf/xmega/drivers/tc/tc.h **** 			(((TC0_t *)tc)->CTRLA & ~TC0_CLKSEL_gm) |
 808               		.loc 9 355 0
 809 037e 8081      		ld r24,Z
 354:./src/asf/xmega/drivers/tc/tc.h **** 	((TC0_t *)tc)->CTRLA =
 810               		.loc 9 354 0
 811 0380 807F      		andi r24,lo8(-16)
 812 0382 8560      		ori r24,lo8(5)
 813 0384 8083      		st Z,r24
 814               	.LVL25:
 815               	.LBE191:
 816               	.LBE190:
 817               	.LBB192:
 818               	.LBB193:
 262:./src/asf/xmega/drivers/tc/tc.h **** 	((TC0_t *)tc)->INTCTRLA = ((TC0_t *)tc)->INTCTRLA & ~TC0_OVFINTLVL_gm;
 819               		.loc 9 262 0
 820 0386 8681      		ldd r24,Z+6
 821 0388 8C7F      		andi r24,lo8(-4)
 822 038a 8683      		std Z+6,r24
 264:./src/asf/xmega/drivers/tc/tc.h **** 			((TC0_t *)tc)->INTCTRLA | (level << TC0_OVFINTLVL_gp);
 823               		.loc 9 264 0
 824 038c 8681      		ldd r24,Z+6
 263:./src/asf/xmega/drivers/tc/tc.h **** 	((TC0_t *)tc)->INTCTRLA =
 825               		.loc 9 263 0
 826 038e 8360      		ori r24,lo8(3)
 827 0390 8683      		std Z+6,r24
 828               	.LBE193:
 829               	.LBE192:
 160:src/main.c    **** 	tc_set_wgm(&TCC0, TC_WG_NORMAL);
 161:src/main.c    **** 	tc_write_period(&TCC0, 2083);	// about 60 fps
 162:src/main.c    **** 	tc_write_clock_source(&TCC0, TC_CLKSEL_DIV64_gc);	// 125 khz
 163:src/main.c    **** 	tc_set_overflow_interrupt_level(&TCC0, TC_INT_LVL_HI);
 164:src/main.c    **** 	
 165:src/main.c    **** 	
 166:src/main.c    **** 	// Low-frequency timer
 167:src/main.c    **** 	tc_enable(&TCC1);
 830               		.loc 1 167 0
 831 0392 80E4      		ldi r24,lo8(2112)
 832 0394 98E0      		ldi r25,hi8(2112)
GAS LISTING /tmp/ccwf6aFs.s 			page 56


 833 0396 0E94 0000 		call tc_enable
 168:src/main.c    **** 	tc_set_overflow_interrupt_callback(&TCC1, tick_isr);
 834               		.loc 1 168 0
 835 039a 80E4      		ldi r24,lo8(2112)
 836 039c 98E0      		ldi r25,hi8(2112)
 837 039e 60E0      		ldi r22,lo8(gs(tick_isr))
 838 03a0 70E0      		ldi r23,hi8(gs(tick_isr))
 839 03a2 0E94 0000 		call tc_set_overflow_interrupt_callback
 840               	.LVL26:
 841               	.LBB194:
 842               	.LBB195:
 843               		.loc 9 1000 0
 844 03a6 E0E4      		ldi r30,lo8(2112)
 845 03a8 F8E0      		ldi r31,hi8(2112)
 846 03aa 8181      		ldd r24,Z+1
 847 03ac 887F      		andi r24,lo8(-8)
 848 03ae 8183      		std Z+1,r24
 849               	.LVL27:
 850               	.LBE195:
 851               	.LBE194:
 852               	.LBB196:
 853               	.LBB197:
 504:./src/asf/xmega/drivers/tc/tc.h **** 	((TC0_t *)tc)->PER = per_value;
 854               		.loc 9 504 0
 855 03b0 8FEF      		ldi r24,lo8(-1)
 856 03b2 9FEF      		ldi r25,hi8(-1)
 857 03b4 86A3      		std Z+38,r24
 858 03b6 97A3      		std Z+39,r25
 859               	.LVL28:
 860               	.LBE197:
 861               	.LBE196:
 862               	.LBB198:
 863               	.LBB199:
 355:./src/asf/xmega/drivers/tc/tc.h **** 			(((TC0_t *)tc)->CTRLA & ~TC0_CLKSEL_gm) |
 864               		.loc 9 355 0
 865 03b8 8081      		ld r24,Z
 354:./src/asf/xmega/drivers/tc/tc.h **** 	((TC0_t *)tc)->CTRLA =
 866               		.loc 9 354 0
 867 03ba 807F      		andi r24,lo8(-16)
 868 03bc 8660      		ori r24,lo8(6)
 869 03be 8083      		st Z,r24
 870               	.LVL29:
 871               	.LBE199:
 872               	.LBE198:
 873               	.LBB200:
 874               	.LBB201:
 262:./src/asf/xmega/drivers/tc/tc.h **** 	((TC0_t *)tc)->INTCTRLA = ((TC0_t *)tc)->INTCTRLA & ~TC0_OVFINTLVL_gm;
 875               		.loc 9 262 0
 876 03c0 8681      		ldd r24,Z+6
 877 03c2 8C7F      		andi r24,lo8(-4)
 878 03c4 8683      		std Z+6,r24
 264:./src/asf/xmega/drivers/tc/tc.h **** 			((TC0_t *)tc)->INTCTRLA | (level << TC0_OVFINTLVL_gp);
 879               		.loc 9 264 0
 880 03c6 8681      		ldd r24,Z+6
 263:./src/asf/xmega/drivers/tc/tc.h **** 	((TC0_t *)tc)->INTCTRLA =
 881               		.loc 9 263 0
 882 03c8 8160      		ori r24,lo8(1)
GAS LISTING /tmp/ccwf6aFs.s 			page 57


 883 03ca 8683      		std Z+6,r24
 884               	.LBE201:
 885               	.LBE200:
 169:src/main.c    **** 	tc_set_wgm(&TCC1, TC_WG_NORMAL);
 170:src/main.c    **** 	tc_write_period(&TCC1, 0xFFFF);
 171:src/main.c    **** 	tc_write_clock_source(&TCC1, TC_CLKSEL_DIV256_gc);
 172:src/main.c    **** 	tc_set_overflow_interrupt_level(&TCC1, TC_INT_LVL_LO);
 173:src/main.c    **** 
 174:src/main.c    **** 	
 175:src/main.c    **** 	// run the "Identify" command at startup
 176:src/main.c    **** 	g_usbCommand = IDENTIFY;
 886               		.loc 1 176 0
 887 03cc 84E1      		ldi r24,lo8(20)
 888 03ce 8093 0000 		sts g_usbCommand,r24
 177:src/main.c    **** 	process_command();
 889               		.loc 1 177 0
 890 03d2 0E94 0000 		call process_command
 891               	.LBB202:
 892               	.LBB203:
 893               	.LBB204:
 894               		.loc 3 278 0
 895 03d6 0F2E      		mov __tmp_reg__,r31
 896 03d8 F0E4      		ldi r31,lo8(1600)
 897 03da EF2E      		mov r14,r31
 898 03dc F6E0      		ldi r31,hi8(1600)
 899 03de FF2E      		mov r15,r31
 900 03e0 F02D      		mov r31,__tmp_reg__
 901               	.LBE204:
 902               	.LBE203:
 903               	.LBE202:
 178:src/main.c    **** 	
 179:src/main.c    **** 	while (1) {
 180:src/main.c    **** 		if (!ioport_get_pin_level(SW5)) {	// Test mode
 181:src/main.c    **** 			for (uint16_t i = 0; i < 3 * num_leds; i++) {
 182:src/main.c    **** 				data_buffer[i] = 100;
 183:src/main.c    **** 			}
 184:src/main.c    **** 			dirty = 1;
 904               		.loc 1 184 0
 905 03e2 01E0      		ldi r16,lo8(1)
 906               	.LBB207:
 181:src/main.c    **** 			for (uint16_t i = 0; i < 3 * num_leds; i++) {
 907               		.loc 1 181 0
 908 03e4 0F2E      		mov __tmp_reg__,r31
 909 03e6 F0E0      		ldi r31,lo8(data_buffer)
 910 03e8 CF2E      		mov r12,r31
 911 03ea F0E0      		ldi r31,hi8(data_buffer)
 912 03ec DF2E      		mov r13,r31
 913 03ee F02D      		mov r31,__tmp_reg__
 182:src/main.c    **** 				data_buffer[i] = 100;
 914               		.loc 1 182 0
 915 03f0 14E6      		ldi r17,lo8(100)
 916               	.LVL30:
 917               	.L37:
 918               	.LBE207:
 919               	.LBB208:
 920               	.LBB206:
 921               	.LBB205:
GAS LISTING /tmp/ccwf6aFs.s 			page 58


 922               		.loc 3 278 0
 923 03f2 F701      		movw r30,r14
 924 03f4 8085      		ldd r24,Z+8
 925               	.LVL31:
 926               	.LBE205:
 927               	.LBE206:
 928               	.LBE208:
 180:src/main.c    **** 		if (!ioport_get_pin_level(SW5)) {	// Test mode
 929               		.loc 1 180 0
 930 03f6 81FD      		sbrc r24,1
 931 03f8 00C0      		rjmp .L30
 932               	.LVL32:
 933               	.LBB209:
 181:src/main.c    **** 			for (uint16_t i = 0; i < 3 * num_leds; i++) {
 934               		.loc 1 181 0 discriminator 1
 935 03fa 2091 0000 		lds r18,num_leds
 936 03fe 3091 0000 		lds r19,num_leds+1
 937 0402 C901      		movw r24,r18
 938 0404 880F      		lsl r24
 939 0406 991F      		rol r25
 940 0408 820F      		add r24,r18
 941 040a 931F      		adc r25,r19
 942 040c 0097      		sbiw r24,0
 943 040e 01F0      		breq .L31
 181:src/main.c    **** 			for (uint16_t i = 0; i < 3 * num_leds; i++) {
 944               		.loc 1 181 0 is_stmt 0
 945 0410 F601      		movw r30,r12
 946 0412 20E0      		ldi r18,lo8(0)
 947 0414 30E0      		ldi r19,hi8(0)
 948               	.LVL33:
 949               	.L32:
 182:src/main.c    **** 				data_buffer[i] = 100;
 950               		.loc 1 182 0 is_stmt 1 discriminator 2
 951 0416 1193      		st Z+,r17
 181:src/main.c    **** 			for (uint16_t i = 0; i < 3 * num_leds; i++) {
 952               		.loc 1 181 0 discriminator 2
 953 0418 2F5F      		subi r18,lo8(-(1))
 954 041a 3F4F      		sbci r19,hi8(-(1))
 955               	.LVL34:
 956 041c 2817      		cp r18,r24
 957 041e 3907      		cpc r19,r25
 958 0420 00F0      		brlo .L32
 959               	.LVL35:
 960               	.L31:
 961               	.LBE209:
 962               		.loc 1 184 0
 963 0422 0093 0000 		sts dirty,r16
 964 0426 00C0      		rjmp .L37
 965               	.L30:
 185:src/main.c    **** 		} else {
 186:src/main.c    **** 			
 187:src/main.c    **** 			if (udi_cdc_is_tx_ready()) {
 966               		.loc 1 187 0
 967 0428 0E94 0000 		call udi_cdc_is_tx_ready
 968 042c 8823      		tst r24
 969 042e 01F0      		breq .L37
 188:src/main.c    **** 				process_usb(false);
GAS LISTING /tmp/ccwf6aFs.s 			page 59


 970               		.loc 1 188 0
 971 0430 80E0      		ldi r24,lo8(0)
 972 0432 0E94 0000 		call process_usb
 973 0436 00C0      		rjmp .L37
 974               		.cfi_endproc
 975               	.LFE266:
 976               		.size	main, .-main
 977               	.global	dummy_device
 978               		.data
 979               		.type	dummy_device, @object
 980               		.size	dummy_device, 1
 981               	dummy_device:
 982 0000 01        		.byte	1
 983               	.global	start_bootloader
 984               		.type	start_bootloader, @object
 985               		.size	start_bootloader, 2
 986               	start_bootloader:
 987 0001 FE40      		.word	16638
 988               		.comm COMMAND_TYPE,1,1
 989               		.comm USB_STATE,1,1
 990               		.text
 991               	.Letext0:
 992               		.file 10 "/usr/local/avr8-gnu-toolchain-linux_x86_64/bin/../lib/gcc/avr/4.6.2/../../../../avr/incl
 993               		.file 11 "/usr/local/include/avr/iox32a4u.h"
 994               		.file 12 "./src/asf/common/services/clock/xmega/sysclk.h"
 995               		.file 13 "./src/asf/common/services/ioport/xmega/ioport_compat.h"
 996               		.file 14 "./src/asf/xmega/utils/status_codes.h"
 997               		.file 15 "./src/asf/common/services/spi/xmega_spi/spi_master.h"
 998               		.file 16 "src/usb.h"
 999               		.file 17 "src/commands.h"
 1000               		.file 18 "./src/asf/common/services/ioport/ioport.h"
 1001               		.file 19 "./src/asf/common/services/sleepmgr/xmega/sleepmgr.h"
 1002               		.file 20 "src/globals.h"