GAS LISTING /tmp/ccwf6aFs.s 			page 1


   1               		.file	"main.c"
   2               	__SREG__ = 0x3f
   3               	__SP_H__ = 0x3e
   4               	__SP_L__ = 0x3d
   5               	__CCP__ = 0x34
   6               	__tmp_reg__ = 0
   7               	__zero_reg__ = 1
   8               		.global __do_copy_data
   9               		.global __do_clear_bss
  10               		.text
  11               	.Ltext0:
  12               		.cfi_sections	.debug_frame
  13               		.type	tick_isr, @function
  14               	tick_isr:
  15               	.LFB261:
  16               		.file 1 "src/main.c"
   1:src/main.c    **** /**
   2:src/main.c    ****  * \file
   3:src/main.c    ****  *
   4:src/main.c    ****  * \brief Empty user application template
   5:src/main.c    ****  *
   6:src/main.c    ****  */
   7:src/main.c    **** 
   8:src/main.c    **** /*
   9:src/main.c    ****  * Include header files for all drivers that have been imported from
  10:src/main.c    ****  * Atmel Software Framework (ASF).
  11:src/main.c    ****  */
  12:src/main.c    **** 
  13:src/main.c    **** #include <stdio.h>
  14:src/main.c    **** #include <string.h>
  15:src/main.c    **** #include <asf.h>
  16:src/main.c    **** #include <util/delay.h>
  17:src/main.c    **** 
  18:src/main.c    **** #define GLOBALS_ALLOC
  19:src/main.c    **** #include "globals.h"
  20:src/main.c    **** #undef GLOBALS_ALLOC
  21:src/main.c    **** 
  22:src/main.c    **** #include "pins.h"
  23:src/main.c    **** #include "usb.h"
  24:src/main.c    **** #include "commands.h"
  25:src/main.c    **** 
  26:src/main.c    **** void spi_init_pins(void);
  27:src/main.c    **** void spi_init_module(void);
  28:src/main.c    **** 
  29:src/main.c    **** 
  30:src/main.c    **** //void (*start_bootloader) (void) = (void (*)(void))(BOOT_SECTION_START/2+0x1FC/2);
  31:src/main.c    **** void (*start_bootloader) (void) = (void (*)(void))(0x40FE);
  32:src/main.c    **** 
  33:src/main.c    **** struct spi_device dummy_device = {
  34:src/main.c    **** 	.id = IOPORT_CREATE_PIN(PORTA, 1)
  35:src/main.c    **** };
  36:src/main.c    **** 
  37:src/main.c    **** 
  38:src/main.c    **** static void strand_output_isr(void)
  39:src/main.c    **** {
  40:src/main.c    **** 	if (dirty) {
  41:src/main.c    **** 		dirty = 0;
GAS LISTING /tmp/ccwf6aFs.s 			page 2


  42:src/main.c    **** 		spi_write_packet(&SPIC, data_buffer, (3 * num_leds));
  43:src/main.c    **** 		PORTA.OUTCLR = (1<<6);
  44:src/main.c    **** 	}
  45:src/main.c    **** }
  46:src/main.c    **** 
  47:src/main.c    **** 
  48:src/main.c    **** static void tick_isr(void)
  49:src/main.c    **** {
  17               		.loc 1 49 0
  18               		.cfi_startproc
  19               	/* prologue: function */
  20               	/* frame size = 0 */
  21               	/* stack size = 0 */
  22               	.L__stack_usage = 0
  50:src/main.c    **** 	ticks++;
  23               		.loc 1 50 0
  24 0000 5091 0000 		lds r21,ticks
  25 0004 4091 0000 		lds r20,ticks+1
  26 0008 3091 0000 		lds r19,ticks+2
  27 000c 2091 0000 		lds r18,ticks+3
  28 0010 9091 0000 		lds r25,ticks+4
  29 0014 F091 0000 		lds r31,ticks+5
  30 0018 E091 0000 		lds r30,ticks+6
  31 001c A091 0000 		lds r26,ticks+7
  32 0020 752F      		mov r23,r21
  33 0022 7F5F      		subi r23,lo8(-(1))
  34 0024 61E0      		ldi r22,lo8(1)
  35 0026 7517      		cp r23,r21
  36 0028 00F0      		brlo .L2
  37 002a 60E0      		ldi r22,lo8(0)
  38               	.L2:
  39 002c 842F      		mov r24,r20
  40 002e 50E0      		ldi r21,lo8(0)
  41 0030 640F      		add r22,r20
  42 0032 41E0      		ldi r20,lo8(1)
  43 0034 6817      		cp r22,r24
  44 0036 00F0      		brlo .L4
  45 0038 40E0      		ldi r20,lo8(0)
  46               	.L4:
  47 003a 542B      		or r21,r20
  48 003c 832F      		mov r24,r19
  49 003e 40E0      		ldi r20,lo8(0)
  50 0040 530F      		add r21,r19
  51 0042 31E0      		ldi r19,lo8(1)
  52 0044 5817      		cp r21,r24
  53 0046 00F0      		brlo .L6
  54 0048 30E0      		ldi r19,lo8(0)
  55               	.L6:
  56 004a 432B      		or r20,r19
  57 004c 822F      		mov r24,r18
  58 004e 30E0      		ldi r19,lo8(0)
  59 0050 420F      		add r20,r18
  60 0052 21E0      		ldi r18,lo8(1)
  61 0054 4817      		cp r20,r24
  62 0056 00F0      		brlo .L8
  63 0058 20E0      		ldi r18,lo8(0)
  64               	.L8:
GAS LISTING /tmp/ccwf6aFs.s 			page 3


  65 005a 322B      		or r19,r18
  66 005c 892F      		mov r24,r25
  67 005e 20E0      		ldi r18,lo8(0)
  68 0060 390F      		add r19,r25
  69 0062 91E0      		ldi r25,lo8(1)
  70 0064 3817      		cp r19,r24
  71 0066 00F0      		brlo .L10
  72 0068 90E0      		ldi r25,lo8(0)
  73               	.L10:
  74 006a 292B      		or r18,r25
  75 006c 8F2F      		mov r24,r31
  76 006e 90E0      		ldi r25,lo8(0)
  77 0070 2F0F      		add r18,r31
  78 0072 F1E0      		ldi r31,lo8(1)
  79 0074 2817      		cp r18,r24
  80 0076 00F0      		brlo .L12
  81 0078 F0E0      		ldi r31,lo8(0)
  82               	.L12:
  83 007a 9F2B      		or r25,r31
  84 007c FE2F      		mov r31,r30
  85 007e 80E0      		ldi r24,lo8(0)
  86 0080 9E0F      		add r25,r30
  87 0082 E1E0      		ldi r30,lo8(1)
  88 0084 9F17      		cp r25,r31
  89 0086 00F0      		brlo .L14
  90 0088 E0E0      		ldi r30,lo8(0)
  91               	.L14:
  92 008a 8E2B      		or r24,r30
  93 008c 8A0F      		add r24,r26
  94 008e 7093 0000 		sts ticks,r23
  95 0092 6093 0000 		sts ticks+1,r22
  96 0096 5093 0000 		sts ticks+2,r21
  97 009a 4093 0000 		sts ticks+3,r20
  98 009e 3093 0000 		sts ticks+4,r19
  99 00a2 2093 0000 		sts ticks+5,r18
 100 00a6 9093 0000 		sts ticks+6,r25
 101 00aa 8093 0000 		sts ticks+7,r24
  51:src/main.c    **** 	
  52:src/main.c    **** 	// Refresh the strand periodically even if no new data
  53:src/main.c    **** 	if (g_cmdState == STATE_IDLE) {
 102               		.loc 1 53 0
 103 00ae 8091 0000 		lds r24,g_cmdState
 104 00b2 8823      		tst r24
 105 00b4 01F4      		brne .L1
  54:src/main.c    **** 		PORTA.OUTSET = (1<<6);
 106               		.loc 1 54 0
 107 00b6 E0E0      		ldi r30,lo8(1536)
 108 00b8 F6E0      		ldi r31,hi8(1536)
 109 00ba 80E4      		ldi r24,lo8(64)
 110 00bc 8583      		std Z+5,r24
  55:src/main.c    **** 		PORTA.OUTCLR = (1<<7);
 111               		.loc 1 55 0
 112 00be 80E8      		ldi r24,lo8(-128)
 113 00c0 8683      		std Z+6,r24
  56:src/main.c    **** 		dirty = 1;
 114               		.loc 1 56 0
 115 00c2 81E0      		ldi r24,lo8(1)
GAS LISTING /tmp/ccwf6aFs.s 			page 4


 116 00c4 8093 0000 		sts dirty,r24
 117               	.L1:
 118 00c8 0895      		ret
 119               		.cfi_endproc
 120               	.LFE261:
 121               		.size	tick_isr, .-tick_isr
 122               		.type	strand_output_isr, @function
 123               	strand_output_isr:
 124               	.LFB260:
  39:src/main.c    **** {
 125               		.loc 1 39 0
 126               		.cfi_startproc
 127               	/* prologue: function */
 128               	/* frame size = 0 */
 129               	/* stack size = 0 */
 130               	.L__stack_usage = 0
  40:src/main.c    **** 	if (dirty) {
 131               		.loc 1 40 0
 132 00ca 8091 0000 		lds r24,dirty
 133 00ce 8823      		tst r24
 134 00d0 01F0      		breq .L16
  41:src/main.c    **** 		dirty = 0;
 135               		.loc 1 41 0
 136 00d2 1092 0000 		sts dirty,__zero_reg__
  42:src/main.c    **** 		spi_write_packet(&SPIC, data_buffer, (3 * num_leds));
 137               		.loc 1 42 0
 138 00d6 8091 0000 		lds r24,num_leds
 139 00da 9091 0000 		lds r25,num_leds+1
 140 00de AC01      		movw r20,r24
 141 00e0 440F      		lsl r20
 142 00e2 551F      		rol r21
 143 00e4 480F      		add r20,r24
 144 00e6 591F      		adc r21,r25
 145 00e8 80EC      		ldi r24,lo8(2240)
 146 00ea 98E0      		ldi r25,hi8(2240)
 147 00ec 60E0      		ldi r22,lo8(data_buffer)
 148 00ee 70E0      		ldi r23,hi8(data_buffer)
 149 00f0 0E94 0000 		call spi_write_packet
  43:src/main.c    **** 		PORTA.OUTCLR = (1<<6);
 150               		.loc 1 43 0
 151 00f4 80E4      		ldi r24,lo8(64)
 152 00f6 E0E0      		ldi r30,lo8(1536)
 153 00f8 F6E0      		ldi r31,hi8(1536)
 154 00fa 8683      		std Z+6,r24
 155               	.L16:
 156 00fc 0895      		ret
 157               		.cfi_endproc
 158               	.LFE260:
 159               		.size	strand_output_isr, .-strand_output_isr
 160               		.type	usart_serial_getchar, @function
 161               	usart_serial_getchar:
 162               	.LFB177:
 163               		.file 2 "./src/asf/common/services/serial/xmega_usart/usart_serial.h"
   1:./src/asf/common/services/serial/xmega_usart/usart_serial.h **** /**
   2:./src/asf/common/services/serial/xmega_usart/usart_serial.h ****  * \file
   3:./src/asf/common/services/serial/xmega_usart/usart_serial.h ****  *
   4:./src/asf/common/services/serial/xmega_usart/usart_serial.h ****  * This file defines a useful set of functions for the Serial interface on AVR
GAS LISTING /tmp/ccwf6aFs.s 			page 5


   5:./src/asf/common/services/serial/xmega_usart/usart_serial.h ****  * XMEGA devices.
   6:./src/asf/common/services/serial/xmega_usart/usart_serial.h ****  *
   7:./src/asf/common/services/serial/xmega_usart/usart_serial.h ****  * Copyright (c) 2009-2012 Atmel Corporation. All rights reserved.
   8:./src/asf/common/services/serial/xmega_usart/usart_serial.h ****  *
   9:./src/asf/common/services/serial/xmega_usart/usart_serial.h ****  * \asf_license_start
  10:./src/asf/common/services/serial/xmega_usart/usart_serial.h ****  *
  11:./src/asf/common/services/serial/xmega_usart/usart_serial.h ****  * \page License
  12:./src/asf/common/services/serial/xmega_usart/usart_serial.h ****  *
  13:./src/asf/common/services/serial/xmega_usart/usart_serial.h ****  * Redistribution and use in source and binary forms, with or without
  14:./src/asf/common/services/serial/xmega_usart/usart_serial.h ****  * modification, are permitted provided that the following conditions are met:
  15:./src/asf/common/services/serial/xmega_usart/usart_serial.h ****  *
  16:./src/asf/common/services/serial/xmega_usart/usart_serial.h ****  * 1. Redistributions of source code must retain the above copyright notice,
  17:./src/asf/common/services/serial/xmega_usart/usart_serial.h ****  *    this list of conditions and the following disclaimer.
  18:./src/asf/common/services/serial/xmega_usart/usart_serial.h ****  *
  19:./src/asf/common/services/serial/xmega_usart/usart_serial.h ****  * 2. Redistributions in binary form must reproduce the above copyright notice,
  20:./src/asf/common/services/serial/xmega_usart/usart_serial.h ****  *    this list of conditions and the following disclaimer in the documentation
  21:./src/asf/common/services/serial/xmega_usart/usart_serial.h ****  *    and/or other materials provided with the distribution.
  22:./src/asf/common/services/serial/xmega_usart/usart_serial.h ****  *
  23:./src/asf/common/services/serial/xmega_usart/usart_serial.h ****  * 3. The name of Atmel may not be used to endorse or promote products derived
  24:./src/asf/common/services/serial/xmega_usart/usart_serial.h ****  *    from this software without specific prior written permission.
  25:./src/asf/common/services/serial/xmega_usart/usart_serial.h ****  *
  26:./src/asf/common/services/serial/xmega_usart/usart_serial.h ****  * 4. This software may only be redistributed and used in connection with an
  27:./src/asf/common/services/serial/xmega_usart/usart_serial.h ****  *    Atmel microcontroller product.
  28:./src/asf/common/services/serial/xmega_usart/usart_serial.h ****  *
  29:./src/asf/common/services/serial/xmega_usart/usart_serial.h ****  * THIS SOFTWARE IS PROVIDED BY ATMEL "AS IS" AND ANY EXPRESS OR IMPLIED
  30:./src/asf/common/services/serial/xmega_usart/usart_serial.h ****  * WARRANTIES, INCLUDING, BUT NOT LIMITED TO, THE IMPLIED WARRANTIES OF
  31:./src/asf/common/services/serial/xmega_usart/usart_serial.h ****  * MERCHANTABILITY, FITNESS FOR A PARTICULAR PURPOSE AND NON-INFRINGEMENT ARE
  32:./src/asf/common/services/serial/xmega_usart/usart_serial.h ****  * EXPRESSLY AND SPECIFICALLY DISCLAIMED. IN NO EVENT SHALL ATMEL BE LIABLE FOR
  33:./src/asf/common/services/serial/xmega_usart/usart_serial.h ****  * ANY DIRECT, INDIRECT, INCIDENTAL, SPECIAL, EXEMPLARY, OR CONSEQUENTIAL
  34:./src/asf/common/services/serial/xmega_usart/usart_serial.h ****  * DAMAGES (INCLUDING, BUT NOT LIMITED TO, PROCUREMENT OF SUBSTITUTE GOODS
  35:./src/asf/common/services/serial/xmega_usart/usart_serial.h ****  * OR SERVICES; LOSS OF USE, DATA, OR PROFITS; OR BUSINESS INTERRUPTION)
  36:./src/asf/common/services/serial/xmega_usart/usart_serial.h ****  * HOWEVER CAUSED AND ON ANY THEORY OF LIABILITY, WHETHER IN CONTRACT,
  37:./src/asf/common/services/serial/xmega_usart/usart_serial.h ****  * STRICT LIABILITY, OR TORT (INCLUDING NEGLIGENCE OR OTHERWISE) ARISING IN
  38:./src/asf/common/services/serial/xmega_usart/usart_serial.h ****  * ANY WAY OUT OF THE USE OF THIS SOFTWARE, EVEN IF ADVISED OF THE
  39:./src/asf/common/services/serial/xmega_usart/usart_serial.h ****  * POSSIBILITY OF SUCH DAMAGE.
  40:./src/asf/common/services/serial/xmega_usart/usart_serial.h ****  *
  41:./src/asf/common/services/serial/xmega_usart/usart_serial.h ****  * \asf_license_stop
  42:./src/asf/common/services/serial/xmega_usart/usart_serial.h ****  *
  43:./src/asf/common/services/serial/xmega_usart/usart_serial.h ****  */
  44:./src/asf/common/services/serial/xmega_usart/usart_serial.h **** #ifndef _USART_SERIAL_H_
  45:./src/asf/common/services/serial/xmega_usart/usart_serial.h **** #define _USART_SERIAL_H_
  46:./src/asf/common/services/serial/xmega_usart/usart_serial.h **** 
  47:./src/asf/common/services/serial/xmega_usart/usart_serial.h **** #include "compiler.h"
  48:./src/asf/common/services/serial/xmega_usart/usart_serial.h **** #include "sysclk.h"
  49:./src/asf/common/services/serial/xmega_usart/usart_serial.h **** #include "status_codes.h"
  50:./src/asf/common/services/serial/xmega_usart/usart_serial.h **** #include "usart.h"
  51:./src/asf/common/services/serial/xmega_usart/usart_serial.h **** 
  52:./src/asf/common/services/serial/xmega_usart/usart_serial.h **** /*! \name Serial Management Configuration
  53:./src/asf/common/services/serial/xmega_usart/usart_serial.h ****  */
  54:./src/asf/common/services/serial/xmega_usart/usart_serial.h **** //! @{
  55:./src/asf/common/services/serial/xmega_usart/usart_serial.h **** #include "conf_usart_serial.h"
  56:./src/asf/common/services/serial/xmega_usart/usart_serial.h **** //! @}
  57:./src/asf/common/services/serial/xmega_usart/usart_serial.h **** 
  58:./src/asf/common/services/serial/xmega_usart/usart_serial.h **** typedef usart_rs232_options_t usart_serial_options_t;
  59:./src/asf/common/services/serial/xmega_usart/usart_serial.h **** 
  60:./src/asf/common/services/serial/xmega_usart/usart_serial.h **** typedef USART_t *usart_if;
  61:./src/asf/common/services/serial/xmega_usart/usart_serial.h **** 
GAS LISTING /tmp/ccwf6aFs.s 			page 6


  62:./src/asf/common/services/serial/xmega_usart/usart_serial.h **** /*! \brief Initializes the Usart in master mode.
  63:./src/asf/common/services/serial/xmega_usart/usart_serial.h ****  *
  64:./src/asf/common/services/serial/xmega_usart/usart_serial.h ****  * \param usart       Base address of the USART instance.
  65:./src/asf/common/services/serial/xmega_usart/usart_serial.h ****  * \param options     Options needed to set up RS232 communication (see \ref usart_serial_options_t
  66:./src/asf/common/services/serial/xmega_usart/usart_serial.h ****  *
  67:./src/asf/common/services/serial/xmega_usart/usart_serial.h ****  * \retval true if the initialization was successful
  68:./src/asf/common/services/serial/xmega_usart/usart_serial.h ****  * \retval false if initialization failed (error in baud rate calculation)
  69:./src/asf/common/services/serial/xmega_usart/usart_serial.h ****  */
  70:./src/asf/common/services/serial/xmega_usart/usart_serial.h **** static inline bool usart_serial_init(usart_if usart, const
  71:./src/asf/common/services/serial/xmega_usart/usart_serial.h **** 		usart_serial_options_t *options)
  72:./src/asf/common/services/serial/xmega_usart/usart_serial.h **** {
  73:./src/asf/common/services/serial/xmega_usart/usart_serial.h **** 	// USART options.
  74:./src/asf/common/services/serial/xmega_usart/usart_serial.h **** 	usart_rs232_options_t usart_rs232_options;
  75:./src/asf/common/services/serial/xmega_usart/usart_serial.h **** 	usart_rs232_options.charlength   = options->charlength;
  76:./src/asf/common/services/serial/xmega_usart/usart_serial.h **** 	usart_rs232_options.paritytype   = options->paritytype;
  77:./src/asf/common/services/serial/xmega_usart/usart_serial.h **** 	usart_rs232_options.stopbits     = options->stopbits;
  78:./src/asf/common/services/serial/xmega_usart/usart_serial.h **** 	usart_rs232_options.baudrate     = options->baudrate;
  79:./src/asf/common/services/serial/xmega_usart/usart_serial.h **** 
  80:./src/asf/common/services/serial/xmega_usart/usart_serial.h **** #ifdef USARTC0
  81:./src/asf/common/services/serial/xmega_usart/usart_serial.h **** 	if((uint16_t)usart == (uint16_t)&USARTC0) {
  82:./src/asf/common/services/serial/xmega_usart/usart_serial.h **** 		sysclk_enable_module(SYSCLK_PORT_C,PR_USART0_bm);
  83:./src/asf/common/services/serial/xmega_usart/usart_serial.h **** 	}
  84:./src/asf/common/services/serial/xmega_usart/usart_serial.h **** #endif
  85:./src/asf/common/services/serial/xmega_usart/usart_serial.h **** #ifdef USARTC1
  86:./src/asf/common/services/serial/xmega_usart/usart_serial.h **** 	if((uint16_t)usart == (uint16_t)&USARTC1) {
  87:./src/asf/common/services/serial/xmega_usart/usart_serial.h **** 		sysclk_enable_module(SYSCLK_PORT_C,PR_USART1_bm);
  88:./src/asf/common/services/serial/xmega_usart/usart_serial.h **** 	}
  89:./src/asf/common/services/serial/xmega_usart/usart_serial.h **** #endif
  90:./src/asf/common/services/serial/xmega_usart/usart_serial.h **** #ifdef USARTD0
  91:./src/asf/common/services/serial/xmega_usart/usart_serial.h **** 	if((uint16_t)usart == (uint16_t)&USARTD0) {
  92:./src/asf/common/services/serial/xmega_usart/usart_serial.h **** 		sysclk_enable_module(SYSCLK_PORT_D,PR_USART0_bm);
  93:./src/asf/common/services/serial/xmega_usart/usart_serial.h **** 	}
  94:./src/asf/common/services/serial/xmega_usart/usart_serial.h **** #endif
  95:./src/asf/common/services/serial/xmega_usart/usart_serial.h **** #ifdef USARTD1
  96:./src/asf/common/services/serial/xmega_usart/usart_serial.h **** 	if((uint16_t)usart == (uint16_t)&USARTD1) {
  97:./src/asf/common/services/serial/xmega_usart/usart_serial.h **** 		sysclk_enable_module(SYSCLK_PORT_D,PR_USART1_bm);
  98:./src/asf/common/services/serial/xmega_usart/usart_serial.h **** 	}
  99:./src/asf/common/services/serial/xmega_usart/usart_serial.h **** #endif
 100:./src/asf/common/services/serial/xmega_usart/usart_serial.h **** #ifdef USARTE0
 101:./src/asf/common/services/serial/xmega_usart/usart_serial.h **** 	if((uint16_t)usart == (uint16_t)&USARTE0) {
 102:./src/asf/common/services/serial/xmega_usart/usart_serial.h **** 		sysclk_enable_module(SYSCLK_PORT_E,PR_USART0_bm);
 103:./src/asf/common/services/serial/xmega_usart/usart_serial.h **** 	}
 104:./src/asf/common/services/serial/xmega_usart/usart_serial.h **** #endif
 105:./src/asf/common/services/serial/xmega_usart/usart_serial.h **** #ifdef USARTE1
 106:./src/asf/common/services/serial/xmega_usart/usart_serial.h **** 	if((uint16_t)usart == (uint16_t)&USARTE1) {
 107:./src/asf/common/services/serial/xmega_usart/usart_serial.h **** 		sysclk_enable_module(SYSCLK_PORT_E,PR_USART1_bm);
 108:./src/asf/common/services/serial/xmega_usart/usart_serial.h **** 	}
 109:./src/asf/common/services/serial/xmega_usart/usart_serial.h **** #endif
 110:./src/asf/common/services/serial/xmega_usart/usart_serial.h **** #ifdef USARTF0
 111:./src/asf/common/services/serial/xmega_usart/usart_serial.h **** 	if((uint16_t)usart == (uint16_t)&USARTF0) {
 112:./src/asf/common/services/serial/xmega_usart/usart_serial.h **** 		sysclk_enable_module(SYSCLK_PORT_F,PR_USART0_bm);
 113:./src/asf/common/services/serial/xmega_usart/usart_serial.h **** 	}
 114:./src/asf/common/services/serial/xmega_usart/usart_serial.h **** #endif
 115:./src/asf/common/services/serial/xmega_usart/usart_serial.h **** #ifdef USARTF1
 116:./src/asf/common/services/serial/xmega_usart/usart_serial.h **** 	if((uint16_t)usart == (uint16_t)&USARTF1) {
 117:./src/asf/common/services/serial/xmega_usart/usart_serial.h **** 		sysclk_enable_module(SYSCLK_PORT_F,PR_USART1_bm);
 118:./src/asf/common/services/serial/xmega_usart/usart_serial.h **** 	}
GAS LISTING /tmp/ccwf6aFs.s 			page 7


 119:./src/asf/common/services/serial/xmega_usart/usart_serial.h **** #endif
 120:./src/asf/common/services/serial/xmega_usart/usart_serial.h **** 	if (usart_init_rs232(usart, &usart_rs232_options)) {
 121:./src/asf/common/services/serial/xmega_usart/usart_serial.h **** 		return true;
 122:./src/asf/common/services/serial/xmega_usart/usart_serial.h **** 	}
 123:./src/asf/common/services/serial/xmega_usart/usart_serial.h **** 	else {
 124:./src/asf/common/services/serial/xmega_usart/usart_serial.h **** 		return false;
 125:./src/asf/common/services/serial/xmega_usart/usart_serial.h **** 	}
 126:./src/asf/common/services/serial/xmega_usart/usart_serial.h **** }
 127:./src/asf/common/services/serial/xmega_usart/usart_serial.h **** 
 128:./src/asf/common/services/serial/xmega_usart/usart_serial.h **** /*! \brief Sends a character with the USART.
 129:./src/asf/common/services/serial/xmega_usart/usart_serial.h ****  *
 130:./src/asf/common/services/serial/xmega_usart/usart_serial.h ****  * \param usart   Base address of the USART instance.
 131:./src/asf/common/services/serial/xmega_usart/usart_serial.h ****  * \param c       Character to write.
 132:./src/asf/common/services/serial/xmega_usart/usart_serial.h ****  *
 133:./src/asf/common/services/serial/xmega_usart/usart_serial.h ****  * \return Status code
 134:./src/asf/common/services/serial/xmega_usart/usart_serial.h ****  */
 135:./src/asf/common/services/serial/xmega_usart/usart_serial.h **** static inline enum status_code usart_serial_putchar(usart_if usart, uint8_t c)
 136:./src/asf/common/services/serial/xmega_usart/usart_serial.h **** {
 137:./src/asf/common/services/serial/xmega_usart/usart_serial.h **** 	return usart_putchar(usart, c);
 138:./src/asf/common/services/serial/xmega_usart/usart_serial.h **** }
 139:./src/asf/common/services/serial/xmega_usart/usart_serial.h **** /*! \brief Waits until a character is received, and returns it.
 140:./src/asf/common/services/serial/xmega_usart/usart_serial.h ****  *
 141:./src/asf/common/services/serial/xmega_usart/usart_serial.h ****  * \param usart   Base address of the USART instance.
 142:./src/asf/common/services/serial/xmega_usart/usart_serial.h ****  * \param data   Data to read
 143:./src/asf/common/services/serial/xmega_usart/usart_serial.h ****  *
 144:./src/asf/common/services/serial/xmega_usart/usart_serial.h ****  */
 145:./src/asf/common/services/serial/xmega_usart/usart_serial.h **** static inline void usart_serial_getchar(usart_if usart, uint8_t *data)
 146:./src/asf/common/services/serial/xmega_usart/usart_serial.h **** {
 164               		.loc 2 146 0
 165               		.cfi_startproc
 166               	.LVL0:
 167 00fe CF93      		push r28
 168               	.LCFI0:
 169               		.cfi_def_cfa_offset 3
 170               		.cfi_offset 28, -2
 171 0100 DF93      		push r29
 172               	.LCFI1:
 173               		.cfi_def_cfa_offset 4
 174               		.cfi_offset 29, -3
 175               	/* prologue: function */
 176               	/* frame size = 0 */
 177               	/* stack size = 2 */
 178               	.L__stack_usage = 2
 179 0102 EB01      		movw r28,r22
 147:./src/asf/common/services/serial/xmega_usart/usart_serial.h **** 	*data = usart_getchar(usart);
 180               		.loc 2 147 0
 181 0104 0E94 0000 		call usart_getchar
 182               	.LVL1:
 183 0108 8883      		st Y,r24
 184               	/* epilogue start */
 148:./src/asf/common/services/serial/xmega_usart/usart_serial.h **** }
 185               		.loc 2 148 0
 186 010a DF91      		pop r29
 187 010c CF91      		pop r28
 188               	.LVL2:
 189 010e 0895      		ret
 190               		.cfi_endproc
GAS LISTING /tmp/ccwf6aFs.s 			page 8


 191               	.LFE177:
 192               		.size	usart_serial_getchar, .-usart_serial_getchar
 193               		.type	usart_serial_putchar, @function
 194               	usart_serial_putchar:
 195               	.LFB176:
 136:./src/asf/common/services/serial/xmega_usart/usart_serial.h **** {
 196               		.loc 2 136 0
 197               		.cfi_startproc
 198               	.LVL3:
 199               	/* prologue: function */
 200               	/* frame size = 0 */
 201               	/* stack size = 0 */
 202               	.L__stack_usage = 0
 137:./src/asf/common/services/serial/xmega_usart/usart_serial.h **** 	return usart_putchar(usart, c);
 203               		.loc 2 137 0
 204 0110 0E94 0000 		call usart_putchar
 205               	.LVL4:
 206               	/* epilogue start */
 138:./src/asf/common/services/serial/xmega_usart/usart_serial.h **** }
 207               		.loc 2 138 0
 208 0114 0895      		ret
 209               		.cfi_endproc
 210               	.LFE176:
 211               		.size	usart_serial_putchar, .-usart_serial_putchar
 212               	.global	__vector_26
 213               		.type	__vector_26, @function
 214               	__vector_26:
 215               	.LFB262:
  57:src/main.c    **** 	}
  58:src/main.c    **** }
  59:src/main.c    **** 
  60:src/main.c    **** 
  61:src/main.c    **** // Disable RS485 transmitter after successful send
  62:src/main.c    **** ISR(USARTC0_DRE_vect)
  63:src/main.c    **** {
 216               		.loc 1 63 0
 217               		.cfi_startproc
 218 0116 1F92      		push r1
 219               	.LCFI2:
 220               		.cfi_def_cfa_offset 3
 221               		.cfi_offset 1, -2
 222 0118 0F92      		push r0
 223               	.LCFI3:
 224               		.cfi_def_cfa_offset 4
 225               		.cfi_offset 0, -3
 226 011a 0FB6      		in r0,__SREG__
 227 011c 0F92      		push r0
 228 011e 1124      		clr __zero_reg__
 229 0120 8F93      		push r24
 230               	.LCFI4:
 231               		.cfi_def_cfa_offset 5
 232               		.cfi_offset 24, -4
 233 0122 EF93      		push r30
 234               	.LCFI5:
 235               		.cfi_def_cfa_offset 6
 236               		.cfi_offset 30, -5
 237 0124 FF93      		push r31
GAS LISTING /tmp/ccwf6aFs.s 			page 9


 238               	.LCFI6:
 239               		.cfi_def_cfa_offset 7
 240               		.cfi_offset 31, -6
 241               	/* prologue: Signal */
 242               	/* frame size = 0 */
 243               	/* stack size = 6 */
 244               	.L__stack_usage = 6
 245               	.LVL5:
 246               	.LBB154:
 247               	.LBB155:
 248               	.LBB156:
 249               		.file 3 "./src/asf/common/services/ioport/xmega/ioport.h"
   1:./src/asf/common/services/ioport/xmega/ioport.h **** /**
   2:./src/asf/common/services/ioport/xmega/ioport.h ****  * \file
   3:./src/asf/common/services/ioport/xmega/ioport.h ****  *
   4:./src/asf/common/services/ioport/xmega/ioport.h ****  * \brief XMEGA architecture specific IOPORT service implementation header file.
   5:./src/asf/common/services/ioport/xmega/ioport.h ****  *
   6:./src/asf/common/services/ioport/xmega/ioport.h ****  * Copyright (c) 2012 Atmel Corporation. All rights reserved.
   7:./src/asf/common/services/ioport/xmega/ioport.h ****  *
   8:./src/asf/common/services/ioport/xmega/ioport.h ****  * \asf_license_start
   9:./src/asf/common/services/ioport/xmega/ioport.h ****  *
  10:./src/asf/common/services/ioport/xmega/ioport.h ****  * \page License
  11:./src/asf/common/services/ioport/xmega/ioport.h ****  *
  12:./src/asf/common/services/ioport/xmega/ioport.h ****  * Redistribution and use in source and binary forms, with or without
  13:./src/asf/common/services/ioport/xmega/ioport.h ****  * modification, are permitted provided that the following conditions are met:
  14:./src/asf/common/services/ioport/xmega/ioport.h ****  *
  15:./src/asf/common/services/ioport/xmega/ioport.h ****  * 1. Redistributions of source code must retain the above copyright notice,
  16:./src/asf/common/services/ioport/xmega/ioport.h ****  *    this list of conditions and the following disclaimer.
  17:./src/asf/common/services/ioport/xmega/ioport.h ****  *
  18:./src/asf/common/services/ioport/xmega/ioport.h ****  * 2. Redistributions in binary form must reproduce the above copyright notice,
  19:./src/asf/common/services/ioport/xmega/ioport.h ****  *    this list of conditions and the following disclaimer in the documentation
  20:./src/asf/common/services/ioport/xmega/ioport.h ****  *    and/or other materials provided with the distribution.
  21:./src/asf/common/services/ioport/xmega/ioport.h ****  *
  22:./src/asf/common/services/ioport/xmega/ioport.h ****  * 3. The name of Atmel may not be used to endorse or promote products derived
  23:./src/asf/common/services/ioport/xmega/ioport.h ****  *    from this software without specific prior written permission.
  24:./src/asf/common/services/ioport/xmega/ioport.h ****  *
  25:./src/asf/common/services/ioport/xmega/ioport.h ****  * 4. This software may only be redistributed and used in connection with an
  26:./src/asf/common/services/ioport/xmega/ioport.h ****  *    Atmel microcontroller product.
  27:./src/asf/common/services/ioport/xmega/ioport.h ****  *
  28:./src/asf/common/services/ioport/xmega/ioport.h ****  * THIS SOFTWARE IS PROVIDED BY ATMEL "AS IS" AND ANY EXPRESS OR IMPLIED
  29:./src/asf/common/services/ioport/xmega/ioport.h ****  * WARRANTIES, INCLUDING, BUT NOT LIMITED TO, THE IMPLIED WARRANTIES OF
  30:./src/asf/common/services/ioport/xmega/ioport.h ****  * MERCHANTABILITY, FITNESS FOR A PARTICULAR PURPOSE AND NON-INFRINGEMENT ARE
  31:./src/asf/common/services/ioport/xmega/ioport.h ****  * EXPRESSLY AND SPECIFICALLY DISCLAIMED. IN NO EVENT SHALL ATMEL BE LIABLE FOR
  32:./src/asf/common/services/ioport/xmega/ioport.h ****  * ANY DIRECT, INDIRECT, INCIDENTAL, SPECIAL, EXEMPLARY, OR CONSEQUENTIAL
  33:./src/asf/common/services/ioport/xmega/ioport.h ****  * DAMAGES (INCLUDING, BUT NOT LIMITED TO, PROCUREMENT OF SUBSTITUTE GOODS
  34:./src/asf/common/services/ioport/xmega/ioport.h ****  * OR SERVICES; LOSS OF USE, DATA, OR PROFITS; OR BUSINESS INTERRUPTION)
  35:./src/asf/common/services/ioport/xmega/ioport.h ****  * HOWEVER CAUSED AND ON ANY THEORY OF LIABILITY, WHETHER IN CONTRACT,
  36:./src/asf/common/services/ioport/xmega/ioport.h ****  * STRICT LIABILITY, OR TORT (INCLUDING NEGLIGENCE OR OTHERWISE) ARISING IN
  37:./src/asf/common/services/ioport/xmega/ioport.h ****  * ANY WAY OUT OF THE USE OF THIS SOFTWARE, EVEN IF ADVISED OF THE
  38:./src/asf/common/services/ioport/xmega/ioport.h ****  * POSSIBILITY OF SUCH DAMAGE.
  39:./src/asf/common/services/ioport/xmega/ioport.h ****  *
  40:./src/asf/common/services/ioport/xmega/ioport.h ****  * \asf_license_stop
  41:./src/asf/common/services/ioport/xmega/ioport.h ****  *
  42:./src/asf/common/services/ioport/xmega/ioport.h ****  */
  43:./src/asf/common/services/ioport/xmega/ioport.h **** #ifndef IOPORT_XMEGA_H
  44:./src/asf/common/services/ioport/xmega/ioport.h **** #define IOPORT_XMEGA_H
  45:./src/asf/common/services/ioport/xmega/ioport.h **** 
GAS LISTING /tmp/ccwf6aFs.s 			page 10


  46:./src/asf/common/services/ioport/xmega/ioport.h **** #define IOPORT_CREATE_PIN(port, pin) ((IOPORT_ ## port) * 8 + (pin))
  47:./src/asf/common/services/ioport/xmega/ioport.h **** #define IOPORT_BASE_ADDRESS 0x600
  48:./src/asf/common/services/ioport/xmega/ioport.h **** #define IOPORT_PORT_OFFSET  0x20
  49:./src/asf/common/services/ioport/xmega/ioport.h **** 
  50:./src/asf/common/services/ioport/xmega/ioport.h **** /** \name IOPORT port numbers */
  51:./src/asf/common/services/ioport/xmega/ioport.h **** /** @{ */
  52:./src/asf/common/services/ioport/xmega/ioport.h **** #if !XMEGA_B3
  53:./src/asf/common/services/ioport/xmega/ioport.h **** #  define IOPORT_PORTA  0
  54:./src/asf/common/services/ioport/xmega/ioport.h **** #endif
  55:./src/asf/common/services/ioport/xmega/ioport.h **** 
  56:./src/asf/common/services/ioport/xmega/ioport.h **** #define IOPORT_PORTB    1
  57:./src/asf/common/services/ioport/xmega/ioport.h **** #define IOPORT_PORTC    2
  58:./src/asf/common/services/ioport/xmega/ioport.h **** #define IOPORT_PORTD    3
  59:./src/asf/common/services/ioport/xmega/ioport.h **** 
  60:./src/asf/common/services/ioport/xmega/ioport.h **** #if !XMEGA_B3
  61:./src/asf/common/services/ioport/xmega/ioport.h **** #  define IOPORT_PORTE  4
  62:./src/asf/common/services/ioport/xmega/ioport.h **** #endif
  63:./src/asf/common/services/ioport/xmega/ioport.h **** 
  64:./src/asf/common/services/ioport/xmega/ioport.h **** #if XMEGA_A1 || XMEGA_A1U || XMEGA_A3 || XMEGA_A3U || XMEGA_A3B || XMEGA_A3BU ||\
  65:./src/asf/common/services/ioport/xmega/ioport.h **** 	XMEGA_C3 || XMEGA_D3
  66:./src/asf/common/services/ioport/xmega/ioport.h **** #  define IOPORT_PORTF  5
  67:./src/asf/common/services/ioport/xmega/ioport.h **** #endif
  68:./src/asf/common/services/ioport/xmega/ioport.h **** 
  69:./src/asf/common/services/ioport/xmega/ioport.h **** #if XMEGA_B1 || XMEGA_B3
  70:./src/asf/common/services/ioport/xmega/ioport.h **** #  define IOPORT_PORTG  6
  71:./src/asf/common/services/ioport/xmega/ioport.h **** #endif
  72:./src/asf/common/services/ioport/xmega/ioport.h **** 
  73:./src/asf/common/services/ioport/xmega/ioport.h **** #if XMEGA_A1 || XMEGA_A1U
  74:./src/asf/common/services/ioport/xmega/ioport.h **** #  define IOPORT_PORTH  7
  75:./src/asf/common/services/ioport/xmega/ioport.h **** #  define IOPORT_PORTJ  8
  76:./src/asf/common/services/ioport/xmega/ioport.h **** #  define IOPORT_PORTK  9
  77:./src/asf/common/services/ioport/xmega/ioport.h **** #endif
  78:./src/asf/common/services/ioport/xmega/ioport.h **** 
  79:./src/asf/common/services/ioport/xmega/ioport.h **** #if XMEGA_B1 || XMEGA_B3
  80:./src/asf/common/services/ioport/xmega/ioport.h **** #  define IOPORT_PORTM  11
  81:./src/asf/common/services/ioport/xmega/ioport.h **** #endif
  82:./src/asf/common/services/ioport/xmega/ioport.h **** 
  83:./src/asf/common/services/ioport/xmega/ioport.h **** #if XMEGA_A1 || XMEGA_A1U
  84:./src/asf/common/services/ioport/xmega/ioport.h **** #  define IOPORT_PORTQ  14
  85:./src/asf/common/services/ioport/xmega/ioport.h **** #endif
  86:./src/asf/common/services/ioport/xmega/ioport.h **** 
  87:./src/asf/common/services/ioport/xmega/ioport.h **** #define IOPORT_PORTR    15
  88:./src/asf/common/services/ioport/xmega/ioport.h **** /** @} */
  89:./src/asf/common/services/ioport/xmega/ioport.h **** 
  90:./src/asf/common/services/ioport/xmega/ioport.h **** /**
  91:./src/asf/common/services/ioport/xmega/ioport.h ****  * \weakgroup ioport_group
  92:./src/asf/common/services/ioport/xmega/ioport.h ****  * \section ioport_modes IOPORT Modes
  93:./src/asf/common/services/ioport/xmega/ioport.h ****  *
  94:./src/asf/common/services/ioport/xmega/ioport.h ****  * For details on these please see the XMEGA Manual.
  95:./src/asf/common/services/ioport/xmega/ioport.h ****  *
  96:./src/asf/common/services/ioport/xmega/ioport.h ****  * @{
  97:./src/asf/common/services/ioport/xmega/ioport.h ****  */
  98:./src/asf/common/services/ioport/xmega/ioport.h **** 
  99:./src/asf/common/services/ioport/xmega/ioport.h **** /** \name IOPORT Mode bit definitions */
 100:./src/asf/common/services/ioport/xmega/ioport.h **** /** @{ */
 101:./src/asf/common/services/ioport/xmega/ioport.h **** #define IOPORT_MODE_TOTEM           (0x00 << 3) /*!< Totem-pole */
 102:./src/asf/common/services/ioport/xmega/ioport.h **** #define IOPORT_MODE_BUSKEEPER       (0x01 << 3) /*!< Buskeeper */
GAS LISTING /tmp/ccwf6aFs.s 			page 11


 103:./src/asf/common/services/ioport/xmega/ioport.h **** #define IOPORT_MODE_PULLDOWN        (0x02 << 3) /*!< Pull-down */
 104:./src/asf/common/services/ioport/xmega/ioport.h **** #define IOPORT_MODE_PULLUP          (0x03 << 3) /*!< Pull-up */
 105:./src/asf/common/services/ioport/xmega/ioport.h **** #define IOPORT_MODE_WIREDOR         (0x04 << 3) /*!< Wired OR */
 106:./src/asf/common/services/ioport/xmega/ioport.h **** #define IOPORT_MODE_WIREDAND        (0x05 << 3) /*!< Wired AND */
 107:./src/asf/common/services/ioport/xmega/ioport.h **** #define IOPORT_MODE_WIREDORPULL     (0x06 << 3) /*!< Wired OR with pull-down */
 108:./src/asf/common/services/ioport/xmega/ioport.h **** #define IOPORT_MODE_WIREDANDPULL    (0x07 << 3) /*!< Wired AND with pull-up */
 109:./src/asf/common/services/ioport/xmega/ioport.h **** #define IOPORT_MODE_INVERT_PIN      (0x01 << 6) /*!< Invert output and input */
 110:./src/asf/common/services/ioport/xmega/ioport.h **** #define IOPORT_MODE_SLEW_RATE_LIMIT (0x01 << 7) /*!< Slew rate limiting */
 111:./src/asf/common/services/ioport/xmega/ioport.h **** /** @} */
 112:./src/asf/common/services/ioport/xmega/ioport.h **** 
 113:./src/asf/common/services/ioport/xmega/ioport.h **** /** @} */
 114:./src/asf/common/services/ioport/xmega/ioport.h **** 
 115:./src/asf/common/services/ioport/xmega/ioport.h **** typedef uint8_t ioport_mode_t;
 116:./src/asf/common/services/ioport/xmega/ioport.h **** typedef uint8_t ioport_pin_t;
 117:./src/asf/common/services/ioport/xmega/ioport.h **** typedef uint8_t ioport_port_t;
 118:./src/asf/common/services/ioport/xmega/ioport.h **** typedef uint8_t ioport_port_mask_t;
 119:./src/asf/common/services/ioport/xmega/ioport.h **** 
 120:./src/asf/common/services/ioport/xmega/ioport.h **** __always_inline static ioport_port_t arch_ioport_pin_to_port_id(ioport_pin_t pin)
 121:./src/asf/common/services/ioport/xmega/ioport.h **** {
 122:./src/asf/common/services/ioport/xmega/ioport.h **** 	return pin >> 3;
 123:./src/asf/common/services/ioport/xmega/ioport.h **** }
 124:./src/asf/common/services/ioport/xmega/ioport.h **** 
 125:./src/asf/common/services/ioport/xmega/ioport.h **** __always_inline static PORT_t *arch_ioport_port_to_base(ioport_port_t port)
 126:./src/asf/common/services/ioport/xmega/ioport.h **** {
 127:./src/asf/common/services/ioport/xmega/ioport.h **** 	return (PORT_t *)((uintptr_t)IOPORT_BASE_ADDRESS +
 128:./src/asf/common/services/ioport/xmega/ioport.h **** 	       (port * IOPORT_PORT_OFFSET));
 129:./src/asf/common/services/ioport/xmega/ioport.h **** }
 130:./src/asf/common/services/ioport/xmega/ioport.h **** 
 131:./src/asf/common/services/ioport/xmega/ioport.h **** __always_inline static PORT_t *arch_ioport_pin_to_base(ioport_pin_t pin)
 132:./src/asf/common/services/ioport/xmega/ioport.h **** {
 133:./src/asf/common/services/ioport/xmega/ioport.h **** 	return arch_ioport_port_to_base(arch_ioport_pin_to_port_id(pin));
 134:./src/asf/common/services/ioport/xmega/ioport.h **** }
 135:./src/asf/common/services/ioport/xmega/ioport.h **** 
 136:./src/asf/common/services/ioport/xmega/ioport.h **** __always_inline static ioport_port_mask_t arch_ioport_pin_to_mask(ioport_pin_t pin)
 137:./src/asf/common/services/ioport/xmega/ioport.h **** {
 138:./src/asf/common/services/ioport/xmega/ioport.h **** 	return 1U << (pin & 0x07);
 139:./src/asf/common/services/ioport/xmega/ioport.h **** }
 140:./src/asf/common/services/ioport/xmega/ioport.h **** 
 141:./src/asf/common/services/ioport/xmega/ioport.h **** __always_inline static ioport_port_mask_t arch_ioport_pin_to_index(ioport_pin_t pin)
 142:./src/asf/common/services/ioport/xmega/ioport.h **** {
 143:./src/asf/common/services/ioport/xmega/ioport.h **** 	return (pin & 0x07);
 144:./src/asf/common/services/ioport/xmega/ioport.h **** }
 145:./src/asf/common/services/ioport/xmega/ioport.h **** 
 146:./src/asf/common/services/ioport/xmega/ioport.h **** __always_inline static void arch_ioport_init(void)
 147:./src/asf/common/services/ioport/xmega/ioport.h **** {
 148:./src/asf/common/services/ioport/xmega/ioport.h **** 	
 149:./src/asf/common/services/ioport/xmega/ioport.h **** }
 150:./src/asf/common/services/ioport/xmega/ioport.h **** 
 151:./src/asf/common/services/ioport/xmega/ioport.h **** __always_inline static void arch_ioport_enable_port(ioport_port_t port,
 152:./src/asf/common/services/ioport/xmega/ioport.h **** 		ioport_port_mask_t mask)
 153:./src/asf/common/services/ioport/xmega/ioport.h **** {
 154:./src/asf/common/services/ioport/xmega/ioport.h **** 	PORT_t *base = arch_ioport_port_to_base(port);
 155:./src/asf/common/services/ioport/xmega/ioport.h **** 	volatile uint8_t *pin_ctrl = &base->PIN0CTRL;
 156:./src/asf/common/services/ioport/xmega/ioport.h **** 
 157:./src/asf/common/services/ioport/xmega/ioport.h **** 	uint8_t flags = cpu_irq_save();
 158:./src/asf/common/services/ioport/xmega/ioport.h **** 
 159:./src/asf/common/services/ioport/xmega/ioport.h **** 	for (uint8_t i = 0; i < 8; i++) {
GAS LISTING /tmp/ccwf6aFs.s 			page 12


 160:./src/asf/common/services/ioport/xmega/ioport.h **** 		if (mask & arch_ioport_pin_to_mask(i)) {
 161:./src/asf/common/services/ioport/xmega/ioport.h **** 			pin_ctrl[i] &= ~PORT_ISC_gm;
 162:./src/asf/common/services/ioport/xmega/ioport.h **** 		}
 163:./src/asf/common/services/ioport/xmega/ioport.h **** 	}
 164:./src/asf/common/services/ioport/xmega/ioport.h **** 	
 165:./src/asf/common/services/ioport/xmega/ioport.h **** 	cpu_irq_restore(flags);	
 166:./src/asf/common/services/ioport/xmega/ioport.h **** }
 167:./src/asf/common/services/ioport/xmega/ioport.h **** 
 168:./src/asf/common/services/ioport/xmega/ioport.h **** __always_inline static void arch_ioport_enable_pin(ioport_pin_t pin)
 169:./src/asf/common/services/ioport/xmega/ioport.h **** {
 170:./src/asf/common/services/ioport/xmega/ioport.h **** 	PORT_t *base = arch_ioport_pin_to_base(pin);
 171:./src/asf/common/services/ioport/xmega/ioport.h **** 	volatile uint8_t *pin_ctrl =
 172:./src/asf/common/services/ioport/xmega/ioport.h **** 			(&base->PIN0CTRL + arch_ioport_pin_to_index(pin));
 173:./src/asf/common/services/ioport/xmega/ioport.h **** 
 174:./src/asf/common/services/ioport/xmega/ioport.h **** 	uint8_t flags = cpu_irq_save();
 175:./src/asf/common/services/ioport/xmega/ioport.h **** 	
 176:./src/asf/common/services/ioport/xmega/ioport.h **** 	*pin_ctrl &= ~PORT_ISC_gm;
 177:./src/asf/common/services/ioport/xmega/ioport.h **** 	
 178:./src/asf/common/services/ioport/xmega/ioport.h **** 	cpu_irq_restore(flags);
 179:./src/asf/common/services/ioport/xmega/ioport.h **** }
 180:./src/asf/common/services/ioport/xmega/ioport.h **** 
 181:./src/asf/common/services/ioport/xmega/ioport.h **** __always_inline static void arch_ioport_disable_port(ioport_port_t port,
 182:./src/asf/common/services/ioport/xmega/ioport.h **** 		ioport_port_mask_t mask)
 183:./src/asf/common/services/ioport/xmega/ioport.h **** {
 184:./src/asf/common/services/ioport/xmega/ioport.h **** 	PORT_t *base = arch_ioport_port_to_base(port);
 185:./src/asf/common/services/ioport/xmega/ioport.h **** 	volatile uint8_t *pin_ctrl = &base->PIN0CTRL;
 186:./src/asf/common/services/ioport/xmega/ioport.h **** 
 187:./src/asf/common/services/ioport/xmega/ioport.h **** 	uint8_t flags = cpu_irq_save();
 188:./src/asf/common/services/ioport/xmega/ioport.h **** 
 189:./src/asf/common/services/ioport/xmega/ioport.h **** 	for (uint8_t i = 0; i < 8; i++) {
 190:./src/asf/common/services/ioport/xmega/ioport.h **** 		if (mask & arch_ioport_pin_to_mask(i)) {
 191:./src/asf/common/services/ioport/xmega/ioport.h **** 			pin_ctrl[i] |= PORT_ISC_INPUT_DISABLE_gc;
 192:./src/asf/common/services/ioport/xmega/ioport.h **** 		}
 193:./src/asf/common/services/ioport/xmega/ioport.h **** 	}
 194:./src/asf/common/services/ioport/xmega/ioport.h **** 	
 195:./src/asf/common/services/ioport/xmega/ioport.h **** 	cpu_irq_restore(flags);
 196:./src/asf/common/services/ioport/xmega/ioport.h **** }
 197:./src/asf/common/services/ioport/xmega/ioport.h **** 
 198:./src/asf/common/services/ioport/xmega/ioport.h **** __always_inline static void arch_ioport_disable_pin(ioport_pin_t pin)
 199:./src/asf/common/services/ioport/xmega/ioport.h **** {
 200:./src/asf/common/services/ioport/xmega/ioport.h **** 	PORT_t *base = arch_ioport_pin_to_base(pin);
 201:./src/asf/common/services/ioport/xmega/ioport.h **** 	volatile uint8_t *pin_ctrl =
 202:./src/asf/common/services/ioport/xmega/ioport.h **** 			(&base->PIN0CTRL + arch_ioport_pin_to_index(pin));
 203:./src/asf/common/services/ioport/xmega/ioport.h **** 
 204:./src/asf/common/services/ioport/xmega/ioport.h **** 	uint8_t flags = cpu_irq_save();
 205:./src/asf/common/services/ioport/xmega/ioport.h **** 	
 206:./src/asf/common/services/ioport/xmega/ioport.h **** 	*pin_ctrl |= PORT_ISC_INPUT_DISABLE_gc;
 207:./src/asf/common/services/ioport/xmega/ioport.h **** 	
 208:./src/asf/common/services/ioport/xmega/ioport.h **** 	cpu_irq_restore(flags);
 209:./src/asf/common/services/ioport/xmega/ioport.h **** }
 210:./src/asf/common/services/ioport/xmega/ioport.h **** 
 211:./src/asf/common/services/ioport/xmega/ioport.h **** __always_inline static void arch_ioport_set_port_mode(ioport_port_t port,
 212:./src/asf/common/services/ioport/xmega/ioport.h **** 		ioport_port_mask_t mask, ioport_mode_t mode)
 213:./src/asf/common/services/ioport/xmega/ioport.h **** {
 214:./src/asf/common/services/ioport/xmega/ioport.h **** 	PORT_t *base = arch_ioport_port_to_base(port);
 215:./src/asf/common/services/ioport/xmega/ioport.h **** 
 216:./src/asf/common/services/ioport/xmega/ioport.h **** 	PORTCFG.MPCMASK = mask;
GAS LISTING /tmp/ccwf6aFs.s 			page 13


 217:./src/asf/common/services/ioport/xmega/ioport.h **** 	base->PIN0CTRL = mode;
 218:./src/asf/common/services/ioport/xmega/ioport.h **** }
 219:./src/asf/common/services/ioport/xmega/ioport.h **** 
 220:./src/asf/common/services/ioport/xmega/ioport.h **** __always_inline static void arch_ioport_set_pin_mode(ioport_pin_t pin,
 221:./src/asf/common/services/ioport/xmega/ioport.h **** 		ioport_mode_t mode)
 222:./src/asf/common/services/ioport/xmega/ioport.h **** {
 223:./src/asf/common/services/ioport/xmega/ioport.h **** 	PORT_t *base = arch_ioport_pin_to_base(pin);
 224:./src/asf/common/services/ioport/xmega/ioport.h **** 
 225:./src/asf/common/services/ioport/xmega/ioport.h **** 	PORTCFG.MPCMASK = arch_ioport_pin_to_mask(pin);
 226:./src/asf/common/services/ioport/xmega/ioport.h **** 	base->PIN0CTRL = mode;
 227:./src/asf/common/services/ioport/xmega/ioport.h **** }
 228:./src/asf/common/services/ioport/xmega/ioport.h **** 
 229:./src/asf/common/services/ioport/xmega/ioport.h **** __always_inline static void arch_ioport_set_port_dir(ioport_port_t port,
 230:./src/asf/common/services/ioport/xmega/ioport.h **** 		ioport_port_mask_t mask, enum ioport_direction dir)
 231:./src/asf/common/services/ioport/xmega/ioport.h **** {
 232:./src/asf/common/services/ioport/xmega/ioport.h **** 	PORT_t *base = arch_ioport_port_to_base(port);
 233:./src/asf/common/services/ioport/xmega/ioport.h **** 
 234:./src/asf/common/services/ioport/xmega/ioport.h **** 	if (dir == IOPORT_DIR_OUTPUT) {
 235:./src/asf/common/services/ioport/xmega/ioport.h **** 		base->DIRSET = mask;
 236:./src/asf/common/services/ioport/xmega/ioport.h **** 	} else if (dir == IOPORT_DIR_INPUT) {
 237:./src/asf/common/services/ioport/xmega/ioport.h **** 		base->DIRCLR = mask;
 238:./src/asf/common/services/ioport/xmega/ioport.h **** 	}
 239:./src/asf/common/services/ioport/xmega/ioport.h **** }
 240:./src/asf/common/services/ioport/xmega/ioport.h **** 
 241:./src/asf/common/services/ioport/xmega/ioport.h **** __always_inline static void arch_ioport_set_pin_dir(ioport_pin_t pin,
 242:./src/asf/common/services/ioport/xmega/ioport.h **** 		enum ioport_direction dir)
 243:./src/asf/common/services/ioport/xmega/ioport.h **** {
 244:./src/asf/common/services/ioport/xmega/ioport.h **** 	PORT_t *base = arch_ioport_pin_to_base(pin);
 245:./src/asf/common/services/ioport/xmega/ioport.h **** 
 246:./src/asf/common/services/ioport/xmega/ioport.h **** 	if (dir == IOPORT_DIR_OUTPUT) {
 247:./src/asf/common/services/ioport/xmega/ioport.h **** 		base->DIRSET = arch_ioport_pin_to_mask(pin);
 248:./src/asf/common/services/ioport/xmega/ioport.h **** 	} else if (dir == IOPORT_DIR_INPUT) {
 249:./src/asf/common/services/ioport/xmega/ioport.h **** 		base->DIRCLR = arch_ioport_pin_to_mask(pin);
 250:./src/asf/common/services/ioport/xmega/ioport.h **** 	}
 251:./src/asf/common/services/ioport/xmega/ioport.h **** }
 252:./src/asf/common/services/ioport/xmega/ioport.h **** 
 253:./src/asf/common/services/ioport/xmega/ioport.h **** __always_inline static void arch_ioport_set_pin_level(ioport_pin_t pin,
 254:./src/asf/common/services/ioport/xmega/ioport.h **** 		bool level)
 255:./src/asf/common/services/ioport/xmega/ioport.h **** {
 256:./src/asf/common/services/ioport/xmega/ioport.h **** 	PORT_t *base = arch_ioport_pin_to_base(pin);
 257:./src/asf/common/services/ioport/xmega/ioport.h **** 
 258:./src/asf/common/services/ioport/xmega/ioport.h **** 	if (level) {
 259:./src/asf/common/services/ioport/xmega/ioport.h **** 		base->OUTSET = arch_ioport_pin_to_mask(pin);
 260:./src/asf/common/services/ioport/xmega/ioport.h **** 	} else {
 261:./src/asf/common/services/ioport/xmega/ioport.h **** 		base->OUTCLR = arch_ioport_pin_to_mask(pin);
 250               		.loc 3 261 0
 251 0126 E0E4      		ldi r30,lo8(1600)
 252 0128 F6E0      		ldi r31,hi8(1600)
 253 012a 80E1      		ldi r24,lo8(16)
 254 012c 8683      		std Z+6,r24
 255               	.LVL6:
 256               	.LBE156:
 257               	.LBE155:
 258               	.LBE154:
 259               	.LBB157:
 260               	.LBB158:
 261               	.LBB159:
GAS LISTING /tmp/ccwf6aFs.s 			page 14


 262 012e 80E4      		ldi r24,lo8(64)
 263 0130 8683      		std Z+6,r24
 264               	/* epilogue start */
 265               	.LBE159:
 266               	.LBE158:
 267               	.LBE157:
  64:src/main.c    **** 	ioport_set_pin_low(RS485_DE);
  65:src/main.c    **** 	ioport_set_pin_low(RS485_REn);
  66:src/main.c    **** }
 268               		.loc 1 66 0
 269 0132 FF91      		pop r31
 270 0134 EF91      		pop r30
 271 0136 8F91      		pop r24
 272 0138 0F90      		pop r0
 273 013a 0FBE      		out __SREG__,r0
 274 013c 0F90      		pop r0
 275 013e 1F90      		pop r1
 276 0140 1895      		reti
 277               		.cfi_endproc
 278               	.LFE262:
 279               		.size	__vector_26, .-__vector_26
 280               	.global	__vector_25
 281               		.type	__vector_25, @function
 282               	__vector_25:
 283               	.LFB263:
  67:src/main.c    **** 
  68:src/main.c    **** ISR(USARTC0_RXC_vect)
  69:src/main.c    **** {
 284               		.loc 1 69 0
 285               		.cfi_startproc
 286 0142 1F92      		push r1
 287               	.LCFI7:
 288               		.cfi_def_cfa_offset 3
 289               		.cfi_offset 1, -2
 290 0144 0F92      		push r0
 291               	.LCFI8:
 292               		.cfi_def_cfa_offset 4
 293               		.cfi_offset 0, -3
 294 0146 0FB6      		in r0,__SREG__
 295 0148 0F92      		push r0
 296 014a 1124      		clr __zero_reg__
 297 014c 2F93      		push r18
 298               	.LCFI9:
 299               		.cfi_def_cfa_offset 5
 300               		.cfi_offset 18, -4
 301 014e 3F93      		push r19
 302               	.LCFI10:
 303               		.cfi_def_cfa_offset 6
 304               		.cfi_offset 19, -5
 305 0150 4F93      		push r20
 306               	.LCFI11:
 307               		.cfi_def_cfa_offset 7
 308               		.cfi_offset 20, -6
 309 0152 5F93      		push r21
 310               	.LCFI12:
 311               		.cfi_def_cfa_offset 8
 312               		.cfi_offset 21, -7
GAS LISTING /tmp/ccwf6aFs.s 			page 15


 313 0154 6F93      		push r22
 314               	.LCFI13:
 315               		.cfi_def_cfa_offset 9
 316               		.cfi_offset 22, -8
 317 0156 7F93      		push r23
 318               	.LCFI14:
 319               		.cfi_def_cfa_offset 10
 320               		.cfi_offset 23, -9
 321 0158 8F93      		push r24
 322               	.LCFI15:
 323               		.cfi_def_cfa_offset 11
 324               		.cfi_offset 24, -10
 325 015a 9F93      		push r25
 326               	.LCFI16:
 327               		.cfi_def_cfa_offset 12
 328               		.cfi_offset 25, -11
 329 015c AF93      		push r26
 330               	.LCFI17:
 331               		.cfi_def_cfa_offset 13
 332               		.cfi_offset 26, -12
 333 015e BF93      		push r27
 334               	.LCFI18:
 335               		.cfi_def_cfa_offset 14
 336               		.cfi_offset 27, -13
 337 0160 EF93      		push r30
 338               	.LCFI19:
 339               		.cfi_def_cfa_offset 15
 340               		.cfi_offset 30, -14
 341 0162 FF93      		push r31
 342               	.LCFI20:
 343               		.cfi_def_cfa_offset 16
 344               		.cfi_offset 31, -15
 345               	/* prologue: Signal */
 346               	/* frame size = 0 */
 347               	/* stack size = 15 */
 348               	.L__stack_usage = 15
  70:src/main.c    **** 	PORTA.OUTSET = (1<<6);
 349               		.loc 1 70 0
 350 0164 80E4      		ldi r24,lo8(64)
 351 0166 E0E0      		ldi r30,lo8(1536)
 352 0168 F6E0      		ldi r31,hi8(1536)
 353 016a 8583      		std Z+5,r24
  71:src/main.c    **** 	g_usartData = USARTC0.DATA;
 354               		.loc 1 71 0
 355 016c 8091 A008 		lds r24,2208
 356               	.LVL7:
 357 0170 8093 0000 		sts g_usartData,r24
  72:src/main.c    **** 	process_usb(true);
 358               		.loc 1 72 0
 359 0174 81E0      		ldi r24,lo8(1)
 360               	.LVL8:
 361 0176 0E94 0000 		call process_usb
 362               	/* epilogue start */
  73:src/main.c    **** }
 363               		.loc 1 73 0
 364 017a FF91      		pop r31
 365 017c EF91      		pop r30
GAS LISTING /tmp/ccwf6aFs.s 			page 16


 366 017e BF91      		pop r27
 367 0180 AF91      		pop r26
 368 0182 9F91      		pop r25
 369 0184 8F91      		pop r24
 370 0186 7F91      		pop r23
 371 0188 6F91      		pop r22
 372 018a 5F91      		pop r21
 373 018c 4F91      		pop r20
 374 018e 3F91      		pop r19
 375 0190 2F91      		pop r18
 376 0192 0F90      		pop r0
 377 0194 0FBE      		out __SREG__,r0
 378 0196 0F90      		pop r0
 379 0198 1F90      		pop r1
 380 019a 1895      		reti
 381               		.cfi_endproc
 382               	.LFE263:
 383               		.size	__vector_25, .-__vector_25
 384               	.global	spi_init_pins
 385               		.type	spi_init_pins, @function
 386               	spi_init_pins:
 387               	.LFB264:
  74:src/main.c    **** 
  75:src/main.c    **** void spi_init_pins(void)
  76:src/main.c    **** {
 388               		.loc 1 76 0
 389               		.cfi_startproc
 390               	/* prologue: function */
 391               	/* frame size = 0 */
 392               	/* stack size = 0 */
 393               	.L__stack_usage = 0
  77:src/main.c    **** 	PORTC.DIRSET = (1<<4) | (1<<5) | (1<<7);
 394               		.loc 1 77 0
 395 019c E0E4      		ldi r30,lo8(1600)
 396 019e F6E0      		ldi r31,hi8(1600)
 397 01a0 80EB      		ldi r24,lo8(-80)
 398 01a2 8183      		std Z+1,r24
  78:src/main.c    **** 	PORTC.PIN4CTRL = PORT_OPC_PULLUP_gc;
 399               		.loc 1 78 0
 400 01a4 88E1      		ldi r24,lo8(24)
 401 01a6 848B      		std Z+20,r24
  79:src/main.c    **** 	PORTC.PIN5CTRL = PORT_OPC_PULLUP_gc;
 402               		.loc 1 79 0
 403 01a8 858B      		std Z+21,r24
  80:src/main.c    **** 	PORTC.PIN7CTRL = PORT_OPC_PULLUP_gc;
 404               		.loc 1 80 0
 405 01aa 878B      		std Z+23,r24
 406               	/* epilogue start */
  81:src/main.c    **** }
 407               		.loc 1 81 0
 408 01ac 0895      		ret
 409               		.cfi_endproc
 410               	.LFE264:
 411               		.size	spi_init_pins, .-spi_init_pins
 412               	.global	spi_init_module
 413               		.type	spi_init_module, @function
 414               	spi_init_module:
GAS LISTING /tmp/ccwf6aFs.s 			page 17


 415               	.LFB265:
  82:src/main.c    **** 
  83:src/main.c    **** void spi_init_module(void)
  84:src/main.c    **** {
 416               		.loc 1 84 0
 417               		.cfi_startproc
 418 01ae CF92      		push r12
 419               	.LCFI21:
 420               		.cfi_def_cfa_offset 3
 421               		.cfi_offset 12, -2
 422 01b0 DF92      		push r13
 423               	.LCFI22:
 424               		.cfi_def_cfa_offset 4
 425               		.cfi_offset 13, -3
 426 01b2 EF92      		push r14
 427               	.LCFI23:
 428               		.cfi_def_cfa_offset 5
 429               		.cfi_offset 14, -4
 430 01b4 FF92      		push r15
 431               	.LCFI24:
 432               		.cfi_def_cfa_offset 6
 433               		.cfi_offset 15, -5
 434 01b6 0F93      		push r16
 435               	.LCFI25:
 436               		.cfi_def_cfa_offset 7
 437               		.cfi_offset 16, -6
 438 01b8 1F93      		push r17
 439               	.LCFI26:
 440               		.cfi_def_cfa_offset 8
 441               		.cfi_offset 17, -7
 442               	/* prologue: function */
 443               	/* frame size = 0 */
 444               	/* stack size = 6 */
 445               	.L__stack_usage = 6
  85:src/main.c    **** 	spi_master_init(&SPIC);
 446               		.loc 1 85 0
 447 01ba 80EC      		ldi r24,lo8(2240)
 448 01bc 98E0      		ldi r25,hi8(2240)
 449 01be 0E94 0000 		call spi_master_init
  86:src/main.c    **** 	spi_master_setup_device(&SPIC, &dummy_device, SPI_MODE_0, 2500000, 0);
 450               		.loc 1 86 0
 451 01c2 80EC      		ldi r24,lo8(2240)
 452 01c4 98E0      		ldi r25,hi8(2240)
 453 01c6 60E0      		ldi r22,lo8(dummy_device)
 454 01c8 70E0      		ldi r23,hi8(dummy_device)
 455 01ca 40E0      		ldi r20,lo8(0)
 456 01cc 00EA      		ldi r16,lo8(2500000)
 457 01ce 15E2      		ldi r17,hi8(2500000)
 458 01d0 26E2      		ldi r18,hlo8(2500000)
 459 01d2 30E0      		ldi r19,hhi8(2500000)
 460 01d4 CC24      		clr r12
 461 01d6 DD24      		clr r13
 462 01d8 7601      		movw r14,r12
 463 01da 0E94 0000 		call spi_master_setup_device
 464               	.LVL9:
 465               	.LBB160:
 466               	.LBB161:
GAS LISTING /tmp/ccwf6aFs.s 			page 18


 467               		.file 4 "./src/asf/xmega/drivers/spi/spi.h"
   1:./src/asf/xmega/drivers/spi/spi.h **** /*****************************************************************************
   2:./src/asf/xmega/drivers/spi/spi.h ****  *
   3:./src/asf/xmega/drivers/spi/spi.h ****  * \file
   4:./src/asf/xmega/drivers/spi/spi.h ****  *
   5:./src/asf/xmega/drivers/spi/spi.h ****  * \brief SPI driver for AVR.
   6:./src/asf/xmega/drivers/spi/spi.h ****  *
   7:./src/asf/xmega/drivers/spi/spi.h ****  * This file defines a useful set of functions for the SPI interface on AVR
   8:./src/asf/xmega/drivers/spi/spi.h ****  * devices.
   9:./src/asf/xmega/drivers/spi/spi.h ****  *
  10:./src/asf/xmega/drivers/spi/spi.h ****  * Copyright (c) 2009 Atmel Corporation. All rights reserved.
  11:./src/asf/xmega/drivers/spi/spi.h ****  *
  12:./src/asf/xmega/drivers/spi/spi.h ****  * \asf_license_start
  13:./src/asf/xmega/drivers/spi/spi.h ****  *
  14:./src/asf/xmega/drivers/spi/spi.h ****  * \page License
  15:./src/asf/xmega/drivers/spi/spi.h ****  *
  16:./src/asf/xmega/drivers/spi/spi.h ****  * Redistribution and use in source and binary forms, with or without
  17:./src/asf/xmega/drivers/spi/spi.h ****  * modification, are permitted provided that the following conditions are met:
  18:./src/asf/xmega/drivers/spi/spi.h ****  *
  19:./src/asf/xmega/drivers/spi/spi.h ****  * 1. Redistributions of source code must retain the above copyright notice,
  20:./src/asf/xmega/drivers/spi/spi.h ****  *    this list of conditions and the following disclaimer.
  21:./src/asf/xmega/drivers/spi/spi.h ****  *
  22:./src/asf/xmega/drivers/spi/spi.h ****  * 2. Redistributions in binary form must reproduce the above copyright notice,
  23:./src/asf/xmega/drivers/spi/spi.h ****  *    this list of conditions and the following disclaimer in the documentation
  24:./src/asf/xmega/drivers/spi/spi.h ****  *    and/or other materials provided with the distribution.
  25:./src/asf/xmega/drivers/spi/spi.h ****  *
  26:./src/asf/xmega/drivers/spi/spi.h ****  * 3. The name of Atmel may not be used to endorse or promote products derived
  27:./src/asf/xmega/drivers/spi/spi.h ****  *    from this software without specific prior written permission.
  28:./src/asf/xmega/drivers/spi/spi.h ****  *
  29:./src/asf/xmega/drivers/spi/spi.h ****  * 4. This software may only be redistributed and used in connection with an
  30:./src/asf/xmega/drivers/spi/spi.h ****  *    Atmel microcontroller product.
  31:./src/asf/xmega/drivers/spi/spi.h ****  *
  32:./src/asf/xmega/drivers/spi/spi.h ****  * THIS SOFTWARE IS PROVIDED BY ATMEL "AS IS" AND ANY EXPRESS OR IMPLIED
  33:./src/asf/xmega/drivers/spi/spi.h ****  * WARRANTIES, INCLUDING, BUT NOT LIMITED TO, THE IMPLIED WARRANTIES OF
  34:./src/asf/xmega/drivers/spi/spi.h ****  * MERCHANTABILITY, FITNESS FOR A PARTICULAR PURPOSE AND NON-INFRINGEMENT ARE
  35:./src/asf/xmega/drivers/spi/spi.h ****  * EXPRESSLY AND SPECIFICALLY DISCLAIMED. IN NO EVENT SHALL ATMEL BE LIABLE FOR
  36:./src/asf/xmega/drivers/spi/spi.h ****  * ANY DIRECT, INDIRECT, INCIDENTAL, SPECIAL, EXEMPLARY, OR CONSEQUENTIAL
  37:./src/asf/xmega/drivers/spi/spi.h ****  * DAMAGES (INCLUDING, BUT NOT LIMITED TO, PROCUREMENT OF SUBSTITUTE GOODS
  38:./src/asf/xmega/drivers/spi/spi.h ****  * OR SERVICES; LOSS OF USE, DATA, OR PROFITS; OR BUSINESS INTERRUPTION)
  39:./src/asf/xmega/drivers/spi/spi.h ****  * HOWEVER CAUSED AND ON ANY THEORY OF LIABILITY, WHETHER IN CONTRACT,
  40:./src/asf/xmega/drivers/spi/spi.h ****  * STRICT LIABILITY, OR TORT (INCLUDING NEGLIGENCE OR OTHERWISE) ARISING IN
  41:./src/asf/xmega/drivers/spi/spi.h ****  * ANY WAY OUT OF THE USE OF THIS SOFTWARE, EVEN IF ADVISED OF THE
  42:./src/asf/xmega/drivers/spi/spi.h ****  * POSSIBILITY OF SUCH DAMAGE.
  43:./src/asf/xmega/drivers/spi/spi.h ****  *
  44:./src/asf/xmega/drivers/spi/spi.h ****  * \asf_license_stop
  45:./src/asf/xmega/drivers/spi/spi.h ****  *
  46:./src/asf/xmega/drivers/spi/spi.h ****  ******************************************************************************/
  47:./src/asf/xmega/drivers/spi/spi.h **** 
  48:./src/asf/xmega/drivers/spi/spi.h **** 
  49:./src/asf/xmega/drivers/spi/spi.h **** #ifndef _SPI_H_
  50:./src/asf/xmega/drivers/spi/spi.h **** #define _SPI_H_
  51:./src/asf/xmega/drivers/spi/spi.h **** 
  52:./src/asf/xmega/drivers/spi/spi.h **** /**
  53:./src/asf/xmega/drivers/spi/spi.h ****  * \defgroup group_xmega_drivers_spi SPI - Serial Peripheral Interface
  54:./src/asf/xmega/drivers/spi/spi.h ****  *
  55:./src/asf/xmega/drivers/spi/spi.h ****  * Driver for the Serial Peripheral Interface (SPI).
  56:./src/asf/xmega/drivers/spi/spi.h ****  * Provides functions for configuring and using the SPI.
GAS LISTING /tmp/ccwf6aFs.s 			page 19


  57:./src/asf/xmega/drivers/spi/spi.h ****  *
  58:./src/asf/xmega/drivers/spi/spi.h ****  * \{
  59:./src/asf/xmega/drivers/spi/spi.h ****  */
  60:./src/asf/xmega/drivers/spi/spi.h **** 
  61:./src/asf/xmega/drivers/spi/spi.h **** #include "compiler.h"
  62:./src/asf/xmega/drivers/spi/spi.h **** #include "status_codes.h"
  63:./src/asf/xmega/drivers/spi/spi.h **** #include "ioport.h"
  64:./src/asf/xmega/drivers/spi/spi.h **** 
  65:./src/asf/xmega/drivers/spi/spi.h **** /*! \brief Calculates the SPI baudrate divider.
  66:./src/asf/xmega/drivers/spi/spi.h ****  *
  67:./src/asf/xmega/drivers/spi/spi.h ****  * \param baudrate The expected baudrate on the SPI.
  68:./src/asf/xmega/drivers/spi/spi.h ****  * \param clkper_hz  SPI module input clock frequency (Peripheral clock, Hz).
  69:./src/asf/xmega/drivers/spi/spi.h ****  * \param spi The SPI module address
  70:./src/asf/xmega/drivers/spi/spi.h ****  *
  71:./src/asf/xmega/drivers/spi/spi.h ****  * \return Divider or error code.
  72:./src/asf/xmega/drivers/spi/spi.h ****  *   \retval >=0  Success.
  73:./src/asf/xmega/drivers/spi/spi.h ****  *   \retval  <0  Error.
  74:./src/asf/xmega/drivers/spi/spi.h ****  */
  75:./src/asf/xmega/drivers/spi/spi.h **** int8_t spi_xmega_set_baud_div(SPI_t *spi, uint32_t baudrate, uint32_t clkper_hz);
  76:./src/asf/xmega/drivers/spi/spi.h **** 
  77:./src/asf/xmega/drivers/spi/spi.h **** /*! \brief Enables the SPI.
  78:./src/asf/xmega/drivers/spi/spi.h ****  *
  79:./src/asf/xmega/drivers/spi/spi.h ****  * \param spi Base address of the SPI instance.
  80:./src/asf/xmega/drivers/spi/spi.h ****  */
  81:./src/asf/xmega/drivers/spi/spi.h **** static inline void spi_enable(SPI_t *spi)
  82:./src/asf/xmega/drivers/spi/spi.h **** {
  83:./src/asf/xmega/drivers/spi/spi.h **** 	spi->CTRL |= SPI_ENABLE_bm;
 468               		.loc 4 83 0
 469 01de E0EC      		ldi r30,lo8(2240)
 470 01e0 F8E0      		ldi r31,hi8(2240)
 471 01e2 8081      		ld r24,Z
 472 01e4 8064      		ori r24,lo8(64)
 473 01e6 8083      		st Z,r24
 474               	/* epilogue start */
 475               	.LBE161:
 476               	.LBE160:
  87:src/main.c    **** 	spi_enable(&SPIC);
  88:src/main.c    **** }
 477               		.loc 1 88 0
 478 01e8 1F91      		pop r17
 479 01ea 0F91      		pop r16
 480 01ec FF90      		pop r15
 481 01ee EF90      		pop r14
 482 01f0 DF90      		pop r13
 483 01f2 CF90      		pop r12
 484 01f4 0895      		ret
 485               		.cfi_endproc
 486               	.LFE265:
 487               		.size	spi_init_module, .-spi_init_module
 488               	.global	main
 489               		.type	main, @function
 490               	main:
 491               	.LFB266:
  89:src/main.c    **** 
  90:src/main.c    **** 
  91:src/main.c    **** int main (void)
  92:src/main.c    **** {
GAS LISTING /tmp/ccwf6aFs.s 			page 20


 492               		.loc 1 92 0
 493               		.cfi_startproc
 494 01f6 CF93      		push r28
 495               	.LCFI27:
 496               		.cfi_def_cfa_offset 3
 497               		.cfi_offset 28, -2
 498 01f8 DF93      		push r29
 499               	.LCFI28:
 500               		.cfi_def_cfa_offset 4
 501               		.cfi_offset 29, -3
 502 01fa CDB7      		in r28,__SP_L__
 503 01fc DEB7      		in r29,__SP_H__
 504 01fe 2E97      		sbiw r28,14
 505               	.LCFI29:
 506               		.cfi_def_cfa 28, 18
 507 0200 CDBF      		out __SP_L__,r28
 508 0202 DEBF      		out __SP_H__,r29
 509               	/* prologue: function */
 510               	/* frame size = 14 */
 511               	/* stack size = 16 */
 512               	.L__stack_usage = 16
  93:src/main.c    **** 	sysclk_init();
 513               		.loc 1 93 0
 514 0204 0E94 0000 		call sysclk_init
 515               	.LBB162:
 516               	.LBB163:
 517               		.file 5 "./src/asf/xmega/drivers/pmic/pmic.h"
   1:./src/asf/xmega/drivers/pmic/pmic.h **** /**
   2:./src/asf/xmega/drivers/pmic/pmic.h ****  * \file
   3:./src/asf/xmega/drivers/pmic/pmic.h ****  *
   4:./src/asf/xmega/drivers/pmic/pmic.h ****  * \brief Programmable Multilevel Interrupt Controller driver
   5:./src/asf/xmega/drivers/pmic/pmic.h ****  *
   6:./src/asf/xmega/drivers/pmic/pmic.h ****  * Copyright (c) 2010-2012 Atmel Corporation. All rights reserved.
   7:./src/asf/xmega/drivers/pmic/pmic.h ****  *
   8:./src/asf/xmega/drivers/pmic/pmic.h ****  * \asf_license_start
   9:./src/asf/xmega/drivers/pmic/pmic.h ****  *
  10:./src/asf/xmega/drivers/pmic/pmic.h ****  * \page License
  11:./src/asf/xmega/drivers/pmic/pmic.h ****  *
  12:./src/asf/xmega/drivers/pmic/pmic.h ****  * Redistribution and use in source and binary forms, with or without
  13:./src/asf/xmega/drivers/pmic/pmic.h ****  * modification, are permitted provided that the following conditions are met:
  14:./src/asf/xmega/drivers/pmic/pmic.h ****  *
  15:./src/asf/xmega/drivers/pmic/pmic.h ****  * 1. Redistributions of source code must retain the above copyright notice,
  16:./src/asf/xmega/drivers/pmic/pmic.h ****  *    this list of conditions and the following disclaimer.
  17:./src/asf/xmega/drivers/pmic/pmic.h ****  *
  18:./src/asf/xmega/drivers/pmic/pmic.h ****  * 2. Redistributions in binary form must reproduce the above copyright notice,
  19:./src/asf/xmega/drivers/pmic/pmic.h ****  *    this list of conditions and the following disclaimer in the documentation
  20:./src/asf/xmega/drivers/pmic/pmic.h ****  *    and/or other materials provided with the distribution.
  21:./src/asf/xmega/drivers/pmic/pmic.h ****  *
  22:./src/asf/xmega/drivers/pmic/pmic.h ****  * 3. The name of Atmel may not be used to endorse or promote products derived
  23:./src/asf/xmega/drivers/pmic/pmic.h ****  *    from this software without specific prior written permission.
  24:./src/asf/xmega/drivers/pmic/pmic.h ****  *
  25:./src/asf/xmega/drivers/pmic/pmic.h ****  * 4. This software may only be redistributed and used in connection with an
  26:./src/asf/xmega/drivers/pmic/pmic.h ****  *    Atmel microcontroller product.
  27:./src/asf/xmega/drivers/pmic/pmic.h ****  *
  28:./src/asf/xmega/drivers/pmic/pmic.h ****  * THIS SOFTWARE IS PROVIDED BY ATMEL "AS IS" AND ANY EXPRESS OR IMPLIED
  29:./src/asf/xmega/drivers/pmic/pmic.h ****  * WARRANTIES, INCLUDING, BUT NOT LIMITED TO, THE IMPLIED WARRANTIES OF
  30:./src/asf/xmega/drivers/pmic/pmic.h ****  * MERCHANTABILITY, FITNESS FOR A PARTICULAR PURPOSE AND NON-INFRINGEMENT ARE
GAS LISTING /tmp/ccwf6aFs.s 			page 21


  31:./src/asf/xmega/drivers/pmic/pmic.h ****  * EXPRESSLY AND SPECIFICALLY DISCLAIMED. IN NO EVENT SHALL ATMEL BE LIABLE FOR
  32:./src/asf/xmega/drivers/pmic/pmic.h ****  * ANY DIRECT, INDIRECT, INCIDENTAL, SPECIAL, EXEMPLARY, OR CONSEQUENTIAL
  33:./src/asf/xmega/drivers/pmic/pmic.h ****  * DAMAGES (INCLUDING, BUT NOT LIMITED TO, PROCUREMENT OF SUBSTITUTE GOODS
  34:./src/asf/xmega/drivers/pmic/pmic.h ****  * OR SERVICES; LOSS OF USE, DATA, OR PROFITS; OR BUSINESS INTERRUPTION)
  35:./src/asf/xmega/drivers/pmic/pmic.h ****  * HOWEVER CAUSED AND ON ANY THEORY OF LIABILITY, WHETHER IN CONTRACT,
  36:./src/asf/xmega/drivers/pmic/pmic.h ****  * STRICT LIABILITY, OR TORT (INCLUDING NEGLIGENCE OR OTHERWISE) ARISING IN
  37:./src/asf/xmega/drivers/pmic/pmic.h ****  * ANY WAY OUT OF THE USE OF THIS SOFTWARE, EVEN IF ADVISED OF THE
  38:./src/asf/xmega/drivers/pmic/pmic.h ****  * POSSIBILITY OF SUCH DAMAGE.
  39:./src/asf/xmega/drivers/pmic/pmic.h ****  *
  40:./src/asf/xmega/drivers/pmic/pmic.h ****  * \asf_license_stop
  41:./src/asf/xmega/drivers/pmic/pmic.h ****  *
  42:./src/asf/xmega/drivers/pmic/pmic.h ****  */
  43:./src/asf/xmega/drivers/pmic/pmic.h **** #ifndef PMIC_H
  44:./src/asf/xmega/drivers/pmic/pmic.h **** #define PMIC_H
  45:./src/asf/xmega/drivers/pmic/pmic.h **** 
  46:./src/asf/xmega/drivers/pmic/pmic.h **** #include <compiler.h>
  47:./src/asf/xmega/drivers/pmic/pmic.h **** #include <ccp.h>
  48:./src/asf/xmega/drivers/pmic/pmic.h **** 
  49:./src/asf/xmega/drivers/pmic/pmic.h **** /**
  50:./src/asf/xmega/drivers/pmic/pmic.h ****  * \defgroup pmic_group Programmable Multilevel Interrupt Controller
  51:./src/asf/xmega/drivers/pmic/pmic.h ****  *
  52:./src/asf/xmega/drivers/pmic/pmic.h ****  * See \ref xmega_pmic_quickstart.
  53:./src/asf/xmega/drivers/pmic/pmic.h ****  *
  54:./src/asf/xmega/drivers/pmic/pmic.h ****  * This is a low-level driver implementation for the AVR XMEGA Programmable
  55:./src/asf/xmega/drivers/pmic/pmic.h ****  * Multilevel Interrupt Controller.
  56:./src/asf/xmega/drivers/pmic/pmic.h ****  *
  57:./src/asf/xmega/drivers/pmic/pmic.h ****  * \note If these functions are used in interrupt service routines (ISRs), any
  58:./src/asf/xmega/drivers/pmic/pmic.h ****  * non-ISR code or ISR code for lower level interrupts must ensure that the
  59:./src/asf/xmega/drivers/pmic/pmic.h ****  * operations are atomic, i.e., by disabling interrupts during the function
  60:./src/asf/xmega/drivers/pmic/pmic.h ****  * calls.
  61:./src/asf/xmega/drivers/pmic/pmic.h ****  * @{
  62:./src/asf/xmega/drivers/pmic/pmic.h ****  */
  63:./src/asf/xmega/drivers/pmic/pmic.h **** 
  64:./src/asf/xmega/drivers/pmic/pmic.h **** /**
  65:./src/asf/xmega/drivers/pmic/pmic.h ****  * \brief Interrupt level bitmasks
  66:./src/asf/xmega/drivers/pmic/pmic.h ****  *
  67:./src/asf/xmega/drivers/pmic/pmic.h ****  * \note These may be OR'ed, e.g., if multiple levels are to be enabled or
  68:./src/asf/xmega/drivers/pmic/pmic.h ****  * disabled.
  69:./src/asf/xmega/drivers/pmic/pmic.h ****  */
  70:./src/asf/xmega/drivers/pmic/pmic.h **** enum pmic_level {
  71:./src/asf/xmega/drivers/pmic/pmic.h **** 	PMIC_LVL_LOW    = PMIC_LOLVLEN_bm,    //!< Low-level interrupts
  72:./src/asf/xmega/drivers/pmic/pmic.h **** 	PMIC_LVL_MEDIUM = PMIC_MEDLVLEN_bm,   //!< Medium-level interrupts
  73:./src/asf/xmega/drivers/pmic/pmic.h **** 	PMIC_LVL_HIGH   = PMIC_HILVLEN_bm,    //!< High-level interrupts
  74:./src/asf/xmega/drivers/pmic/pmic.h **** 	/**
  75:./src/asf/xmega/drivers/pmic/pmic.h **** 	 * \brief Non-maskable interrupts
  76:./src/asf/xmega/drivers/pmic/pmic.h **** 	 * \note These cannot be enabled nor disabled.
  77:./src/asf/xmega/drivers/pmic/pmic.h **** 	 */
  78:./src/asf/xmega/drivers/pmic/pmic.h **** 	PMIC_LVL_NMI    = PMIC_NMIEX_bp,
  79:./src/asf/xmega/drivers/pmic/pmic.h **** };
  80:./src/asf/xmega/drivers/pmic/pmic.h **** 
  81:./src/asf/xmega/drivers/pmic/pmic.h **** //! Interrupt vector locations
  82:./src/asf/xmega/drivers/pmic/pmic.h **** enum pmic_vector {
  83:./src/asf/xmega/drivers/pmic/pmic.h **** 	PMIC_VEC_APPLICATION,    //!< Application section
  84:./src/asf/xmega/drivers/pmic/pmic.h **** 	PMIC_VEC_BOOT,           //!< Boot section
  85:./src/asf/xmega/drivers/pmic/pmic.h **** 	PMIC_NR_OF_VECTORS,      //!< Number of interrupt vector locations
  86:./src/asf/xmega/drivers/pmic/pmic.h **** };
  87:./src/asf/xmega/drivers/pmic/pmic.h **** 
GAS LISTING /tmp/ccwf6aFs.s 			page 22


  88:./src/asf/xmega/drivers/pmic/pmic.h **** //! Interrupt scheduling schemes
  89:./src/asf/xmega/drivers/pmic/pmic.h **** enum pmic_schedule {
  90:./src/asf/xmega/drivers/pmic/pmic.h **** 	PMIC_SCH_FIXED_PRIORITY, //!< Default, fixed priority scheduling
  91:./src/asf/xmega/drivers/pmic/pmic.h **** 	PMIC_SCH_ROUND_ROBIN,    //!< Round-robin scheduling
  92:./src/asf/xmega/drivers/pmic/pmic.h **** 	PMIC_NR_OF_SCHEDULES,    //!< Number of interrupt scheduling schemes
  93:./src/asf/xmega/drivers/pmic/pmic.h **** };
  94:./src/asf/xmega/drivers/pmic/pmic.h **** 
  95:./src/asf/xmega/drivers/pmic/pmic.h **** /**
  96:./src/asf/xmega/drivers/pmic/pmic.h ****  * \brief Initialize the PMIC
  97:./src/asf/xmega/drivers/pmic/pmic.h ****  *
  98:./src/asf/xmega/drivers/pmic/pmic.h ****  * Enables all interrupt levels, with vectors located in the application section
  99:./src/asf/xmega/drivers/pmic/pmic.h ****  * and fixed priority scheduling.
 100:./src/asf/xmega/drivers/pmic/pmic.h ****  */
 101:./src/asf/xmega/drivers/pmic/pmic.h **** static inline void pmic_init(void)
 102:./src/asf/xmega/drivers/pmic/pmic.h **** {
 103:./src/asf/xmega/drivers/pmic/pmic.h **** 	PMIC.CTRL = PMIC_LVL_LOW | PMIC_LVL_MEDIUM |
 518               		.loc 5 103 0
 519 0208 E0EA      		ldi r30,lo8(160)
 520 020a F0E0      		ldi r31,hi8(160)
 521 020c 87E0      		ldi r24,lo8(7)
 522 020e 8283      		std Z+2,r24
 523               	.LBE163:
 524               	.LBE162:
  94:src/main.c    **** 	pmic_init();
  95:src/main.c    **** 	irq_initialize_vectors();
 525               		.loc 1 95 0
 526 0210 8283      		std Z+2,r24
  96:src/main.c    **** 	cpu_irq_enable();
 527               		.loc 1 96 0
 528               	/* #APP */
 529               	 ;  96 "src/main.c" 1
 530 0212 7894      		sei
 531               	 ;  0 "" 2
  97:src/main.c    **** 
  98:src/main.c    **** 	struct usart_rs232_options usart_params;
  99:src/main.c    **** 	
 100:src/main.c    **** 	usart_params.baudrate = 115200;
 532               		.loc 1 100 0
 533               	/* #NOAPP */
 534 0214 80E0      		ldi r24,lo8(115200)
 535 0216 92EC      		ldi r25,hi8(115200)
 536 0218 A1E0      		ldi r26,hlo8(115200)
 537 021a B0E0      		ldi r27,hhi8(115200)
 538 021c 8983      		std Y+1,r24
 539 021e 9A83      		std Y+2,r25
 540 0220 AB83      		std Y+3,r26
 541 0222 BC83      		std Y+4,r27
 101:src/main.c    **** 	usart_params.charlength = USART_CHSIZE_8BIT_gc;
 542               		.loc 1 101 0
 543 0224 13E0      		ldi r17,lo8(3)
 544 0226 1D83      		std Y+5,r17
 102:src/main.c    **** 	usart_params.paritytype = USART_PMODE_DISABLED_gc;
 545               		.loc 1 102 0
 546 0228 1E82      		std Y+6,__zero_reg__
 103:src/main.c    **** 	usart_params.stopbits = false;
 547               		.loc 1 103 0
 548 022a 1F82      		std Y+7,__zero_reg__
GAS LISTING /tmp/ccwf6aFs.s 			page 23


 549               	.LVL10:
 550               	.LBB164:
 551               	.LBB165:
 552               		.file 6 "./src/asf/common/utils/stdio/stdio_serial/stdio_serial.h"
   1:./src/asf/common/utils/stdio/stdio_serial/stdio_serial.h **** /**
   2:./src/asf/common/utils/stdio/stdio_serial/stdio_serial.h ****  *
   3:./src/asf/common/utils/stdio/stdio_serial/stdio_serial.h ****  * \file
   4:./src/asf/common/utils/stdio/stdio_serial/stdio_serial.h ****  *
   5:./src/asf/common/utils/stdio/stdio_serial/stdio_serial.h ****  * \brief Common Standard I/O Serial Management.
   6:./src/asf/common/utils/stdio/stdio_serial/stdio_serial.h ****  *
   7:./src/asf/common/utils/stdio/stdio_serial/stdio_serial.h ****  * This file defines a useful set of functions for the Stdio Serial interface on AVR
   8:./src/asf/common/utils/stdio/stdio_serial/stdio_serial.h ****  * and SAM devices.
   9:./src/asf/common/utils/stdio/stdio_serial/stdio_serial.h ****  *
  10:./src/asf/common/utils/stdio/stdio_serial/stdio_serial.h ****  * Copyright (c) 2009-2012 Atmel Corporation. All rights reserved.
  11:./src/asf/common/utils/stdio/stdio_serial/stdio_serial.h ****  *
  12:./src/asf/common/utils/stdio/stdio_serial/stdio_serial.h ****  * \asf_license_start
  13:./src/asf/common/utils/stdio/stdio_serial/stdio_serial.h ****  *
  14:./src/asf/common/utils/stdio/stdio_serial/stdio_serial.h ****  * \page License
  15:./src/asf/common/utils/stdio/stdio_serial/stdio_serial.h ****  *
  16:./src/asf/common/utils/stdio/stdio_serial/stdio_serial.h ****  * Redistribution and use in source and binary forms, with or without
  17:./src/asf/common/utils/stdio/stdio_serial/stdio_serial.h ****  * modification, are permitted provided that the following conditions are met:
  18:./src/asf/common/utils/stdio/stdio_serial/stdio_serial.h ****  *
  19:./src/asf/common/utils/stdio/stdio_serial/stdio_serial.h ****  * 1. Redistributions of source code must retain the above copyright notice,
  20:./src/asf/common/utils/stdio/stdio_serial/stdio_serial.h ****  *    this list of conditions and the following disclaimer.
  21:./src/asf/common/utils/stdio/stdio_serial/stdio_serial.h ****  *
  22:./src/asf/common/utils/stdio/stdio_serial/stdio_serial.h ****  * 2. Redistributions in binary form must reproduce the above copyright notice,
  23:./src/asf/common/utils/stdio/stdio_serial/stdio_serial.h ****  *    this list of conditions and the following disclaimer in the documentation
  24:./src/asf/common/utils/stdio/stdio_serial/stdio_serial.h ****  *    and/or other materials provided with the distribution.
  25:./src/asf/common/utils/stdio/stdio_serial/stdio_serial.h ****  *
  26:./src/asf/common/utils/stdio/stdio_serial/stdio_serial.h ****  * 3. The name of Atmel may not be used to endorse or promote products derived
  27:./src/asf/common/utils/stdio/stdio_serial/stdio_serial.h ****  *    from this software without specific prior written permission.
  28:./src/asf/common/utils/stdio/stdio_serial/stdio_serial.h ****  *
  29:./src/asf/common/utils/stdio/stdio_serial/stdio_serial.h ****  * 4. This software may only be redistributed and used in connection with an
  30:./src/asf/common/utils/stdio/stdio_serial/stdio_serial.h ****  *    Atmel microcontroller product.
  31:./src/asf/common/utils/stdio/stdio_serial/stdio_serial.h ****  *
  32:./src/asf/common/utils/stdio/stdio_serial/stdio_serial.h ****  * THIS SOFTWARE IS PROVIDED BY ATMEL "AS IS" AND ANY EXPRESS OR IMPLIED
  33:./src/asf/common/utils/stdio/stdio_serial/stdio_serial.h ****  * WARRANTIES, INCLUDING, BUT NOT LIMITED TO, THE IMPLIED WARRANTIES OF
  34:./src/asf/common/utils/stdio/stdio_serial/stdio_serial.h ****  * MERCHANTABILITY, FITNESS FOR A PARTICULAR PURPOSE AND NON-INFRINGEMENT ARE
  35:./src/asf/common/utils/stdio/stdio_serial/stdio_serial.h ****  * EXPRESSLY AND SPECIFICALLY DISCLAIMED. IN NO EVENT SHALL ATMEL BE LIABLE FOR
  36:./src/asf/common/utils/stdio/stdio_serial/stdio_serial.h ****  * ANY DIRECT, INDIRECT, INCIDENTAL, SPECIAL, EXEMPLARY, OR CONSEQUENTIAL
  37:./src/asf/common/utils/stdio/stdio_serial/stdio_serial.h ****  * DAMAGES (INCLUDING, BUT NOT LIMITED TO, PROCUREMENT OF SUBSTITUTE GOODS
  38:./src/asf/common/utils/stdio/stdio_serial/stdio_serial.h ****  * OR SERVICES; LOSS OF USE, DATA, OR PROFITS; OR BUSINESS INTERRUPTION)
  39:./src/asf/common/utils/stdio/stdio_serial/stdio_serial.h ****  * HOWEVER CAUSED AND ON ANY THEORY OF LIABILITY, WHETHER IN CONTRACT,
  40:./src/asf/common/utils/stdio/stdio_serial/stdio_serial.h ****  * STRICT LIABILITY, OR TORT (INCLUDING NEGLIGENCE OR OTHERWISE) ARISING IN
  41:./src/asf/common/utils/stdio/stdio_serial/stdio_serial.h ****  * ANY WAY OUT OF THE USE OF THIS SOFTWARE, EVEN IF ADVISED OF THE
  42:./src/asf/common/utils/stdio/stdio_serial/stdio_serial.h ****  * POSSIBILITY OF SUCH DAMAGE.
  43:./src/asf/common/utils/stdio/stdio_serial/stdio_serial.h ****  *
  44:./src/asf/common/utils/stdio/stdio_serial/stdio_serial.h ****  * \asf_license_stop
  45:./src/asf/common/utils/stdio/stdio_serial/stdio_serial.h ****  *
  46:./src/asf/common/utils/stdio/stdio_serial/stdio_serial.h ****  ******************************************************************************/
  47:./src/asf/common/utils/stdio/stdio_serial/stdio_serial.h **** 
  48:./src/asf/common/utils/stdio/stdio_serial/stdio_serial.h **** 
  49:./src/asf/common/utils/stdio/stdio_serial/stdio_serial.h **** #ifndef _STDIO_SERIAL_H_
  50:./src/asf/common/utils/stdio/stdio_serial/stdio_serial.h **** #define _STDIO_SERIAL_H_
  51:./src/asf/common/utils/stdio/stdio_serial/stdio_serial.h **** 
  52:./src/asf/common/utils/stdio/stdio_serial/stdio_serial.h **** /**
  53:./src/asf/common/utils/stdio/stdio_serial/stdio_serial.h ****  * \defgroup group_common_utils_stdio_stdio_serial Standard serial I/O (stdio)
GAS LISTING /tmp/ccwf6aFs.s 			page 24


  54:./src/asf/common/utils/stdio/stdio_serial/stdio_serial.h ****  * \ingroup group_common_utils_stdio
  55:./src/asf/common/utils/stdio/stdio_serial/stdio_serial.h ****  *
  56:./src/asf/common/utils/stdio/stdio_serial/stdio_serial.h ****  * Common standard serial I/O management driver that
  57:./src/asf/common/utils/stdio/stdio_serial/stdio_serial.h ****  * implements a stdio serial interface on AVR and SAM devices.
  58:./src/asf/common/utils/stdio/stdio_serial/stdio_serial.h ****  *
  59:./src/asf/common/utils/stdio/stdio_serial/stdio_serial.h ****  * \{
  60:./src/asf/common/utils/stdio/stdio_serial/stdio_serial.h ****  */
  61:./src/asf/common/utils/stdio/stdio_serial/stdio_serial.h **** 
  62:./src/asf/common/utils/stdio/stdio_serial/stdio_serial.h **** #include <stdio.h>
  63:./src/asf/common/utils/stdio/stdio_serial/stdio_serial.h **** #include "compiler.h"
  64:./src/asf/common/utils/stdio/stdio_serial/stdio_serial.h **** #include "sysclk.h"
  65:./src/asf/common/utils/stdio/stdio_serial/stdio_serial.h **** #include "serial.h"
  66:./src/asf/common/utils/stdio/stdio_serial/stdio_serial.h **** 
  67:./src/asf/common/utils/stdio/stdio_serial/stdio_serial.h **** #if XMEGA && defined(__GNUC__)
  68:./src/asf/common/utils/stdio/stdio_serial/stdio_serial.h **** 	extern int _write (char c, int *f);
  69:./src/asf/common/utils/stdio/stdio_serial/stdio_serial.h **** 	extern int _read (int *f);
  70:./src/asf/common/utils/stdio/stdio_serial/stdio_serial.h **** #endif
  71:./src/asf/common/utils/stdio/stdio_serial/stdio_serial.h **** 
  72:./src/asf/common/utils/stdio/stdio_serial/stdio_serial.h **** 
  73:./src/asf/common/utils/stdio/stdio_serial/stdio_serial.h **** //! Pointer to the base of the USART module instance to use for stdio.
  74:./src/asf/common/utils/stdio/stdio_serial/stdio_serial.h **** extern volatile void *volatile stdio_base;
  75:./src/asf/common/utils/stdio/stdio_serial/stdio_serial.h **** //! Pointer to the external low level write function.
  76:./src/asf/common/utils/stdio/stdio_serial/stdio_serial.h **** extern int (*ptr_put)(void volatile*, char);
  77:./src/asf/common/utils/stdio/stdio_serial/stdio_serial.h **** //! Pointer to the external low level read function.
  78:./src/asf/common/utils/stdio/stdio_serial/stdio_serial.h **** extern void (*ptr_get)(void volatile*, char*);
  79:./src/asf/common/utils/stdio/stdio_serial/stdio_serial.h **** 
  80:./src/asf/common/utils/stdio/stdio_serial/stdio_serial.h **** /*! \brief Initializes the stdio in Serial Mode.
  81:./src/asf/common/utils/stdio/stdio_serial/stdio_serial.h ****  *
  82:./src/asf/common/utils/stdio/stdio_serial/stdio_serial.h ****  * \param usart       Base address of the USART instance.
  83:./src/asf/common/utils/stdio/stdio_serial/stdio_serial.h ****  * \param opt         Options needed to set up RS232 communication (see \ref usart_options_t).
  84:./src/asf/common/utils/stdio/stdio_serial/stdio_serial.h ****  *
  85:./src/asf/common/utils/stdio/stdio_serial/stdio_serial.h ****  */
  86:./src/asf/common/utils/stdio/stdio_serial/stdio_serial.h **** static inline void stdio_serial_init(volatile void *usart, const usart_serial_options_t *opt)
  87:./src/asf/common/utils/stdio/stdio_serial/stdio_serial.h **** {
  88:./src/asf/common/utils/stdio/stdio_serial/stdio_serial.h **** 	stdio_base = (void *)usart;
 553               		.loc 6 88 0
 554 022c 20EA      		ldi r18,lo8(2720)
 555 022e 3AE0      		ldi r19,hi8(2720)
 556 0230 2093 0000 		sts stdio_base,r18
 557 0234 3093 0000 		sts stdio_base+1,r19
  89:./src/asf/common/utils/stdio/stdio_serial/stdio_serial.h **** 	ptr_put = (int (*)(void volatile*,char))&usart_serial_putchar;
 558               		.loc 6 89 0
 559 0238 20E0      		ldi r18,lo8(gs(usart_serial_putchar))
 560 023a 30E0      		ldi r19,hi8(gs(usart_serial_putchar))
 561 023c 2093 0000 		sts ptr_put,r18
 562 0240 3093 0000 		sts ptr_put+1,r19
  90:./src/asf/common/utils/stdio/stdio_serial/stdio_serial.h **** 	ptr_get = (void (*)(void volatile*,char*))&usart_serial_getchar;
 563               		.loc 6 90 0
 564 0244 20E0      		ldi r18,lo8(gs(usart_serial_getchar))
 565 0246 30E0      		ldi r19,hi8(gs(usart_serial_getchar))
 566 0248 2093 0000 		sts ptr_get,r18
 567 024c 3093 0000 		sts ptr_get+1,r19
 568               	.LVL11:
 569               	.LBB166:
 570               	.LBB167:
  75:./src/asf/common/services/serial/xmega_usart/usart_serial.h **** 	usart_rs232_options.charlength   = options->charlength;
 571               		.loc 2 75 0
GAS LISTING /tmp/ccwf6aFs.s 			page 25


 572 0250 1C87      		std Y+12,r17
  76:./src/asf/common/services/serial/xmega_usart/usart_serial.h **** 	usart_rs232_options.paritytype   = options->paritytype;
 573               		.loc 2 76 0
 574 0252 1D86      		std Y+13,__zero_reg__
  77:./src/asf/common/services/serial/xmega_usart/usart_serial.h **** 	usart_rs232_options.stopbits     = options->stopbits;
 575               		.loc 2 77 0
 576 0254 1E86      		std Y+14,__zero_reg__
  78:./src/asf/common/services/serial/xmega_usart/usart_serial.h **** 	usart_rs232_options.baudrate     = options->baudrate;
 577               		.loc 2 78 0
 578 0256 8887      		std Y+8,r24
 579 0258 9987      		std Y+9,r25
 580 025a AA87      		std Y+10,r26
 581 025c BB87      		std Y+11,r27
 102:./src/asf/common/services/serial/xmega_usart/usart_serial.h **** 		sysclk_enable_module(SYSCLK_PORT_E,PR_USART0_bm);
 582               		.loc 2 102 0
 583 025e 85E0      		ldi r24,lo8(5)
 584 0260 60E1      		ldi r22,lo8(16)
 585 0262 0E94 0000 		call sysclk_enable_module
 120:./src/asf/common/services/serial/xmega_usart/usart_serial.h **** 	if (usart_init_rs232(usart, &usart_rs232_options)) {
 586               		.loc 2 120 0
 587 0266 80EA      		ldi r24,lo8(2720)
 588 0268 9AE0      		ldi r25,hi8(2720)
 589 026a BE01      		movw r22,r28
 590 026c 685F      		subi r22,lo8(-(8))
 591 026e 7F4F      		sbci r23,hi8(-(8))
 592 0270 0E94 0000 		call usart_init_rs232
 593               	.LBE167:
 594               	.LBE166:
  91:./src/asf/common/utils/stdio/stdio_serial/stdio_serial.h **** #if XMEGA
  92:./src/asf/common/utils/stdio/stdio_serial/stdio_serial.h **** 	usart_serial_init((USART_t *)usart,opt);
  93:./src/asf/common/utils/stdio/stdio_serial/stdio_serial.h **** #elif UC3
  94:./src/asf/common/utils/stdio/stdio_serial/stdio_serial.h **** 	usart_serial_init(usart,(usart_serial_options_t *)opt);
  95:./src/asf/common/utils/stdio/stdio_serial/stdio_serial.h **** #elif SAM
  96:./src/asf/common/utils/stdio/stdio_serial/stdio_serial.h **** 	usart_serial_init((Usart *)usart,(usart_serial_options_t *)opt);
  97:./src/asf/common/utils/stdio/stdio_serial/stdio_serial.h **** #else
  98:./src/asf/common/utils/stdio/stdio_serial/stdio_serial.h **** # error Unsupported chip type
  99:./src/asf/common/utils/stdio/stdio_serial/stdio_serial.h **** #endif
 100:./src/asf/common/utils/stdio/stdio_serial/stdio_serial.h **** 
 101:./src/asf/common/utils/stdio/stdio_serial/stdio_serial.h **** #if defined(__GNUC__)
 102:./src/asf/common/utils/stdio/stdio_serial/stdio_serial.h **** # if XMEGA
 103:./src/asf/common/utils/stdio/stdio_serial/stdio_serial.h **** 	// For AVR GCC libc print redirection uses fdevopen.
 104:./src/asf/common/utils/stdio/stdio_serial/stdio_serial.h **** 	fdevopen((int (*)(char, FILE*))(_write),(int (*)(FILE*))(_read));
 595               		.loc 6 104 0
 596 0274 80E0      		ldi r24,lo8(gs(_write))
 597 0276 90E0      		ldi r25,hi8(gs(_write))
 598 0278 60E0      		ldi r22,lo8(gs(_read))
 599 027a 70E0      		ldi r23,hi8(gs(_read))
 600 027c 0E94 0000 		call fdevopen
 601               	.LBE165:
 602               	.LBE164:
 104:src/main.c    **** 	stdio_serial_init(&USARTE0, &usart_params);
 105:src/main.c    **** 
 106:src/main.c    **** 	usart_params.baudrate = 2000000;
 603               		.loc 1 106 0
 604 0280 80E8      		ldi r24,lo8(2000000)
 605 0282 94E8      		ldi r25,hi8(2000000)
 606 0284 AEE1      		ldi r26,hlo8(2000000)
GAS LISTING /tmp/ccwf6aFs.s 			page 26


 607 0286 B0E0      		ldi r27,hhi8(2000000)
 608 0288 8983      		std Y+1,r24
 609 028a 9A83      		std Y+2,r25
 610 028c AB83      		std Y+3,r26
 611 028e BC83      		std Y+4,r27
 107:src/main.c    **** 	usart_params.charlength = USART_CHSIZE_8BIT_gc;
 612               		.loc 1 107 0
 613 0290 1D83      		std Y+5,r17
 108:src/main.c    **** 	usart_params.paritytype = USART_PMODE_DISABLED_gc;
 614               		.loc 1 108 0
 615 0292 1E82      		std Y+6,__zero_reg__
 109:src/main.c    **** 	usart_params.stopbits = false;
 616               		.loc 1 109 0
 617 0294 1F82      		std Y+7,__zero_reg__
 110:src/main.c    **** 	usart_init_rs232(&USARTC0, &usart_params);
 618               		.loc 1 110 0
 619 0296 80EA      		ldi r24,lo8(2208)
 620 0298 98E0      		ldi r25,hi8(2208)
 621 029a BE01      		movw r22,r28
 622 029c 6F5F      		subi r22,lo8(-(1))
 623 029e 7F4F      		sbci r23,hi8(-(1))
 624 02a0 0E94 0000 		call usart_init_rs232
 625               	.LVL12:
 626               	.LBB168:
 627               	.LBB169:
 628               		.file 7 "./src/asf/xmega/drivers/usart/usart.h"
   1:./src/asf/xmega/drivers/usart/usart.h **** /**
   2:./src/asf/xmega/drivers/usart/usart.h ****  * \file
   3:./src/asf/xmega/drivers/usart/usart.h ****  *
   4:./src/asf/xmega/drivers/usart/usart.h ****  * \brief USART driver for AVR XMEGA.
   5:./src/asf/xmega/drivers/usart/usart.h ****  *
   6:./src/asf/xmega/drivers/usart/usart.h ****  * This file contains basic functions for the AVR XMEGA USART, with support for all
   7:./src/asf/xmega/drivers/usart/usart.h ****  * modes, settings and clock speeds.
   8:./src/asf/xmega/drivers/usart/usart.h ****  *
   9:./src/asf/xmega/drivers/usart/usart.h ****  * Copyright (c) 2009-2012 Atmel Corporation. All rights reserved.
  10:./src/asf/xmega/drivers/usart/usart.h ****  *
  11:./src/asf/xmega/drivers/usart/usart.h ****  * \asf_license_start
  12:./src/asf/xmega/drivers/usart/usart.h ****  *
  13:./src/asf/xmega/drivers/usart/usart.h ****  * \page License
  14:./src/asf/xmega/drivers/usart/usart.h ****  *
  15:./src/asf/xmega/drivers/usart/usart.h ****  * Redistribution and use in source and binary forms, with or without
  16:./src/asf/xmega/drivers/usart/usart.h ****  * modification, are permitted provided that the following conditions are met:
  17:./src/asf/xmega/drivers/usart/usart.h ****  *
  18:./src/asf/xmega/drivers/usart/usart.h ****  * 1. Redistributions of source code must retain the above copyright notice,
  19:./src/asf/xmega/drivers/usart/usart.h ****  *    this list of conditions and the following disclaimer.
  20:./src/asf/xmega/drivers/usart/usart.h ****  *
  21:./src/asf/xmega/drivers/usart/usart.h ****  * 2. Redistributions in binary form must reproduce the above copyright notice,
  22:./src/asf/xmega/drivers/usart/usart.h ****  *    this list of conditions and the following disclaimer in the documentation
  23:./src/asf/xmega/drivers/usart/usart.h ****  *    and/or other materials provided with the distribution.
  24:./src/asf/xmega/drivers/usart/usart.h ****  *
  25:./src/asf/xmega/drivers/usart/usart.h ****  * 3. The name of Atmel may not be used to endorse or promote products derived
  26:./src/asf/xmega/drivers/usart/usart.h ****  *    from this software without specific prior written permission.
  27:./src/asf/xmega/drivers/usart/usart.h ****  *
  28:./src/asf/xmega/drivers/usart/usart.h ****  * 4. This software may only be redistributed and used in connection with an
  29:./src/asf/xmega/drivers/usart/usart.h ****  *    Atmel microcontroller product.
  30:./src/asf/xmega/drivers/usart/usart.h ****  *
  31:./src/asf/xmega/drivers/usart/usart.h ****  * THIS SOFTWARE IS PROVIDED BY ATMEL "AS IS" AND ANY EXPRESS OR IMPLIED
GAS LISTING /tmp/ccwf6aFs.s 			page 27


  32:./src/asf/xmega/drivers/usart/usart.h ****  * WARRANTIES, INCLUDING, BUT NOT LIMITED TO, THE IMPLIED WARRANTIES OF
  33:./src/asf/xmega/drivers/usart/usart.h ****  * MERCHANTABILITY, FITNESS FOR A PARTICULAR PURPOSE AND NON-INFRINGEMENT ARE
  34:./src/asf/xmega/drivers/usart/usart.h ****  * EXPRESSLY AND SPECIFICALLY DISCLAIMED. IN NO EVENT SHALL ATMEL BE LIABLE FOR
  35:./src/asf/xmega/drivers/usart/usart.h ****  * ANY DIRECT, INDIRECT, INCIDENTAL, SPECIAL, EXEMPLARY, OR CONSEQUENTIAL
  36:./src/asf/xmega/drivers/usart/usart.h ****  * DAMAGES (INCLUDING, BUT NOT LIMITED TO, PROCUREMENT OF SUBSTITUTE GOODS
  37:./src/asf/xmega/drivers/usart/usart.h ****  * OR SERVICES; LOSS OF USE, DATA, OR PROFITS; OR BUSINESS INTERRUPTION)
  38:./src/asf/xmega/drivers/usart/usart.h ****  * HOWEVER CAUSED AND ON ANY THEORY OF LIABILITY, WHETHER IN CONTRACT,
  39:./src/asf/xmega/drivers/usart/usart.h ****  * STRICT LIABILITY, OR TORT (INCLUDING NEGLIGENCE OR OTHERWISE) ARISING IN
  40:./src/asf/xmega/drivers/usart/usart.h ****  * ANY WAY OUT OF THE USE OF THIS SOFTWARE, EVEN IF ADVISED OF THE
  41:./src/asf/xmega/drivers/usart/usart.h ****  * POSSIBILITY OF SUCH DAMAGE.
  42:./src/asf/xmega/drivers/usart/usart.h ****  *
  43:./src/asf/xmega/drivers/usart/usart.h ****  * \asf_license_stop
  44:./src/asf/xmega/drivers/usart/usart.h ****  *
  45:./src/asf/xmega/drivers/usart/usart.h ****  */
  46:./src/asf/xmega/drivers/usart/usart.h **** #ifndef _USART_H_
  47:./src/asf/xmega/drivers/usart/usart.h **** #define _USART_H_
  48:./src/asf/xmega/drivers/usart/usart.h **** 
  49:./src/asf/xmega/drivers/usart/usart.h **** #ifdef __cplusplus
  50:./src/asf/xmega/drivers/usart/usart.h **** extern "C" {
  51:./src/asf/xmega/drivers/usart/usart.h **** #endif
  52:./src/asf/xmega/drivers/usart/usart.h **** 
  53:./src/asf/xmega/drivers/usart/usart.h **** #include "compiler.h"
  54:./src/asf/xmega/drivers/usart/usart.h **** #include "pmic.h"
  55:./src/asf/xmega/drivers/usart/usart.h **** 
  56:./src/asf/xmega/drivers/usart/usart.h **** /**
  57:./src/asf/xmega/drivers/usart/usart.h ****  * \defgroup usart_group USART module (USART)
  58:./src/asf/xmega/drivers/usart/usart.h ****  *
  59:./src/asf/xmega/drivers/usart/usart.h ****  * See \ref xmega_usart_quickstart.
  60:./src/asf/xmega/drivers/usart/usart.h ****  *
  61:./src/asf/xmega/drivers/usart/usart.h ****  * This is a driver for configuring, enabling, disabling and use of the on-chip
  62:./src/asf/xmega/drivers/usart/usart.h ****  * USART.
  63:./src/asf/xmega/drivers/usart/usart.h ****  *
  64:./src/asf/xmega/drivers/usart/usart.h ****  * \section dependencies Dependencies
  65:./src/asf/xmega/drivers/usart/usart.h ****  *
  66:./src/asf/xmega/drivers/usart/usart.h ****  * The USART module depends on the following modules:
  67:./src/asf/xmega/drivers/usart/usart.h ****  *  - \ref sysclk_group for peripheral clock control.
  68:./src/asf/xmega/drivers/usart/usart.h ****  *  - \ref port_driver_group for peripheral io port control.
  69:./src/asf/xmega/drivers/usart/usart.h ****  *
  70:./src/asf/xmega/drivers/usart/usart.h ****  * @{
  71:./src/asf/xmega/drivers/usart/usart.h ****  */
  72:./src/asf/xmega/drivers/usart/usart.h **** 
  73:./src/asf/xmega/drivers/usart/usart.h **** //! Offset in lookup table for baudrate 1200
  74:./src/asf/xmega/drivers/usart/usart.h **** #define USART_BAUD_1200      0x00
  75:./src/asf/xmega/drivers/usart/usart.h **** //! Offset in lookup table for baudrate 2400
  76:./src/asf/xmega/drivers/usart/usart.h **** #define USART_BAUD_2400      0x01
  77:./src/asf/xmega/drivers/usart/usart.h **** //! Offset in lookup table for baudrate 4800
  78:./src/asf/xmega/drivers/usart/usart.h **** #define USART_BAUD_4800      0x02
  79:./src/asf/xmega/drivers/usart/usart.h **** //! Offset in lookup table for baudrate 9600
  80:./src/asf/xmega/drivers/usart/usart.h **** #define USART_BAUD_9600      0x03
  81:./src/asf/xmega/drivers/usart/usart.h **** //! Offset in lookup table for baudrate 19200
  82:./src/asf/xmega/drivers/usart/usart.h **** #define USART_BAUD_19200     0x04
  83:./src/asf/xmega/drivers/usart/usart.h **** //! Offset in lookup table for baudrate 38400
  84:./src/asf/xmega/drivers/usart/usart.h **** #define USART_BAUD_38400     0x05
  85:./src/asf/xmega/drivers/usart/usart.h **** //! Offset in lookup table for baudrate 57600
  86:./src/asf/xmega/drivers/usart/usart.h **** #define USART_BAUD_57600     0x06
  87:./src/asf/xmega/drivers/usart/usart.h **** //! Baudrate not in lookup table
  88:./src/asf/xmega/drivers/usart/usart.h **** #define USART_BAUD_UNDEFINED 0xFF
GAS LISTING /tmp/ccwf6aFs.s 			page 28


  89:./src/asf/xmega/drivers/usart/usart.h **** 
  90:./src/asf/xmega/drivers/usart/usart.h **** //! Lookup table containing baudctrl values for CPU frequency 2 Mhz
  91:./src/asf/xmega/drivers/usart/usart.h **** static PROGMEM_DECLARE(uint16_t, baudctrl_2mhz[]) = {
  92:./src/asf/xmega/drivers/usart/usart.h **** 	0xE5BC, // Baud: 1200
  93:./src/asf/xmega/drivers/usart/usart.h **** 	0xC5AC, // Baud: 2400
  94:./src/asf/xmega/drivers/usart/usart.h **** 	0x859C, // Baud: 4800
  95:./src/asf/xmega/drivers/usart/usart.h **** 	0x0396, // Baud: 9600
  96:./src/asf/xmega/drivers/usart/usart.h **** 	0xC192, // Baud: 19200
  97:./src/asf/xmega/drivers/usart/usart.h **** 	0x2191, // Baud: 38400
  98:./src/asf/xmega/drivers/usart/usart.h **** 	0x9690, // Baud: 57600
  99:./src/asf/xmega/drivers/usart/usart.h **** };
 100:./src/asf/xmega/drivers/usart/usart.h **** 
 101:./src/asf/xmega/drivers/usart/usart.h **** //! Lookup table containing baudctrl values for CPU frequency 32 Mhz
 102:./src/asf/xmega/drivers/usart/usart.h **** static PROGMEM_DECLARE(uint16_t, baudctrl_32mhz[]) = {
 103:./src/asf/xmega/drivers/usart/usart.h **** 	0x031D, // Baud: 1200
 104:./src/asf/xmega/drivers/usart/usart.h **** 	0x01ED, // Baud: 2400
 105:./src/asf/xmega/drivers/usart/usart.h **** 	0xFDDC, // Baud: 4800
 106:./src/asf/xmega/drivers/usart/usart.h **** 	0xF5CC, // Baud: 9600
 107:./src/asf/xmega/drivers/usart/usart.h **** 	0xE5BC, // Baud: 19200
 108:./src/asf/xmega/drivers/usart/usart.h **** 	0xC5AC, // Baud: 38400
 109:./src/asf/xmega/drivers/usart/usart.h **** 	0x6EA8, // Baud: 57600
 110:./src/asf/xmega/drivers/usart/usart.h **** };
 111:./src/asf/xmega/drivers/usart/usart.h **** //! @}
 112:./src/asf/xmega/drivers/usart/usart.h **** 
 113:./src/asf/xmega/drivers/usart/usart.h **** //! Input parameters when initializing RS232 and similar modes.
 114:./src/asf/xmega/drivers/usart/usart.h **** typedef struct usart_rs232_options {
 115:./src/asf/xmega/drivers/usart/usart.h **** 	//! Set baud rate of the USART (unused in slave modes).
 116:./src/asf/xmega/drivers/usart/usart.h **** 	uint32_t baudrate;
 117:./src/asf/xmega/drivers/usart/usart.h **** 
 118:./src/asf/xmega/drivers/usart/usart.h **** 	//! Number of bits to transmit as a character (5 to 9).
 119:./src/asf/xmega/drivers/usart/usart.h **** 	USART_CHSIZE_t charlength;
 120:./src/asf/xmega/drivers/usart/usart.h **** 
 121:./src/asf/xmega/drivers/usart/usart.h **** 	//! Parity type: USART_PMODE_DISABLED_gc, USART_PMODE_EVEN_gc,
 122:./src/asf/xmega/drivers/usart/usart.h **** 	//! USART_PMODE_ODD_gc.
 123:./src/asf/xmega/drivers/usart/usart.h **** 	USART_PMODE_t paritytype;
 124:./src/asf/xmega/drivers/usart/usart.h **** 
 125:./src/asf/xmega/drivers/usart/usart.h **** 	//! Number of stop bits between two characters:
 126:./src/asf/xmega/drivers/usart/usart.h **** 	//! true: 2 stop bits
 127:./src/asf/xmega/drivers/usart/usart.h **** 	//! false: 1 stop bit
 128:./src/asf/xmega/drivers/usart/usart.h **** 	bool stopbits;
 129:./src/asf/xmega/drivers/usart/usart.h **** 
 130:./src/asf/xmega/drivers/usart/usart.h **** } usart_rs232_options_t;
 131:./src/asf/xmega/drivers/usart/usart.h **** 
 132:./src/asf/xmega/drivers/usart/usart.h **** //! Input parameters when initializing SPI master mode.
 133:./src/asf/xmega/drivers/usart/usart.h **** typedef struct usart_spi_options {
 134:./src/asf/xmega/drivers/usart/usart.h **** 	//! Set baud rate of the USART in SPI mode.
 135:./src/asf/xmega/drivers/usart/usart.h **** 	uint32_t baudrate;
 136:./src/asf/xmega/drivers/usart/usart.h **** 
 137:./src/asf/xmega/drivers/usart/usart.h **** 	//! SPI transmission mode.
 138:./src/asf/xmega/drivers/usart/usart.h **** 	uint8_t spimode;
 139:./src/asf/xmega/drivers/usart/usart.h **** 
 140:./src/asf/xmega/drivers/usart/usart.h **** 	uint8_t data_order;
 141:./src/asf/xmega/drivers/usart/usart.h **** } usart_spi_options_t;
 142:./src/asf/xmega/drivers/usart/usart.h **** 
 143:./src/asf/xmega/drivers/usart/usart.h **** //! USART interrupt levels
 144:./src/asf/xmega/drivers/usart/usart.h **** enum usart_int_level_t {
 145:./src/asf/xmega/drivers/usart/usart.h **** 	USART_INT_LVL_OFF = 0x00,
GAS LISTING /tmp/ccwf6aFs.s 			page 29


 146:./src/asf/xmega/drivers/usart/usart.h **** 	USART_INT_LVL_LO = 0x01,
 147:./src/asf/xmega/drivers/usart/usart.h **** 	USART_INT_LVL_MED = 0x02,
 148:./src/asf/xmega/drivers/usart/usart.h **** 	USART_INT_LVL_HI = 0x03,
 149:./src/asf/xmega/drivers/usart/usart.h **** };
 150:./src/asf/xmega/drivers/usart/usart.h **** 
 151:./src/asf/xmega/drivers/usart/usart.h **** /**
 152:./src/asf/xmega/drivers/usart/usart.h ****  * \brief Enable USART receiver.
 153:./src/asf/xmega/drivers/usart/usart.h ****  *
 154:./src/asf/xmega/drivers/usart/usart.h ****  * \param usart Pointer to the USART module
 155:./src/asf/xmega/drivers/usart/usart.h ****  */
 156:./src/asf/xmega/drivers/usart/usart.h **** static inline void usart_rx_enable(USART_t *usart)
 157:./src/asf/xmega/drivers/usart/usart.h **** {
 158:./src/asf/xmega/drivers/usart/usart.h **** 	(usart)->CTRLB |= USART_RXEN_bm;
 159:./src/asf/xmega/drivers/usart/usart.h **** }
 160:./src/asf/xmega/drivers/usart/usart.h **** 
 161:./src/asf/xmega/drivers/usart/usart.h **** /**
 162:./src/asf/xmega/drivers/usart/usart.h ****  * \brief Disable USART receiver.
 163:./src/asf/xmega/drivers/usart/usart.h ****  *
 164:./src/asf/xmega/drivers/usart/usart.h ****  * \param usart Pointer to the USART module.
 165:./src/asf/xmega/drivers/usart/usart.h ****  */
 166:./src/asf/xmega/drivers/usart/usart.h **** static inline void usart_rx_disable(USART_t *usart)
 167:./src/asf/xmega/drivers/usart/usart.h **** {
 168:./src/asf/xmega/drivers/usart/usart.h **** 	(usart)->CTRLB &= ~USART_RXEN_bm;
 169:./src/asf/xmega/drivers/usart/usart.h **** }
 170:./src/asf/xmega/drivers/usart/usart.h **** 
 171:./src/asf/xmega/drivers/usart/usart.h **** /**
 172:./src/asf/xmega/drivers/usart/usart.h ****  * \brief  Configure the USART frame format.
 173:./src/asf/xmega/drivers/usart/usart.h ****  *
 174:./src/asf/xmega/drivers/usart/usart.h ****  *  Sets the frame format, Frame Size, parity mode and number of stop bits.
 175:./src/asf/xmega/drivers/usart/usart.h ****  *
 176:./src/asf/xmega/drivers/usart/usart.h ****  *  \param usart Pointer to the USART module
 177:./src/asf/xmega/drivers/usart/usart.h ****  *  \param charSize The character size. Use USART_CHSIZE_t type.
 178:./src/asf/xmega/drivers/usart/usart.h ****  *  \param parityMode The parity Mode. Use USART_PMODE_t type.
 179:./src/asf/xmega/drivers/usart/usart.h ****  *  \param twoStopBits Enable two stop bit mode. Use bool type.
 180:./src/asf/xmega/drivers/usart/usart.h ****  */
 181:./src/asf/xmega/drivers/usart/usart.h **** static inline void usart_format_set(USART_t *usart, USART_CHSIZE_t charSize,
 182:./src/asf/xmega/drivers/usart/usart.h **** 		USART_PMODE_t parityMode, bool twoStopBits)
 183:./src/asf/xmega/drivers/usart/usart.h **** {
 184:./src/asf/xmega/drivers/usart/usart.h **** 	(usart)->CTRLC = (uint8_t)charSize | parityMode
 185:./src/asf/xmega/drivers/usart/usart.h **** 		| (twoStopBits ? USART_SBMODE_bm : 0);
 186:./src/asf/xmega/drivers/usart/usart.h **** }
 187:./src/asf/xmega/drivers/usart/usart.h **** 
 188:./src/asf/xmega/drivers/usart/usart.h **** /**
 189:./src/asf/xmega/drivers/usart/usart.h ****  * \brief Enable USART transmitter.
 190:./src/asf/xmega/drivers/usart/usart.h ****  *
 191:./src/asf/xmega/drivers/usart/usart.h ****  * \param usart Pointer to the USART module.
 192:./src/asf/xmega/drivers/usart/usart.h ****  */
 193:./src/asf/xmega/drivers/usart/usart.h **** static inline void usart_tx_enable(USART_t *usart)
 194:./src/asf/xmega/drivers/usart/usart.h **** {
 195:./src/asf/xmega/drivers/usart/usart.h **** 	(usart)->CTRLB |= USART_TXEN_bm;
 196:./src/asf/xmega/drivers/usart/usart.h **** }
 197:./src/asf/xmega/drivers/usart/usart.h **** 
 198:./src/asf/xmega/drivers/usart/usart.h **** /**
 199:./src/asf/xmega/drivers/usart/usart.h ****  * \brief Disable USART transmitter.
 200:./src/asf/xmega/drivers/usart/usart.h ****  *
 201:./src/asf/xmega/drivers/usart/usart.h ****  * \param usart Pointer to the USART module.
 202:./src/asf/xmega/drivers/usart/usart.h ****  */
GAS LISTING /tmp/ccwf6aFs.s 			page 30


 203:./src/asf/xmega/drivers/usart/usart.h **** static inline void usart_tx_disable(USART_t *usart)
 204:./src/asf/xmega/drivers/usart/usart.h **** {
 205:./src/asf/xmega/drivers/usart/usart.h **** 	(usart)->CTRLB &= ~USART_TXEN_bm;
 206:./src/asf/xmega/drivers/usart/usart.h **** }
 207:./src/asf/xmega/drivers/usart/usart.h **** 
 208:./src/asf/xmega/drivers/usart/usart.h **** /**
 209:./src/asf/xmega/drivers/usart/usart.h ****  * \brief Set USART RXD interrupt level.
 210:./src/asf/xmega/drivers/usart/usart.h ****  *
 211:./src/asf/xmega/drivers/usart/usart.h ****  * Sets the interrupt level on RX Complete interrupt.
 212:./src/asf/xmega/drivers/usart/usart.h ****  *
 213:./src/asf/xmega/drivers/usart/usart.h ****  * \param usart Pointer to the USART module.
 214:./src/asf/xmega/drivers/usart/usart.h ****  * \param level Interrupt level of the RXD interrupt.
 215:./src/asf/xmega/drivers/usart/usart.h ****  */
 216:./src/asf/xmega/drivers/usart/usart.h **** static inline void usart_set_rx_interrupt_level(USART_t *usart,
 217:./src/asf/xmega/drivers/usart/usart.h **** 		enum usart_int_level_t level)
 218:./src/asf/xmega/drivers/usart/usart.h **** {
 219:./src/asf/xmega/drivers/usart/usart.h **** 	(usart)->CTRLA = ((usart)->CTRLA & ~USART_RXCINTLVL_gm) |
 629               		.loc 7 219 0
 630 02a4 E0EA      		ldi r30,lo8(2208)
 631 02a6 F8E0      		ldi r31,hi8(2208)
 632 02a8 8381      		ldd r24,Z+3
 633 02aa 8F7C      		andi r24,lo8(-49)
 634 02ac 8062      		ori r24,lo8(32)
 635 02ae 8383      		std Z+3,r24
 636               	.LBE169:
 637               	.LBE168:
 111:src/main.c    **** 
 112:src/main.c    **** 	usart_set_rx_interrupt_level(&USARTC0, USART_INT_LVL_MED);
 113:src/main.c    **** 
 114:src/main.c    **** 	board_init();
 638               		.loc 1 114 0
 639 02b0 0E94 0000 		call board_init
 115:src/main.c    **** 	
 116:src/main.c    **** 	//printf("OpenLights Strand Controller\r\n");
 117:src/main.c    **** 	//printf("Firmware revision %d.%d", FW_REV_MAJOR, FW_REV_MINOR);
 118:src/main.c    **** 	
 119:src/main.c    **** 	spi_init_pins();
 640               		.loc 1 119 0
 641 02b4 0E94 0000 		call spi_init_pins
 120:src/main.c    **** 	spi_init_module();
 642               		.loc 1 120 0
 643 02b8 0E94 0000 		call spi_init_module
 121:src/main.c    **** 	
 122:src/main.c    **** 	// Init board address
 123:src/main.c    **** 	g_address = 0x00;
 644               		.loc 1 123 0
 645 02bc 1092 0000 		sts g_address,__zero_reg__
 646               	.LVL13:
 647               	.LBB170:
 648               	.LBB171:
 649               	.LBB172:
 262:./src/asf/common/services/ioport/xmega/ioport.h **** 	}
 263:./src/asf/common/services/ioport/xmega/ioport.h **** }
 264:./src/asf/common/services/ioport/xmega/ioport.h **** 
 265:./src/asf/common/services/ioport/xmega/ioport.h **** __always_inline static void arch_ioport_set_port_level(ioport_port_t port,
 266:./src/asf/common/services/ioport/xmega/ioport.h **** 		ioport_port_mask_t mask, ioport_port_mask_t level)
 267:./src/asf/common/services/ioport/xmega/ioport.h **** {
GAS LISTING /tmp/ccwf6aFs.s 			page 31


 268:./src/asf/common/services/ioport/xmega/ioport.h **** 	PORT_t *base = arch_ioport_port_to_base(port);
 269:./src/asf/common/services/ioport/xmega/ioport.h **** 
 270:./src/asf/common/services/ioport/xmega/ioport.h **** 	base->OUTSET = mask & level;
 271:./src/asf/common/services/ioport/xmega/ioport.h **** 	base->OUTCLR = mask & ~level;
 272:./src/asf/common/services/ioport/xmega/ioport.h **** }
 273:./src/asf/common/services/ioport/xmega/ioport.h **** 
 274:./src/asf/common/services/ioport/xmega/ioport.h **** __always_inline static bool arch_ioport_get_pin_level(ioport_pin_t pin)
 275:./src/asf/common/services/ioport/xmega/ioport.h **** {
 276:./src/asf/common/services/ioport/xmega/ioport.h **** 	PORT_t *base = arch_ioport_pin_to_base(pin);
 277:./src/asf/common/services/ioport/xmega/ioport.h **** 
 278:./src/asf/common/services/ioport/xmega/ioport.h **** 	return base->IN & arch_ioport_pin_to_mask(pin);
 650               		.loc 3 278 0
 651 02c0 E0E2      		ldi r30,lo8(1568)
 652 02c2 F6E0      		ldi r31,hi8(1568)
 653 02c4 8085      		ldd r24,Z+8
 654               	.LVL14:
 655               	.LBE172:
 656               	.LBE171:
 657               	.LBE170:
 124:src/main.c    **** 	
 125:src/main.c    **** 	if (!ioport_get_pin_level(SW0)) {
 658               		.loc 1 125 0
 659 02c6 80FD      		sbrc r24,0
 660 02c8 00C0      		rjmp .L25
 126:src/main.c    **** 		g_address |= (1<<0);
 661               		.loc 1 126 0
 662 02ca 81E0      		ldi r24,lo8(1)
 663 02cc 8093 0000 		sts g_address,r24
 664               	.L25:
 665               	.LVL15:
 666               	.LBB173:
 667               	.LBB174:
 668               	.LBB175:
 669               		.loc 3 278 0
 670 02d0 E0E2      		ldi r30,lo8(1568)
 671 02d2 F6E0      		ldi r31,hi8(1568)
 672 02d4 8085      		ldd r24,Z+8
 673               	.LVL16:
 674               	.LBE175:
 675               	.LBE174:
 676               	.LBE173:
 127:src/main.c    **** 	}
 128:src/main.c    **** 	
 129:src/main.c    **** 	if (!ioport_get_pin_level(SW1)) {
 677               		.loc 1 129 0
 678 02d6 81FD      		sbrc r24,1
 679 02d8 00C0      		rjmp .L26
 130:src/main.c    **** 		g_address |= (1<<1);
 680               		.loc 1 130 0
 681 02da 8091 0000 		lds r24,g_address
 682 02de 8260      		ori r24,lo8(2)
 683 02e0 8093 0000 		sts g_address,r24
 684               	.L26:
 685               	.LVL17:
 686               	.LBB176:
 687               	.LBB177:
 688               	.LBB178:
GAS LISTING /tmp/ccwf6aFs.s 			page 32


 689               		.loc 3 278 0
 690 02e4 E0E2      		ldi r30,lo8(1568)
 691 02e6 F6E0      		ldi r31,hi8(1568)
 692 02e8 8085      		ldd r24,Z+8
 693               	.LVL18:
 694               	.LBE178:
 695               	.LBE177:
 696               	.LBE176:
 131:src/main.c    **** 	}
 132:src/main.c    **** 	
 133:src/main.c    **** 	if (!ioport_get_pin_level(SW2)) {
 697               		.loc 1 133 0
 698 02ea 82FD      		sbrc r24,2
 699 02ec 00C0      		rjmp .L27
 134:src/main.c    **** 		g_address |= (1<<2);
 700               		.loc 1 134 0
 701 02ee 8091 0000 		lds r24,g_address
 702 02f2 8460      		ori r24,lo8(4)
 703 02f4 8093 0000 		sts g_address,r24
 704               	.L27:
 705               	.LVL19:
 706               	.LBB179:
 707               	.LBB180:
 708               	.LBB181:
 709               		.loc 3 278 0
 710 02f8 E0E2      		ldi r30,lo8(1568)
 711 02fa F6E0      		ldi r31,hi8(1568)
 712 02fc 8085      		ldd r24,Z+8
 713               	.LVL20:
 714               	.LBE181:
 715               	.LBE180:
 716               	.LBE179:
 135:src/main.c    **** 	}
 136:src/main.c    **** 	
 137:src/main.c    **** 	if (!ioport_get_pin_level(SW3)) {
 717               		.loc 1 137 0
 718 02fe 83FD      		sbrc r24,3
 719 0300 00C0      		rjmp .L28
 138:src/main.c    **** 		g_address |= (1<<3);
 720               		.loc 1 138 0
 721 0302 8091 0000 		lds r24,g_address
 722 0306 8860      		ori r24,lo8(8)
 723 0308 8093 0000 		sts g_address,r24
 724               	.L28:
 139:src/main.c    **** 	}
 140:src/main.c    **** 	
 141:src/main.c    **** 	// Init USB communications
 142:src/main.c    **** 	g_cmdState = STATE_IDLE;
 725               		.loc 1 142 0
 726 030c 1092 0000 		sts g_cmdState,__zero_reg__
 143:src/main.c    **** 	g_usbDataLength = 0;
 727               		.loc 1 143 0
 728 0310 1092 0000 		sts g_usbDataLength,__zero_reg__
 729 0314 1092 0000 		sts g_usbDataLength+1,__zero_reg__
 144:src/main.c    **** 	g_usbDataCount = 0;
 730               		.loc 1 144 0
 731 0318 1092 0000 		sts g_usbDataCount,__zero_reg__
GAS LISTING /tmp/ccwf6aFs.s 			page 33


 732 031c 1092 0000 		sts g_usbDataCount+1,__zero_reg__
 145:src/main.c    **** 	//num_bytes = 3 * num_leds;
 146:src/main.c    **** 	
 147:src/main.c    **** 	udc_start();
 733               		.loc 1 147 0
 734 0320 0E94 0000 		call udc_start
 735               	.LBB182:
 736               	.LBB183:
 737               		.file 8 "./src/asf/common/services/usb/udc/udc.h"
   1:./src/asf/common/services/usb/udc/udc.h **** /**
   2:./src/asf/common/services/usb/udc/udc.h ****  * \file
   3:./src/asf/common/services/usb/udc/udc.h ****  *
   4:./src/asf/common/services/usb/udc/udc.h ****  * \brief Interface of the USB Device Controller (UDC)
   5:./src/asf/common/services/usb/udc/udc.h ****  *
   6:./src/asf/common/services/usb/udc/udc.h ****  * Copyright (c) 2009 - 2012 Atmel Corporation. All rights reserved.
   7:./src/asf/common/services/usb/udc/udc.h ****  *
   8:./src/asf/common/services/usb/udc/udc.h ****  * \asf_license_start
   9:./src/asf/common/services/usb/udc/udc.h ****  *
  10:./src/asf/common/services/usb/udc/udc.h ****  * \page License
  11:./src/asf/common/services/usb/udc/udc.h ****  *
  12:./src/asf/common/services/usb/udc/udc.h ****  * Redistribution and use in source and binary forms, with or without
  13:./src/asf/common/services/usb/udc/udc.h ****  * modification, are permitted provided that the following conditions are met:
  14:./src/asf/common/services/usb/udc/udc.h ****  *
  15:./src/asf/common/services/usb/udc/udc.h ****  * 1. Redistributions of source code must retain the above copyright notice,
  16:./src/asf/common/services/usb/udc/udc.h ****  *    this list of conditions and the following disclaimer.
  17:./src/asf/common/services/usb/udc/udc.h ****  *
  18:./src/asf/common/services/usb/udc/udc.h ****  * 2. Redistributions in binary form must reproduce the above copyright notice,
  19:./src/asf/common/services/usb/udc/udc.h ****  *    this list of conditions and the following disclaimer in the documentation
  20:./src/asf/common/services/usb/udc/udc.h ****  *    and/or other materials provided with the distribution.
  21:./src/asf/common/services/usb/udc/udc.h ****  *
  22:./src/asf/common/services/usb/udc/udc.h ****  * 3. The name of Atmel may not be used to endorse or promote products derived
  23:./src/asf/common/services/usb/udc/udc.h ****  *    from this software without specific prior written permission.
  24:./src/asf/common/services/usb/udc/udc.h ****  *
  25:./src/asf/common/services/usb/udc/udc.h ****  * 4. This software may only be redistributed and used in connection with an
  26:./src/asf/common/services/usb/udc/udc.h ****  *    Atmel microcontroller product.
  27:./src/asf/common/services/usb/udc/udc.h ****  *
  28:./src/asf/common/services/usb/udc/udc.h ****  * THIS SOFTWARE IS PROVIDED BY ATMEL "AS IS" AND ANY EXPRESS OR IMPLIED
  29:./src/asf/common/services/usb/udc/udc.h ****  * WARRANTIES, INCLUDING, BUT NOT LIMITED TO, THE IMPLIED WARRANTIES OF
  30:./src/asf/common/services/usb/udc/udc.h ****  * MERCHANTABILITY, FITNESS FOR A PARTICULAR PURPOSE AND NON-INFRINGEMENT ARE
  31:./src/asf/common/services/usb/udc/udc.h ****  * EXPRESSLY AND SPECIFICALLY DISCLAIMED. IN NO EVENT SHALL ATMEL BE LIABLE FOR
  32:./src/asf/common/services/usb/udc/udc.h ****  * ANY DIRECT, INDIRECT, INCIDENTAL, SPECIAL, EXEMPLARY, OR CONSEQUENTIAL
  33:./src/asf/common/services/usb/udc/udc.h ****  * DAMAGES (INCLUDING, BUT NOT LIMITED TO, PROCUREMENT OF SUBSTITUTE GOODS
  34:./src/asf/common/services/usb/udc/udc.h ****  * OR SERVICES; LOSS OF USE, DATA, OR PROFITS; OR BUSINESS INTERRUPTION)
  35:./src/asf/common/services/usb/udc/udc.h ****  * HOWEVER CAUSED AND ON ANY THEORY OF LIABILITY, WHETHER IN CONTRACT,
  36:./src/asf/common/services/usb/udc/udc.h ****  * STRICT LIABILITY, OR TORT (INCLUDING NEGLIGENCE OR OTHERWISE) ARISING IN
  37:./src/asf/common/services/usb/udc/udc.h ****  * ANY WAY OUT OF THE USE OF THIS SOFTWARE, EVEN IF ADVISED OF THE
  38:./src/asf/common/services/usb/udc/udc.h ****  * POSSIBILITY OF SUCH DAMAGE.
  39:./src/asf/common/services/usb/udc/udc.h ****  *
  40:./src/asf/common/services/usb/udc/udc.h ****  * \asf_license_stop
  41:./src/asf/common/services/usb/udc/udc.h ****  *
  42:./src/asf/common/services/usb/udc/udc.h ****  */
  43:./src/asf/common/services/usb/udc/udc.h **** 
  44:./src/asf/common/services/usb/udc/udc.h **** #ifndef _UDC_H_
  45:./src/asf/common/services/usb/udc/udc.h **** #define _UDC_H_
  46:./src/asf/common/services/usb/udc/udc.h **** 
  47:./src/asf/common/services/usb/udc/udc.h **** #include "conf_usb.h"
  48:./src/asf/common/services/usb/udc/udc.h **** #include "usb_protocol.h"
GAS LISTING /tmp/ccwf6aFs.s 			page 34


  49:./src/asf/common/services/usb/udc/udc.h **** #include "udc_desc.h"
  50:./src/asf/common/services/usb/udc/udc.h **** #include "udd.h"
  51:./src/asf/common/services/usb/udc/udc.h **** 
  52:./src/asf/common/services/usb/udc/udc.h **** #ifdef __cplusplus
  53:./src/asf/common/services/usb/udc/udc.h **** extern "C" {
  54:./src/asf/common/services/usb/udc/udc.h **** #endif
  55:./src/asf/common/services/usb/udc/udc.h **** 
  56:./src/asf/common/services/usb/udc/udc.h **** /**
  57:./src/asf/common/services/usb/udc/udc.h ****  * \ingroup usb_device_group
  58:./src/asf/common/services/usb/udc/udc.h ****  * \defgroup udc_group USB Device Controller (UDC)
  59:./src/asf/common/services/usb/udc/udc.h ****  *
  60:./src/asf/common/services/usb/udc/udc.h ****  * The UDC provides a high-level abstraction of the usb device.
  61:./src/asf/common/services/usb/udc/udc.h ****  * You can use these functions to control the main device state
  62:./src/asf/common/services/usb/udc/udc.h ****  * (start/attach/wakeup).
  63:./src/asf/common/services/usb/udc/udc.h ****  *
  64:./src/asf/common/services/usb/udc/udc.h ****  * \section USB_DEVICE_CONF USB Device Custom configuration
  65:./src/asf/common/services/usb/udc/udc.h ****  * The following USB Device configuration must be included in the conf_usb.h
  66:./src/asf/common/services/usb/udc/udc.h ****  * file of the application.
  67:./src/asf/common/services/usb/udc/udc.h ****  *
  68:./src/asf/common/services/usb/udc/udc.h ****  * USB_DEVICE_VENDOR_ID (Word)<br>
  69:./src/asf/common/services/usb/udc/udc.h ****  * Vendor ID provided by USB org (ATMEL 0x03EB).
  70:./src/asf/common/services/usb/udc/udc.h ****  *
  71:./src/asf/common/services/usb/udc/udc.h ****  * USB_DEVICE_PRODUCT_ID (Word)<br>
  72:./src/asf/common/services/usb/udc/udc.h ****  * Product ID (Referenced in usb_atmel.h).
  73:./src/asf/common/services/usb/udc/udc.h ****  *
  74:./src/asf/common/services/usb/udc/udc.h ****  * USB_DEVICE_MAJOR_VERSION (Byte)<br>
  75:./src/asf/common/services/usb/udc/udc.h ****  * Major version of the device
  76:./src/asf/common/services/usb/udc/udc.h ****  *
  77:./src/asf/common/services/usb/udc/udc.h ****  * USB_DEVICE_MINOR_VERSION (Byte)<br>
  78:./src/asf/common/services/usb/udc/udc.h ****  * Minor version of the device
  79:./src/asf/common/services/usb/udc/udc.h ****  *
  80:./src/asf/common/services/usb/udc/udc.h ****  * USB_DEVICE_MANUFACTURE_NAME (string)<br>
  81:./src/asf/common/services/usb/udc/udc.h ****  * ASCII name for the manufacture
  82:./src/asf/common/services/usb/udc/udc.h ****  *
  83:./src/asf/common/services/usb/udc/udc.h ****  * USB_DEVICE_PRODUCT_NAME (string)<br>
  84:./src/asf/common/services/usb/udc/udc.h ****  * ASCII name for the product
  85:./src/asf/common/services/usb/udc/udc.h ****  *
  86:./src/asf/common/services/usb/udc/udc.h ****  * USB_DEVICE_SERIAL_NAME (string)<br>
  87:./src/asf/common/services/usb/udc/udc.h ****  * ASCII name to enable and set a serial number
  88:./src/asf/common/services/usb/udc/udc.h ****  *
  89:./src/asf/common/services/usb/udc/udc.h ****  * USB_DEVICE_POWER (Numeric)<br>
  90:./src/asf/common/services/usb/udc/udc.h ****  * (unit mA) Maximum device power
  91:./src/asf/common/services/usb/udc/udc.h ****  *
  92:./src/asf/common/services/usb/udc/udc.h ****  * USB_DEVICE_ATTR (Byte)<br>
  93:./src/asf/common/services/usb/udc/udc.h ****  * USB attributes available:
  94:./src/asf/common/services/usb/udc/udc.h ****  *  - USB_CONFIG_ATTR_SELF_POWERED
  95:./src/asf/common/services/usb/udc/udc.h ****  *  - USB_CONFIG_ATTR_REMOTE_WAKEUP
  96:./src/asf/common/services/usb/udc/udc.h ****  *  Note: if remote wake enabled then defines remotewakeup callbacks,
  97:./src/asf/common/services/usb/udc/udc.h ****  * see Table 5-2. External API from UDC - Callback
  98:./src/asf/common/services/usb/udc/udc.h ****  *
  99:./src/asf/common/services/usb/udc/udc.h ****  * USB_DEVICE_LOW_SPEED (Only defined)<br>
 100:./src/asf/common/services/usb/udc/udc.h ****  * Force the USB Device to run in low speed
 101:./src/asf/common/services/usb/udc/udc.h ****  *
 102:./src/asf/common/services/usb/udc/udc.h ****  * USB_DEVICE_HS_SUPPORT (Only defined)<br>
 103:./src/asf/common/services/usb/udc/udc.h ****  * Authorize the USB Device to run in high speed
 104:./src/asf/common/services/usb/udc/udc.h ****  *
 105:./src/asf/common/services/usb/udc/udc.h ****  * USB_DEVICE_MAX_EP (Byte)<br>
GAS LISTING /tmp/ccwf6aFs.s 			page 35


 106:./src/asf/common/services/usb/udc/udc.h ****  * Define the maximum endpoint number used by the USB Device.<br>
 107:./src/asf/common/services/usb/udc/udc.h ****  * This one is already defined in UDI default configuration.
 108:./src/asf/common/services/usb/udc/udc.h ****  * Ex:
 109:./src/asf/common/services/usb/udc/udc.h ****  * - When endpoint control 0x00, endpoint 0x01 and
 110:./src/asf/common/services/usb/udc/udc.h ****  *   endpoint 0x82 is used then USB_DEVICE_MAX_EP=2
 111:./src/asf/common/services/usb/udc/udc.h ****  * - When only endpoint control 0x00 is used then USB_DEVICE_MAX_EP=0
 112:./src/asf/common/services/usb/udc/udc.h ****  * - When endpoint 0x01 and endpoint 0x81 is used then USB_DEVICE_MAX_EP=1<br>
 113:./src/asf/common/services/usb/udc/udc.h ****  *   (configuration not possible on USBB interface)
 114:./src/asf/common/services/usb/udc/udc.h ****  * @{
 115:./src/asf/common/services/usb/udc/udc.h ****  */
 116:./src/asf/common/services/usb/udc/udc.h **** 
 117:./src/asf/common/services/usb/udc/udc.h **** /**
 118:./src/asf/common/services/usb/udc/udc.h ****  * \brief Authorizes the VBUS event
 119:./src/asf/common/services/usb/udc/udc.h ****  *
 120:./src/asf/common/services/usb/udc/udc.h ****  * \return true, if the VBUS monitoring is possible.
 121:./src/asf/common/services/usb/udc/udc.h ****  *
 122:./src/asf/common/services/usb/udc/udc.h ****  * \section udc_vbus_monitoring VBus monitoring used cases
 123:./src/asf/common/services/usb/udc/udc.h ****  *
 124:./src/asf/common/services/usb/udc/udc.h ****  * The VBus monitoring is used only for USB SELF Power application.
 125:./src/asf/common/services/usb/udc/udc.h ****  *
 126:./src/asf/common/services/usb/udc/udc.h ****  *  -  No custom implementation \n
 127:./src/asf/common/services/usb/udc/udc.h ****  *     // Authorize VBUS monitoring \n
 128:./src/asf/common/services/usb/udc/udc.h ****  *     if (!udc_include_vbus_monitoring()) { \n
 129:./src/asf/common/services/usb/udc/udc.h ****  *       // VBUS monitoring is not available on this product \n
 130:./src/asf/common/services/usb/udc/udc.h ****  *       // thereby VBUS has to be considered as present \n
 131:./src/asf/common/services/usb/udc/udc.h ****  *       // Attach USB Device \n
 132:./src/asf/common/services/usb/udc/udc.h ****  *       udc_attach(); \n
 133:./src/asf/common/services/usb/udc/udc.h ****  *     } \n
 134:./src/asf/common/services/usb/udc/udc.h ****  *
 135:./src/asf/common/services/usb/udc/udc.h ****  *  -  Add custom VBUS monitoring \n
 136:./src/asf/common/services/usb/udc/udc.h ****  *     // Authorize VBUS monitoring \n
 137:./src/asf/common/services/usb/udc/udc.h ****  *     if (!udc_include_vbus_monitoring()) { \n
 138:./src/asf/common/services/usb/udc/udc.h ****  *       // Implement custom VBUS monitoring via GPIO or other \n
 139:./src/asf/common/services/usb/udc/udc.h ****  *     } \n
 140:./src/asf/common/services/usb/udc/udc.h ****  *     Event_VBUS_present() // VBUS interrupt or GPIO interrupt or other \n
 141:./src/asf/common/services/usb/udc/udc.h ****  *     { \n
 142:./src/asf/common/services/usb/udc/udc.h ****  *        // Attach USB Device \n
 143:./src/asf/common/services/usb/udc/udc.h ****  *        udc_attach(); \n
 144:./src/asf/common/services/usb/udc/udc.h ****  *     } \n
 145:./src/asf/common/services/usb/udc/udc.h ****  *
 146:./src/asf/common/services/usb/udc/udc.h ****  *  -  Case of battery charging \n
 147:./src/asf/common/services/usb/udc/udc.h ****  *     Event VBUS present() // VBUS interrupt or GPIO interrupt or .. \n
 148:./src/asf/common/services/usb/udc/udc.h ****  *     { \n
 149:./src/asf/common/services/usb/udc/udc.h ****  *        // Authorize battery charging, but wait key press to start USB. \n
 150:./src/asf/common/services/usb/udc/udc.h ****  *     } \n
 151:./src/asf/common/services/usb/udc/udc.h ****  *     Event Key press() \n
 152:./src/asf/common/services/usb/udc/udc.h ****  *     { \n
 153:./src/asf/common/services/usb/udc/udc.h ****  *        // Stop batteries charging \n
 154:./src/asf/common/services/usb/udc/udc.h ****  *        // Start USB \n
 155:./src/asf/common/services/usb/udc/udc.h ****  *        udc_attach(); \n
 156:./src/asf/common/services/usb/udc/udc.h ****  *     }  \n
 157:./src/asf/common/services/usb/udc/udc.h ****  */
 158:./src/asf/common/services/usb/udc/udc.h **** static inline bool udc_include_vbus_monitoring(void)
 159:./src/asf/common/services/usb/udc/udc.h **** {
 160:./src/asf/common/services/usb/udc/udc.h **** 	return udd_include_vbus_monitoring();
 161:./src/asf/common/services/usb/udc/udc.h **** }
 162:./src/asf/common/services/usb/udc/udc.h **** 
GAS LISTING /tmp/ccwf6aFs.s 			page 36


 163:./src/asf/common/services/usb/udc/udc.h **** /*! \brief Start the USB Device stack
 164:./src/asf/common/services/usb/udc/udc.h ****  */
 165:./src/asf/common/services/usb/udc/udc.h **** void udc_start(void);
 166:./src/asf/common/services/usb/udc/udc.h **** 
 167:./src/asf/common/services/usb/udc/udc.h **** /*! \brief Stop the USB Device stack
 168:./src/asf/common/services/usb/udc/udc.h ****  */
 169:./src/asf/common/services/usb/udc/udc.h **** void udc_stop(void);
 170:./src/asf/common/services/usb/udc/udc.h **** 
 171:./src/asf/common/services/usb/udc/udc.h **** /**
 172:./src/asf/common/services/usb/udc/udc.h ****  * \brief Attach device to the bus when possible
 173:./src/asf/common/services/usb/udc/udc.h ****  *
 174:./src/asf/common/services/usb/udc/udc.h ****  * \warning If a VBus control is included in driver,
 175:./src/asf/common/services/usb/udc/udc.h ****  * then it will attach device when an acceptable Vbus
 176:./src/asf/common/services/usb/udc/udc.h ****  * level from the host is detected.
 177:./src/asf/common/services/usb/udc/udc.h ****  */
 178:./src/asf/common/services/usb/udc/udc.h **** static inline void udc_attach(void)
 179:./src/asf/common/services/usb/udc/udc.h **** {
 180:./src/asf/common/services/usb/udc/udc.h **** 	udd_attach();
 738               		.loc 8 180 0
 739 0324 0E94 0000 		call udd_attach
 740               	.LVL21:
 741               	.LBE183:
 742               	.LBE182:
 743               	.LBB184:
 744               	.LBB185:
 158:./src/asf/xmega/drivers/usart/usart.h **** 	(usart)->CTRLB |= USART_RXEN_bm;
 745               		.loc 7 158 0
 746 0328 E0EA      		ldi r30,lo8(2208)
 747 032a F8E0      		ldi r31,hi8(2208)
 748 032c 8481      		ldd r24,Z+4
 749 032e 8061      		ori r24,lo8(16)
 750 0330 8483      		std Z+4,r24
 751               	.LBE185:
 752               	.LBE184:
 148:src/main.c    **** 	udc_attach();
 149:src/main.c    **** 	usart_rx_enable(&USARTC0);
 150:src/main.c    **** 	
 151:src/main.c    **** 	// Init LED data buffers
 152:src/main.c    **** 	dirty = 1;
 753               		.loc 1 152 0
 754 0332 81E0      		ldi r24,lo8(1)
 755 0334 8093 0000 		sts dirty,r24
 153:src/main.c    **** 	memset(&data_buffer, 0, sizeof(data_buffer));
 756               		.loc 1 153 0
 757 0338 60E0      		ldi r22,lo8(data_buffer)
 758 033a 70E0      		ldi r23,hi8(data_buffer)
 759 033c 80E4      		ldi r24,lo8(576)
 760 033e 92E0      		ldi r25,hi8(576)
 761 0340 FB01      		movw r30,r22
 762 0342 9C01      		movw r18,r24
 763 0344 1192      		st Z+,__zero_reg__
 764 0346 2150      		subi r18,1
 765 0348 3040      		sbci r19,0
 766 034a 01F4      		brne .-8
 154:src/main.c    **** 	//memset(&back_buffer, 0, sizeof(back_buffer));
 155:src/main.c    **** 	spi_write_packet(&SPIC, data_buffer, sizeof(data_buffer));
 767               		.loc 1 155 0
GAS LISTING /tmp/ccwf6aFs.s 			page 37


 768 034c 80EC      		ldi r24,lo8(2240)
 769 034e 98E0      		ldi r25,hi8(2240)
 770 0350 40E4      		ldi r20,lo8(576)
 771 0352 52E0      		ldi r21,hi8(576)
 772 0354 0E94 0000 		call spi_write_packet
 156:src/main.c    **** 	
 157:src/main.c    **** 	// Setup timer interrupt for strand output
 158:src/main.c    **** 	tc_enable(&TCC0);
 773               		.loc 1 158 0
 774 0358 80E0      		ldi r24,lo8(2048)
 775 035a 98E0      		ldi r25,hi8(2048)
 776 035c 0E94 0000 		call tc_enable
 159:src/main.c    **** 	tc_set_overflow_interrupt_callback(&TCC0, strand_output_isr);
 777               		.loc 1 159 0
 778 0360 80E0      		ldi r24,lo8(2048)
 779 0362 98E0      		ldi r25,hi8(2048)
 780 0364 60E0      		ldi r22,lo8(gs(strand_output_isr))
 781 0366 70E0      		ldi r23,hi8(gs(strand_output_isr))
 782 0368 0E94 0000 		call tc_set_overflow_interrupt_callback
 783               	.LVL22:
 784               	.LBB186:
 785               	.LBB187:
 786               		.file 9 "./src/asf/xmega/drivers/tc/tc.h"
   1:./src/asf/xmega/drivers/tc/tc.h **** /**
   2:./src/asf/xmega/drivers/tc/tc.h ****  * \file
   3:./src/asf/xmega/drivers/tc/tc.h ****  *
   4:./src/asf/xmega/drivers/tc/tc.h ****  * \brief AVR XMEGA Timer Counter (TC) driver
   5:./src/asf/xmega/drivers/tc/tc.h ****  *
   6:./src/asf/xmega/drivers/tc/tc.h ****  * Copyright (c) 2010-2011 Atmel Corporation. All rights reserved.
   7:./src/asf/xmega/drivers/tc/tc.h ****  *
   8:./src/asf/xmega/drivers/tc/tc.h ****  * \asf_license_start
   9:./src/asf/xmega/drivers/tc/tc.h ****  *
  10:./src/asf/xmega/drivers/tc/tc.h ****  * \page License
  11:./src/asf/xmega/drivers/tc/tc.h ****  *
  12:./src/asf/xmega/drivers/tc/tc.h ****  * Redistribution and use in source and binary forms, with or without
  13:./src/asf/xmega/drivers/tc/tc.h ****  * modification, are permitted provided that the following conditions are met:
  14:./src/asf/xmega/drivers/tc/tc.h ****  *
  15:./src/asf/xmega/drivers/tc/tc.h ****  * 1. Redistributions of source code must retain the above copyright notice,
  16:./src/asf/xmega/drivers/tc/tc.h ****  *    this list of conditions and the following disclaimer.
  17:./src/asf/xmega/drivers/tc/tc.h ****  *
  18:./src/asf/xmega/drivers/tc/tc.h ****  * 2. Redistributions in binary form must reproduce the above copyright notice,
  19:./src/asf/xmega/drivers/tc/tc.h ****  *    this list of conditions and the following disclaimer in the documentation
  20:./src/asf/xmega/drivers/tc/tc.h ****  *    and/or other materials provided with the distribution.
  21:./src/asf/xmega/drivers/tc/tc.h ****  *
  22:./src/asf/xmega/drivers/tc/tc.h ****  * 3. The name of Atmel may not be used to endorse or promote products derived
  23:./src/asf/xmega/drivers/tc/tc.h ****  *    from this software without specific prior written permission.
  24:./src/asf/xmega/drivers/tc/tc.h ****  *
  25:./src/asf/xmega/drivers/tc/tc.h ****  * 4. This software may only be redistributed and used in connection with an
  26:./src/asf/xmega/drivers/tc/tc.h ****  *    Atmel microcontroller product.
  27:./src/asf/xmega/drivers/tc/tc.h ****  *
  28:./src/asf/xmega/drivers/tc/tc.h ****  * THIS SOFTWARE IS PROVIDED BY ATMEL "AS IS" AND ANY EXPRESS OR IMPLIED
  29:./src/asf/xmega/drivers/tc/tc.h ****  * WARRANTIES, INCLUDING, BUT NOT LIMITED TO, THE IMPLIED WARRANTIES OF
  30:./src/asf/xmega/drivers/tc/tc.h ****  * MERCHANTABILITY, FITNESS FOR A PARTICULAR PURPOSE AND NON-INFRINGEMENT ARE
  31:./src/asf/xmega/drivers/tc/tc.h ****  * EXPRESSLY AND SPECIFICALLY DISCLAIMED. IN NO EVENT SHALL ATMEL BE LIABLE FOR
  32:./src/asf/xmega/drivers/tc/tc.h ****  * ANY DIRECT, INDIRECT, INCIDENTAL, SPECIAL, EXEMPLARY, OR CONSEQUENTIAL
  33:./src/asf/xmega/drivers/tc/tc.h ****  * DAMAGES (INCLUDING, BUT NOT LIMITED TO, PROCUREMENT OF SUBSTITUTE GOODS
  34:./src/asf/xmega/drivers/tc/tc.h ****  * OR SERVICES; LOSS OF USE, DATA, OR PROFITS; OR BUSINESS INTERRUPTION)
GAS LISTING /tmp/ccwf6aFs.s 			page 38


  35:./src/asf/xmega/drivers/tc/tc.h ****  * HOWEVER CAUSED AND ON ANY THEORY OF LIABILITY, WHETHER IN CONTRACT,
  36:./src/asf/xmega/drivers/tc/tc.h ****  * STRICT LIABILITY, OR TORT (INCLUDING NEGLIGENCE OR OTHERWISE) ARISING IN
  37:./src/asf/xmega/drivers/tc/tc.h ****  * ANY WAY OUT OF THE USE OF THIS SOFTWARE, EVEN IF ADVISED OF THE
  38:./src/asf/xmega/drivers/tc/tc.h ****  * POSSIBILITY OF SUCH DAMAGE.
  39:./src/asf/xmega/drivers/tc/tc.h ****  *
  40:./src/asf/xmega/drivers/tc/tc.h ****  * \asf_license_stop
  41:./src/asf/xmega/drivers/tc/tc.h ****  *
  42:./src/asf/xmega/drivers/tc/tc.h ****  */
  43:./src/asf/xmega/drivers/tc/tc.h **** #ifndef TC_H
  44:./src/asf/xmega/drivers/tc/tc.h **** #define TC_H
  45:./src/asf/xmega/drivers/tc/tc.h **** 
  46:./src/asf/xmega/drivers/tc/tc.h **** #include <compiler.h>
  47:./src/asf/xmega/drivers/tc/tc.h **** #include <parts.h>
  48:./src/asf/xmega/drivers/tc/tc.h **** #include "status_codes.h"
  49:./src/asf/xmega/drivers/tc/tc.h **** #include "pmic.h"
  50:./src/asf/xmega/drivers/tc/tc.h **** #include <sleepmgr.h>
  51:./src/asf/xmega/drivers/tc/tc.h **** #include <sysclk.h>
  52:./src/asf/xmega/drivers/tc/tc.h **** 
  53:./src/asf/xmega/drivers/tc/tc.h **** 
  54:./src/asf/xmega/drivers/tc/tc.h **** #ifdef __cplusplus
  55:./src/asf/xmega/drivers/tc/tc.h **** extern "C" {
  56:./src/asf/xmega/drivers/tc/tc.h **** #endif
  57:./src/asf/xmega/drivers/tc/tc.h **** 
  58:./src/asf/xmega/drivers/tc/tc.h **** 
  59:./src/asf/xmega/drivers/tc/tc.h **** 
  60:./src/asf/xmega/drivers/tc/tc.h **** /**
  61:./src/asf/xmega/drivers/tc/tc.h ****  * \defgroup tc_group Timer Counter (TC)
  62:./src/asf/xmega/drivers/tc/tc.h ****  *
  63:./src/asf/xmega/drivers/tc/tc.h ****  * See \ref xmega_tc_quickstart
  64:./src/asf/xmega/drivers/tc/tc.h ****  *
  65:./src/asf/xmega/drivers/tc/tc.h ****  * This is a driver for the AVR XMEGA Timer Counter (TC). It provides functions
  66:./src/asf/xmega/drivers/tc/tc.h ****  * for enabling, disabling and configuring the TC modules.
  67:./src/asf/xmega/drivers/tc/tc.h ****  *
  68:./src/asf/xmega/drivers/tc/tc.h ****  * \section dependencies Dependencies
  69:./src/asf/xmega/drivers/tc/tc.h ****  * This driver depends on the following modules:
  70:./src/asf/xmega/drivers/tc/tc.h ****  * - \ref sysclk_group for peripheral clock control.
  71:./src/asf/xmega/drivers/tc/tc.h ****  * - \ref sleepmgr_group for setting allowed sleep mode.
  72:./src/asf/xmega/drivers/tc/tc.h ****  * - \ref interrupt_group for ISR definition and disabling interrupts during
  73:./src/asf/xmega/drivers/tc/tc.h ****  * critical code sections.
  74:./src/asf/xmega/drivers/tc/tc.h ****  * @{
  75:./src/asf/xmega/drivers/tc/tc.h ****  */
  76:./src/asf/xmega/drivers/tc/tc.h **** 
  77:./src/asf/xmega/drivers/tc/tc.h **** 
  78:./src/asf/xmega/drivers/tc/tc.h **** 
  79:./src/asf/xmega/drivers/tc/tc.h **** /**
  80:./src/asf/xmega/drivers/tc/tc.h ****  * \brief Interrupt event callback function type
  81:./src/asf/xmega/drivers/tc/tc.h ****  *
  82:./src/asf/xmega/drivers/tc/tc.h ****  * The interrupt handler can be configured to do a function callback,
  83:./src/asf/xmega/drivers/tc/tc.h ****  * the callback function must match the tc_callback_t type.
  84:./src/asf/xmega/drivers/tc/tc.h ****  *
  85:./src/asf/xmega/drivers/tc/tc.h ****  */
  86:./src/asf/xmega/drivers/tc/tc.h **** typedef void (*tc_callback_t) (void);
  87:./src/asf/xmega/drivers/tc/tc.h **** 
  88:./src/asf/xmega/drivers/tc/tc.h **** //! Timer Counter Capture Compare Channel index
  89:./src/asf/xmega/drivers/tc/tc.h **** enum tc_cc_channel_t {
  90:./src/asf/xmega/drivers/tc/tc.h **** 	//! Channel A
  91:./src/asf/xmega/drivers/tc/tc.h **** 	TC_CCA = 1,
GAS LISTING /tmp/ccwf6aFs.s 			page 39


  92:./src/asf/xmega/drivers/tc/tc.h **** 	//! Channel B
  93:./src/asf/xmega/drivers/tc/tc.h **** 	TC_CCB = 2,
  94:./src/asf/xmega/drivers/tc/tc.h **** 	//! Channel C
  95:./src/asf/xmega/drivers/tc/tc.h **** 	TC_CCC = 3,
  96:./src/asf/xmega/drivers/tc/tc.h **** 	//! Channel D
  97:./src/asf/xmega/drivers/tc/tc.h **** 	TC_CCD = 4,
  98:./src/asf/xmega/drivers/tc/tc.h **** };
  99:./src/asf/xmega/drivers/tc/tc.h **** 
 100:./src/asf/xmega/drivers/tc/tc.h **** //! Timer Counter Capture Compare Channel index
 101:./src/asf/xmega/drivers/tc/tc.h **** enum tc_cc_channel_mask_enable_t {
 102:./src/asf/xmega/drivers/tc/tc.h **** 	//! Channel A Enable mask
 103:./src/asf/xmega/drivers/tc/tc.h **** 	TC_CCAEN = TC0_CCAEN_bm,
 104:./src/asf/xmega/drivers/tc/tc.h **** 	//! Channel B Enable mask
 105:./src/asf/xmega/drivers/tc/tc.h **** 	TC_CCBEN = TC0_CCBEN_bm,
 106:./src/asf/xmega/drivers/tc/tc.h **** 	//! Channel C Enable mask
 107:./src/asf/xmega/drivers/tc/tc.h **** 	TC_CCCEN = TC0_CCCEN_bm,
 108:./src/asf/xmega/drivers/tc/tc.h **** 	//! Channel D Enable mask
 109:./src/asf/xmega/drivers/tc/tc.h **** 	TC_CCDEN = TC0_CCDEN_bm,
 110:./src/asf/xmega/drivers/tc/tc.h **** };
 111:./src/asf/xmega/drivers/tc/tc.h **** 
 112:./src/asf/xmega/drivers/tc/tc.h **** //! Timer Counter Direction
 113:./src/asf/xmega/drivers/tc/tc.h **** enum tc_dir_t {
 114:./src/asf/xmega/drivers/tc/tc.h **** 	//! Counting up
 115:./src/asf/xmega/drivers/tc/tc.h **** 	TC_UP = 0,
 116:./src/asf/xmega/drivers/tc/tc.h **** 	//! Down Counting B
 117:./src/asf/xmega/drivers/tc/tc.h **** 	TC_DOWN = 1
 118:./src/asf/xmega/drivers/tc/tc.h **** };
 119:./src/asf/xmega/drivers/tc/tc.h **** //! Timer Counter Waveform Generator mode
 120:./src/asf/xmega/drivers/tc/tc.h **** enum tc_wg_mode_t {
 121:./src/asf/xmega/drivers/tc/tc.h **** 	//! TC in normal Mode
 122:./src/asf/xmega/drivers/tc/tc.h **** 	TC_WG_NORMAL = TC_WGMODE_NORMAL_gc,
 123:./src/asf/xmega/drivers/tc/tc.h **** 	//! TC in Frequency Generator mode
 124:./src/asf/xmega/drivers/tc/tc.h **** 	TC_WG_FRQ = TC_WGMODE_FRQ_gc,
 125:./src/asf/xmega/drivers/tc/tc.h **** 	//! TC in single slope PWM mode
 126:./src/asf/xmega/drivers/tc/tc.h **** 	TC_WG_SS = TC_WGMODE_SS_gc,
 127:./src/asf/xmega/drivers/tc/tc.h **** 	//! TC in dual slope Top PWM mode
 128:./src/asf/xmega/drivers/tc/tc.h **** 	TC_WG_DS_T = TC_WGMODE_DS_T_gc,
 129:./src/asf/xmega/drivers/tc/tc.h **** 	//! TC in dual slope Top Bottom PWM mode
 130:./src/asf/xmega/drivers/tc/tc.h **** 	TC_WG_DS_TB = TC_WGMODE_DS_TB_gc,
 131:./src/asf/xmega/drivers/tc/tc.h **** 	//! TC in dual slope Bottom PWM mode
 132:./src/asf/xmega/drivers/tc/tc.h **** 	TC_WG_DS_B = TC_WGMODE_DS_B_gc
 133:./src/asf/xmega/drivers/tc/tc.h **** };
 134:./src/asf/xmega/drivers/tc/tc.h **** 
 135:./src/asf/xmega/drivers/tc/tc.h **** //! TC interrupt levels
 136:./src/asf/xmega/drivers/tc/tc.h **** enum TC_INT_LEVEL_t {
 137:./src/asf/xmega/drivers/tc/tc.h **** 	TC_INT_LVL_OFF = 0x00,
 138:./src/asf/xmega/drivers/tc/tc.h **** 	TC_INT_LVL_LO = 0x01,
 139:./src/asf/xmega/drivers/tc/tc.h **** 	TC_INT_LVL_MED = 0x02,
 140:./src/asf/xmega/drivers/tc/tc.h **** 	TC_INT_LVL_HI = 0x03,
 141:./src/asf/xmega/drivers/tc/tc.h **** };
 142:./src/asf/xmega/drivers/tc/tc.h **** 
 143:./src/asf/xmega/drivers/tc/tc.h **** //! Macro to check if type of passed TC is TC1_t
 144:./src/asf/xmega/drivers/tc/tc.h **** #define tc_is_tc1(void) ((uint16_t)tc&0x40 ? true : false)
 145:./src/asf/xmega/drivers/tc/tc.h **** //! Macro to check if type of passed TC is TC0_t
 146:./src/asf/xmega/drivers/tc/tc.h **** #define tc_is_tc0(void) ((uint16_t)tc&0x40 ? false : true)
 147:./src/asf/xmega/drivers/tc/tc.h **** 
 148:./src/asf/xmega/drivers/tc/tc.h **** /**
GAS LISTING /tmp/ccwf6aFs.s 			page 40


 149:./src/asf/xmega/drivers/tc/tc.h ****  * \brief Enable TC
 150:./src/asf/xmega/drivers/tc/tc.h ****  *
 151:./src/asf/xmega/drivers/tc/tc.h ****  * Enables the TC.
 152:./src/asf/xmega/drivers/tc/tc.h ****  *
 153:./src/asf/xmega/drivers/tc/tc.h ****  * \param tc Pointer to TC module
 154:./src/asf/xmega/drivers/tc/tc.h ****  *
 155:./src/asf/xmega/drivers/tc/tc.h ****  * \note
 156:./src/asf/xmega/drivers/tc/tc.h ****  * unmask TC clock (sysclk), but does not configure the TC clock source.
 157:./src/asf/xmega/drivers/tc/tc.h ****  */
 158:./src/asf/xmega/drivers/tc/tc.h **** void tc_enable(volatile void *tc);
 159:./src/asf/xmega/drivers/tc/tc.h **** 
 160:./src/asf/xmega/drivers/tc/tc.h **** /**
 161:./src/asf/xmega/drivers/tc/tc.h ****  * \brief Disable TC
 162:./src/asf/xmega/drivers/tc/tc.h ****  *
 163:./src/asf/xmega/drivers/tc/tc.h ****  * Disables the TC.
 164:./src/asf/xmega/drivers/tc/tc.h ****  *
 165:./src/asf/xmega/drivers/tc/tc.h ****  * \param tc Pointer to TC module
 166:./src/asf/xmega/drivers/tc/tc.h ****  *
 167:./src/asf/xmega/drivers/tc/tc.h ****  * \note
 168:./src/asf/xmega/drivers/tc/tc.h ****  * mask TC clock (sysclk).
 169:./src/asf/xmega/drivers/tc/tc.h ****  */
 170:./src/asf/xmega/drivers/tc/tc.h **** void tc_disable(volatile void *tc);
 171:./src/asf/xmega/drivers/tc/tc.h **** 
 172:./src/asf/xmega/drivers/tc/tc.h **** /**
 173:./src/asf/xmega/drivers/tc/tc.h ****  * \ingroup tc_group
 174:./src/asf/xmega/drivers/tc/tc.h ****  * \defgroup tc_interrupt_group Timer Counter (TC) interrupt management
 175:./src/asf/xmega/drivers/tc/tc.h ****  * This group provides functions to configure TC module interrupts
 176:./src/asf/xmega/drivers/tc/tc.h ****  *
 177:./src/asf/xmega/drivers/tc/tc.h ****  *
 178:./src/asf/xmega/drivers/tc/tc.h ****  * @{
 179:./src/asf/xmega/drivers/tc/tc.h ****  */
 180:./src/asf/xmega/drivers/tc/tc.h **** /**
 181:./src/asf/xmega/drivers/tc/tc.h ****  * \brief Set TC overflow interrupt callback function
 182:./src/asf/xmega/drivers/tc/tc.h ****  *
 183:./src/asf/xmega/drivers/tc/tc.h ****  * This function allows the caller to set and change the interrupt callback
 184:./src/asf/xmega/drivers/tc/tc.h ****  * function. Without setting a callback function the interrupt handler in the
 185:./src/asf/xmega/drivers/tc/tc.h ****  * driver will only clear the interrupt flags.
 186:./src/asf/xmega/drivers/tc/tc.h ****  *
 187:./src/asf/xmega/drivers/tc/tc.h ****  * \param tc Pointer to the Timer Counter (TC) base address
 188:./src/asf/xmega/drivers/tc/tc.h ****  * \param callback Reference to a callback function
 189:./src/asf/xmega/drivers/tc/tc.h ****  */
 190:./src/asf/xmega/drivers/tc/tc.h **** void tc_set_overflow_interrupt_callback(volatile void *tc,
 191:./src/asf/xmega/drivers/tc/tc.h **** 		tc_callback_t callback);
 192:./src/asf/xmega/drivers/tc/tc.h **** 
 193:./src/asf/xmega/drivers/tc/tc.h **** /**
 194:./src/asf/xmega/drivers/tc/tc.h ****  * \brief Set TC error interrupt callback function
 195:./src/asf/xmega/drivers/tc/tc.h ****  *
 196:./src/asf/xmega/drivers/tc/tc.h ****  * This function allows the caller to set and change the interrupt callback
 197:./src/asf/xmega/drivers/tc/tc.h ****  * function. Without setting a callback function the interrupt handler in the
 198:./src/asf/xmega/drivers/tc/tc.h ****  * driver will only clear the interrupt flags.
 199:./src/asf/xmega/drivers/tc/tc.h ****  *
 200:./src/asf/xmega/drivers/tc/tc.h ****  * \param tc Pointer to the Timer Counter (TC) base address
 201:./src/asf/xmega/drivers/tc/tc.h ****  * \param callback Reference to a callback function
 202:./src/asf/xmega/drivers/tc/tc.h ****  */
 203:./src/asf/xmega/drivers/tc/tc.h **** void tc_set_error_interrupt_callback(volatile void *tc, tc_callback_t callback);
 204:./src/asf/xmega/drivers/tc/tc.h **** 
 205:./src/asf/xmega/drivers/tc/tc.h **** /**
GAS LISTING /tmp/ccwf6aFs.s 			page 41


 206:./src/asf/xmega/drivers/tc/tc.h ****  * \brief Set TC Capture Compare Channel A interrupt callback function
 207:./src/asf/xmega/drivers/tc/tc.h ****  *
 208:./src/asf/xmega/drivers/tc/tc.h ****  * This function allows the caller to set and change the interrupt callback
 209:./src/asf/xmega/drivers/tc/tc.h ****  * function. Without setting a callback function the interrupt handler in the
 210:./src/asf/xmega/drivers/tc/tc.h ****  * driver will only clear the interrupt flags.
 211:./src/asf/xmega/drivers/tc/tc.h ****  *
 212:./src/asf/xmega/drivers/tc/tc.h ****  * \param tc Pointer to the Timer Counter (TC) base address
 213:./src/asf/xmega/drivers/tc/tc.h ****  * \param callback Reference to a callback function
 214:./src/asf/xmega/drivers/tc/tc.h ****  */
 215:./src/asf/xmega/drivers/tc/tc.h **** void tc_set_cca_interrupt_callback(volatile void *tc, tc_callback_t callback);
 216:./src/asf/xmega/drivers/tc/tc.h **** 
 217:./src/asf/xmega/drivers/tc/tc.h **** /**
 218:./src/asf/xmega/drivers/tc/tc.h ****  * \brief Set TC Capture Compare Channel B interrupt callback function
 219:./src/asf/xmega/drivers/tc/tc.h ****  *
 220:./src/asf/xmega/drivers/tc/tc.h ****  * This function allows the caller to set and change the interrupt callback
 221:./src/asf/xmega/drivers/tc/tc.h ****  * function. Without setting a callback function the interrupt handler in the
 222:./src/asf/xmega/drivers/tc/tc.h ****  * driver will only clear the interrupt flags.
 223:./src/asf/xmega/drivers/tc/tc.h ****  *
 224:./src/asf/xmega/drivers/tc/tc.h ****  * \param tc Pointer to the Timer Counter (TC) base address
 225:./src/asf/xmega/drivers/tc/tc.h ****  * \param callback Reference to a callback function
 226:./src/asf/xmega/drivers/tc/tc.h ****  */
 227:./src/asf/xmega/drivers/tc/tc.h **** void tc_set_ccb_interrupt_callback(volatile void *tc, tc_callback_t callback);
 228:./src/asf/xmega/drivers/tc/tc.h **** 
 229:./src/asf/xmega/drivers/tc/tc.h **** /**
 230:./src/asf/xmega/drivers/tc/tc.h ****  * \brief Set TC Capture Compare Channel C interrupt callback function
 231:./src/asf/xmega/drivers/tc/tc.h ****  *
 232:./src/asf/xmega/drivers/tc/tc.h ****  * This function allows the caller to set and change the interrupt callback
 233:./src/asf/xmega/drivers/tc/tc.h ****  * function. Without setting a callback function the interrupt handler in the
 234:./src/asf/xmega/drivers/tc/tc.h ****  * driver will only clear the interrupt flags.
 235:./src/asf/xmega/drivers/tc/tc.h ****  *
 236:./src/asf/xmega/drivers/tc/tc.h ****  * \param tc Pointer to the Timer Counter (TC) base address
 237:./src/asf/xmega/drivers/tc/tc.h ****  * \param callback Reference to a callback function
 238:./src/asf/xmega/drivers/tc/tc.h ****  */
 239:./src/asf/xmega/drivers/tc/tc.h **** void tc_set_ccc_interrupt_callback(volatile void *tc, tc_callback_t callback);
 240:./src/asf/xmega/drivers/tc/tc.h **** 
 241:./src/asf/xmega/drivers/tc/tc.h **** /**
 242:./src/asf/xmega/drivers/tc/tc.h ****  * \brief Set TC Capture Compare Channel D interrupt callback function
 243:./src/asf/xmega/drivers/tc/tc.h ****  *
 244:./src/asf/xmega/drivers/tc/tc.h ****  * This function allows the caller to set and change the interrupt callback
 245:./src/asf/xmega/drivers/tc/tc.h ****  * function. Without setting a callback function the interrupt handler in the
 246:./src/asf/xmega/drivers/tc/tc.h ****  * driver will only clear the interrupt flags.
 247:./src/asf/xmega/drivers/tc/tc.h ****  *
 248:./src/asf/xmega/drivers/tc/tc.h ****  * \param tc Pointer to the Timer Counter (TC) base address
 249:./src/asf/xmega/drivers/tc/tc.h ****  * \param callback Reference to a callback function
 250:./src/asf/xmega/drivers/tc/tc.h ****  */
 251:./src/asf/xmega/drivers/tc/tc.h **** void tc_set_ccd_interrupt_callback(volatile void *tc, tc_callback_t callback);
 252:./src/asf/xmega/drivers/tc/tc.h **** /**
 253:./src/asf/xmega/drivers/tc/tc.h ****  * \brief Configures TC overflow Interrupt level
 254:./src/asf/xmega/drivers/tc/tc.h ****  *
 255:./src/asf/xmega/drivers/tc/tc.h ****  * \param tc Pointer to TC module.
 256:./src/asf/xmega/drivers/tc/tc.h ****  * \param level Overflow interrupt level
 257:./src/asf/xmega/drivers/tc/tc.h ****  * \note  Configures OVFINTLVL in INTCTRLA
 258:./src/asf/xmega/drivers/tc/tc.h ****  */
 259:./src/asf/xmega/drivers/tc/tc.h **** static inline void tc_set_overflow_interrupt_level(volatile void *tc,
 260:./src/asf/xmega/drivers/tc/tc.h **** 		enum TC_INT_LEVEL_t level)
 261:./src/asf/xmega/drivers/tc/tc.h **** {
 262:./src/asf/xmega/drivers/tc/tc.h **** 	((TC0_t *)tc)->INTCTRLA = ((TC0_t *)tc)->INTCTRLA & ~TC0_OVFINTLVL_gm;
GAS LISTING /tmp/ccwf6aFs.s 			page 42


 263:./src/asf/xmega/drivers/tc/tc.h **** 	((TC0_t *)tc)->INTCTRLA =
 264:./src/asf/xmega/drivers/tc/tc.h **** 			((TC0_t *)tc)->INTCTRLA | (level << TC0_OVFINTLVL_gp);
 265:./src/asf/xmega/drivers/tc/tc.h **** }
 266:./src/asf/xmega/drivers/tc/tc.h **** 
 267:./src/asf/xmega/drivers/tc/tc.h **** /**
 268:./src/asf/xmega/drivers/tc/tc.h ****  * \brief Configures TC error Interrupt level
 269:./src/asf/xmega/drivers/tc/tc.h ****  *
 270:./src/asf/xmega/drivers/tc/tc.h ****  * \param tc Pointer to TC module.
 271:./src/asf/xmega/drivers/tc/tc.h ****  * \param level Error interrupt level
 272:./src/asf/xmega/drivers/tc/tc.h ****  * \note  Configures ERRINTLVL in INTCTRLA
 273:./src/asf/xmega/drivers/tc/tc.h ****  */
 274:./src/asf/xmega/drivers/tc/tc.h **** static inline void tc_set_error_interrupt_level(volatile void *tc,
 275:./src/asf/xmega/drivers/tc/tc.h **** 		enum TC_INT_LEVEL_t level)
 276:./src/asf/xmega/drivers/tc/tc.h **** {
 277:./src/asf/xmega/drivers/tc/tc.h **** 	((TC0_t *)tc)->INTCTRLA = ((TC0_t *)tc)->INTCTRLA & ~TC0_ERRINTLVL_gm;
 278:./src/asf/xmega/drivers/tc/tc.h **** 	((TC0_t *)tc)->INTCTRLA =
 279:./src/asf/xmega/drivers/tc/tc.h **** 			((TC0_t *)tc)->INTCTRLA | (level << TC0_ERRINTLVL_gp);
 280:./src/asf/xmega/drivers/tc/tc.h **** }
 281:./src/asf/xmega/drivers/tc/tc.h **** 
 282:./src/asf/xmega/drivers/tc/tc.h **** /**
 283:./src/asf/xmega/drivers/tc/tc.h ****  * \brief Configures TC Capture Compare A Interrupt level
 284:./src/asf/xmega/drivers/tc/tc.h ****  *
 285:./src/asf/xmega/drivers/tc/tc.h ****  * \param tc Pointer to TC module.
 286:./src/asf/xmega/drivers/tc/tc.h ****  * \param level CCA interrupt level
 287:./src/asf/xmega/drivers/tc/tc.h ****  * \note Configures CCAINTLVL in INTCTRLB
 288:./src/asf/xmega/drivers/tc/tc.h ****  */
 289:./src/asf/xmega/drivers/tc/tc.h **** static inline void tc_set_cca_interrupt_level(volatile void *tc,
 290:./src/asf/xmega/drivers/tc/tc.h **** 		enum TC_INT_LEVEL_t level)
 291:./src/asf/xmega/drivers/tc/tc.h **** {
 292:./src/asf/xmega/drivers/tc/tc.h **** 	((TC0_t *)tc)->INTCTRLB = ((TC0_t *)tc)->INTCTRLB & ~TC0_CCAINTLVL_gm;
 293:./src/asf/xmega/drivers/tc/tc.h **** 	((TC0_t *)tc)->INTCTRLB =
 294:./src/asf/xmega/drivers/tc/tc.h **** 			((TC0_t *)tc)->INTCTRLB | (level << TC0_CCAINTLVL_gp);
 295:./src/asf/xmega/drivers/tc/tc.h **** }
 296:./src/asf/xmega/drivers/tc/tc.h **** 
 297:./src/asf/xmega/drivers/tc/tc.h **** /**
 298:./src/asf/xmega/drivers/tc/tc.h ****  * \brief Configures TC Capture Compare B Interrupt level
 299:./src/asf/xmega/drivers/tc/tc.h ****  *
 300:./src/asf/xmega/drivers/tc/tc.h ****  * \param tc Pointer to TC module.
 301:./src/asf/xmega/drivers/tc/tc.h ****  * \param level CCB interrupt level
 302:./src/asf/xmega/drivers/tc/tc.h ****  * \note Configures CCBINTLVL in INTCTRLB
 303:./src/asf/xmega/drivers/tc/tc.h ****  */
 304:./src/asf/xmega/drivers/tc/tc.h **** static inline void tc_set_ccb_interrupt_level(volatile void *tc,
 305:./src/asf/xmega/drivers/tc/tc.h **** 		enum TC_INT_LEVEL_t level)
 306:./src/asf/xmega/drivers/tc/tc.h **** {
 307:./src/asf/xmega/drivers/tc/tc.h **** 	((TC0_t *)tc)->INTCTRLB = ((TC0_t *)tc)->INTCTRLB & ~TC0_CCBINTLVL_gm;
 308:./src/asf/xmega/drivers/tc/tc.h **** 	((TC0_t *)tc)->INTCTRLB =
 309:./src/asf/xmega/drivers/tc/tc.h **** 			((TC0_t *)tc)->INTCTRLB | (level << TC0_CCBINTLVL_gp);
 310:./src/asf/xmega/drivers/tc/tc.h **** }
 311:./src/asf/xmega/drivers/tc/tc.h **** 
 312:./src/asf/xmega/drivers/tc/tc.h **** /**
 313:./src/asf/xmega/drivers/tc/tc.h ****  * \brief Configures TC Capture Compare C Interrupt level
 314:./src/asf/xmega/drivers/tc/tc.h ****  *
 315:./src/asf/xmega/drivers/tc/tc.h ****  * \param tc Pointer to TC module.
 316:./src/asf/xmega/drivers/tc/tc.h ****  * \param level CCC interrupt level
 317:./src/asf/xmega/drivers/tc/tc.h ****  * \note Configures CCCINTLVL in INTCTRLB
 318:./src/asf/xmega/drivers/tc/tc.h ****  */
 319:./src/asf/xmega/drivers/tc/tc.h **** static inline void tc_set_ccc_interrupt_level(volatile void *tc,
GAS LISTING /tmp/ccwf6aFs.s 			page 43


 320:./src/asf/xmega/drivers/tc/tc.h **** 		enum TC_INT_LEVEL_t level)
 321:./src/asf/xmega/drivers/tc/tc.h **** {
 322:./src/asf/xmega/drivers/tc/tc.h **** 	((TC0_t *)tc)->INTCTRLB = ((TC0_t *)tc)->INTCTRLB & ~TC0_CCCINTLVL_gm;
 323:./src/asf/xmega/drivers/tc/tc.h **** 	((TC0_t *)tc)->INTCTRLB =
 324:./src/asf/xmega/drivers/tc/tc.h **** 			((TC0_t *)tc)->INTCTRLB | (level << TC0_CCCINTLVL_gp);
 325:./src/asf/xmega/drivers/tc/tc.h **** }
 326:./src/asf/xmega/drivers/tc/tc.h **** 
 327:./src/asf/xmega/drivers/tc/tc.h ****   /**
 328:./src/asf/xmega/drivers/tc/tc.h ****  * \brief Configures TC Capture Compare D Interrupt level
 329:./src/asf/xmega/drivers/tc/tc.h ****  *
 330:./src/asf/xmega/drivers/tc/tc.h ****  * \param tc Pointer to TC module.
 331:./src/asf/xmega/drivers/tc/tc.h ****  * \param level CCD interrupt level
 332:./src/asf/xmega/drivers/tc/tc.h ****  * \note Configures CCDINTLVL in INTCTRLB
 333:./src/asf/xmega/drivers/tc/tc.h ****  */
 334:./src/asf/xmega/drivers/tc/tc.h **** static inline void tc_set_ccd_interrupt_level(volatile void *tc,
 335:./src/asf/xmega/drivers/tc/tc.h **** 		enum TC_INT_LEVEL_t level)
 336:./src/asf/xmega/drivers/tc/tc.h **** {
 337:./src/asf/xmega/drivers/tc/tc.h **** 	((TC0_t *)tc)->INTCTRLB = ((TC0_t *)tc)->INTCTRLB & ~TC0_CCDINTLVL_gm;
 338:./src/asf/xmega/drivers/tc/tc.h **** 	((TC0_t *)tc)->INTCTRLB =
 339:./src/asf/xmega/drivers/tc/tc.h **** 			((TC0_t *)tc)->INTCTRLB | (level << TC0_CCDINTLVL_gp);
 340:./src/asf/xmega/drivers/tc/tc.h **** }
 341:./src/asf/xmega/drivers/tc/tc.h **** 
 342:./src/asf/xmega/drivers/tc/tc.h **** //@}
 343:./src/asf/xmega/drivers/tc/tc.h **** 
 344:./src/asf/xmega/drivers/tc/tc.h **** /**
 345:./src/asf/xmega/drivers/tc/tc.h ****  * \brief Configure Timer Clock Source
 346:./src/asf/xmega/drivers/tc/tc.h ****  *
 347:./src/asf/xmega/drivers/tc/tc.h ****  * \param tc Pointer to TC module.
 348:./src/asf/xmega/drivers/tc/tc.h ****  * \param TC_CLKSEL_enum Clock source selection
 349:./src/asf/xmega/drivers/tc/tc.h ****  * \note Configuring the clock also starts the timer
 350:./src/asf/xmega/drivers/tc/tc.h ****  */
 351:./src/asf/xmega/drivers/tc/tc.h **** static inline void tc_write_clock_source(volatile void *tc,
 352:./src/asf/xmega/drivers/tc/tc.h **** 		TC_CLKSEL_t TC_CLKSEL_enum)
 353:./src/asf/xmega/drivers/tc/tc.h **** {
 354:./src/asf/xmega/drivers/tc/tc.h **** 	((TC0_t *)tc)->CTRLA =
 355:./src/asf/xmega/drivers/tc/tc.h **** 			(((TC0_t *)tc)->CTRLA & ~TC0_CLKSEL_gm) |
 356:./src/asf/xmega/drivers/tc/tc.h **** 			TC_CLKSEL_enum;
 357:./src/asf/xmega/drivers/tc/tc.h **** }
 358:./src/asf/xmega/drivers/tc/tc.h **** 
 359:./src/asf/xmega/drivers/tc/tc.h **** /**
 360:./src/asf/xmega/drivers/tc/tc.h ****  * \brief Read Timer Clock Source
 361:./src/asf/xmega/drivers/tc/tc.h ****  *
 362:./src/asf/xmega/drivers/tc/tc.h ****  * \param tc Pointer to TC module.
 363:./src/asf/xmega/drivers/tc/tc.h ****  * \return TC_CLKSEL_enum Clock source selection
 364:./src/asf/xmega/drivers/tc/tc.h ****  */
 365:./src/asf/xmega/drivers/tc/tc.h **** static inline TC_CLKSEL_t tc_read_clock_source(volatile void *tc)
 366:./src/asf/xmega/drivers/tc/tc.h **** {
 367:./src/asf/xmega/drivers/tc/tc.h **** 	return (TC_CLKSEL_t)(((TC0_t *)tc)->CTRLA & TC0_CLKSEL_gm);
 368:./src/asf/xmega/drivers/tc/tc.h **** }
 369:./src/asf/xmega/drivers/tc/tc.h **** 
 370:./src/asf/xmega/drivers/tc/tc.h **** /**
 371:./src/asf/xmega/drivers/tc/tc.h ****  * \brief Select clock for a specified TC and resolution.
 372:./src/asf/xmega/drivers/tc/tc.h ****  *
 373:./src/asf/xmega/drivers/tc/tc.h ****  * This function configures the clock selection, as prescaled CLKper, for a
 374:./src/asf/xmega/drivers/tc/tc.h ****  * specified TC that gives a resolution at least as high as the one specified.
 375:./src/asf/xmega/drivers/tc/tc.h ****  * The resolution of a TC is synonymous with its clock frequency.
 376:./src/asf/xmega/drivers/tc/tc.h ****  *
GAS LISTING /tmp/ccwf6aFs.s 			page 44


 377:./src/asf/xmega/drivers/tc/tc.h ****  * \note It is also possible to clock TCs with event channels. This is not
 378:./src/asf/xmega/drivers/tc/tc.h ****  * handled by this implementation.
 379:./src/asf/xmega/drivers/tc/tc.h ****  *
 380:./src/asf/xmega/drivers/tc/tc.h ****  * \param tc   ID of TC to get clock selection for.
 381:./src/asf/xmega/drivers/tc/tc.h ****  * \param resolution Desired resolution for the TC in Hz.
 382:./src/asf/xmega/drivers/tc/tc.h ****  */
 383:./src/asf/xmega/drivers/tc/tc.h **** static inline void tc_set_resolution(void *tc, uint32_t resolution)
 384:./src/asf/xmega/drivers/tc/tc.h **** {
 385:./src/asf/xmega/drivers/tc/tc.h **** 	uint32_t tc_clk_rate = sysclk_get_per_hz();
 386:./src/asf/xmega/drivers/tc/tc.h **** 
 387:./src/asf/xmega/drivers/tc/tc.h **** 	if (resolution <= (tc_clk_rate / 1024)) {
 388:./src/asf/xmega/drivers/tc/tc.h **** 		tc_write_clock_source(tc, TC_CLKSEL_DIV1024_gc);
 389:./src/asf/xmega/drivers/tc/tc.h **** 	} else if (resolution <= (tc_clk_rate / 256)) {
 390:./src/asf/xmega/drivers/tc/tc.h **** 		tc_write_clock_source(tc, TC_CLKSEL_DIV256_gc);
 391:./src/asf/xmega/drivers/tc/tc.h **** 	} else if (resolution <= (tc_clk_rate / 64)) {
 392:./src/asf/xmega/drivers/tc/tc.h **** 		tc_write_clock_source(tc, TC_CLKSEL_DIV64_gc);
 393:./src/asf/xmega/drivers/tc/tc.h **** 	} else if (resolution <= (tc_clk_rate / 8)) {
 394:./src/asf/xmega/drivers/tc/tc.h **** 		tc_write_clock_source(tc, TC_CLKSEL_DIV8_gc);
 395:./src/asf/xmega/drivers/tc/tc.h **** 	} else if (resolution <= (tc_clk_rate / 4)) {
 396:./src/asf/xmega/drivers/tc/tc.h **** 		tc_write_clock_source(tc, TC_CLKSEL_DIV4_gc);
 397:./src/asf/xmega/drivers/tc/tc.h **** 	} else if (resolution <= (tc_clk_rate / 2)) {
 398:./src/asf/xmega/drivers/tc/tc.h **** 		tc_write_clock_source(tc, TC_CLKSEL_DIV2_gc);
 399:./src/asf/xmega/drivers/tc/tc.h **** 	} else {
 400:./src/asf/xmega/drivers/tc/tc.h **** 		tc_write_clock_source(tc, TC_CLKSEL_DIV1_gc);
 401:./src/asf/xmega/drivers/tc/tc.h **** 	}
 402:./src/asf/xmega/drivers/tc/tc.h **** }
 403:./src/asf/xmega/drivers/tc/tc.h **** 
 404:./src/asf/xmega/drivers/tc/tc.h **** /**
 405:./src/asf/xmega/drivers/tc/tc.h ****  * \brief Get real resolution for a specified TC.
 406:./src/asf/xmega/drivers/tc/tc.h ****  *
 407:./src/asf/xmega/drivers/tc/tc.h ****  * This function returns the resolution which the specified clock selection
 408:./src/asf/xmega/drivers/tc/tc.h ****  * of TC will result in. The resolution of a TC is synonymous with its clock
 409:./src/asf/xmega/drivers/tc/tc.h ****  * frequency.
 410:./src/asf/xmega/drivers/tc/tc.h ****  *
 411:./src/asf/xmega/drivers/tc/tc.h ****  * \note This function does not handle event channel clock selections.
 412:./src/asf/xmega/drivers/tc/tc.h ****  *
 413:./src/asf/xmega/drivers/tc/tc.h ****  * \param tc Pointer of TC module to get resolution for.
 414:./src/asf/xmega/drivers/tc/tc.h ****  *
 415:./src/asf/xmega/drivers/tc/tc.h ****  * \return The resolution of \a tc.
 416:./src/asf/xmega/drivers/tc/tc.h ****  */
 417:./src/asf/xmega/drivers/tc/tc.h **** static inline uint32_t tc_get_resolution(void *tc)
 418:./src/asf/xmega/drivers/tc/tc.h **** {
 419:./src/asf/xmega/drivers/tc/tc.h **** 	uint32_t tc_clk_rate = sysclk_get_per_hz();
 420:./src/asf/xmega/drivers/tc/tc.h **** 	switch (tc_read_clock_source(tc)) {
 421:./src/asf/xmega/drivers/tc/tc.h **** 	case TC_CLKSEL_OFF_gc:
 422:./src/asf/xmega/drivers/tc/tc.h **** 		tc_clk_rate = 0;
 423:./src/asf/xmega/drivers/tc/tc.h **** 		break;
 424:./src/asf/xmega/drivers/tc/tc.h **** 
 425:./src/asf/xmega/drivers/tc/tc.h **** 	case TC_CLKSEL_DIV1024_gc:
 426:./src/asf/xmega/drivers/tc/tc.h **** 		tc_clk_rate /= 1024;
 427:./src/asf/xmega/drivers/tc/tc.h **** 		break;
 428:./src/asf/xmega/drivers/tc/tc.h **** 
 429:./src/asf/xmega/drivers/tc/tc.h **** 	case TC_CLKSEL_DIV256_gc:
 430:./src/asf/xmega/drivers/tc/tc.h **** 		tc_clk_rate /= 256;
 431:./src/asf/xmega/drivers/tc/tc.h **** 		break;
 432:./src/asf/xmega/drivers/tc/tc.h **** 
 433:./src/asf/xmega/drivers/tc/tc.h **** 	case TC_CLKSEL_DIV64_gc:
GAS LISTING /tmp/ccwf6aFs.s 			page 45


 434:./src/asf/xmega/drivers/tc/tc.h **** 		tc_clk_rate /= 64;
 435:./src/asf/xmega/drivers/tc/tc.h **** 		break;
 436:./src/asf/xmega/drivers/tc/tc.h **** 
 437:./src/asf/xmega/drivers/tc/tc.h **** 	case TC_CLKSEL_DIV8_gc:
 438:./src/asf/xmega/drivers/tc/tc.h **** 		tc_clk_rate /= 8;
 439:./src/asf/xmega/drivers/tc/tc.h **** 		break;
 440:./src/asf/xmega/drivers/tc/tc.h **** 
 441:./src/asf/xmega/drivers/tc/tc.h **** 	case TC_CLKSEL_DIV4_gc:
 442:./src/asf/xmega/drivers/tc/tc.h **** 		tc_clk_rate /= 4;
 443:./src/asf/xmega/drivers/tc/tc.h **** 		break;
 444:./src/asf/xmega/drivers/tc/tc.h **** 
 445:./src/asf/xmega/drivers/tc/tc.h **** 	case TC_CLKSEL_DIV2_gc:
 446:./src/asf/xmega/drivers/tc/tc.h **** 		tc_clk_rate /= 2;
 447:./src/asf/xmega/drivers/tc/tc.h **** 		break;
 448:./src/asf/xmega/drivers/tc/tc.h **** 
 449:./src/asf/xmega/drivers/tc/tc.h **** 	case TC_CLKSEL_DIV1_gc:
 450:./src/asf/xmega/drivers/tc/tc.h **** 		break;
 451:./src/asf/xmega/drivers/tc/tc.h **** 
 452:./src/asf/xmega/drivers/tc/tc.h **** 	default:
 453:./src/asf/xmega/drivers/tc/tc.h **** 		tc_clk_rate = 0;
 454:./src/asf/xmega/drivers/tc/tc.h **** 		break;
 455:./src/asf/xmega/drivers/tc/tc.h **** 	}
 456:./src/asf/xmega/drivers/tc/tc.h **** 	return (tc_clk_rate);
 457:./src/asf/xmega/drivers/tc/tc.h **** }
 458:./src/asf/xmega/drivers/tc/tc.h **** 
 459:./src/asf/xmega/drivers/tc/tc.h **** /**
 460:./src/asf/xmega/drivers/tc/tc.h ****  * \brief Configure Timer Direction
 461:./src/asf/xmega/drivers/tc/tc.h ****  *
 462:./src/asf/xmega/drivers/tc/tc.h ****  * \param tc Pointer to TC module.
 463:./src/asf/xmega/drivers/tc/tc.h ****  * \param dir Timer direction :
 464:./src/asf/xmega/drivers/tc/tc.h ****  */
 465:./src/asf/xmega/drivers/tc/tc.h **** static inline void tc_set_direction(volatile void *tc, enum tc_dir_t dir)
 466:./src/asf/xmega/drivers/tc/tc.h **** {
 467:./src/asf/xmega/drivers/tc/tc.h **** 	if (dir == TC_UP) {
 468:./src/asf/xmega/drivers/tc/tc.h **** 		((TC0_t *)tc)->CTRLFCLR |= ~TC0_DIR_bm;
 469:./src/asf/xmega/drivers/tc/tc.h **** 	} else {
 470:./src/asf/xmega/drivers/tc/tc.h **** 		((TC0_t *)tc)->CTRLFSET |= TC0_DIR_bm;
 471:./src/asf/xmega/drivers/tc/tc.h **** 	}
 472:./src/asf/xmega/drivers/tc/tc.h **** }
 473:./src/asf/xmega/drivers/tc/tc.h **** 
 474:./src/asf/xmega/drivers/tc/tc.h **** /**
 475:./src/asf/xmega/drivers/tc/tc.h ****  * \brief Write the Counter value of the Timer
 476:./src/asf/xmega/drivers/tc/tc.h ****  *
 477:./src/asf/xmega/drivers/tc/tc.h ****  * \param tc Pointer to TC module.
 478:./src/asf/xmega/drivers/tc/tc.h ****  * \param cnt_value Counter value :
 479:./src/asf/xmega/drivers/tc/tc.h ****  */
 480:./src/asf/xmega/drivers/tc/tc.h **** static inline void tc_write_count(volatile void *tc, uint16_t cnt_value)
 481:./src/asf/xmega/drivers/tc/tc.h **** {
 482:./src/asf/xmega/drivers/tc/tc.h **** 	((TC0_t *)tc)->CNT = cnt_value;
 483:./src/asf/xmega/drivers/tc/tc.h **** }
 484:./src/asf/xmega/drivers/tc/tc.h **** 
 485:./src/asf/xmega/drivers/tc/tc.h **** /**
 486:./src/asf/xmega/drivers/tc/tc.h ****  * \brief Reads the Counter value of the Timer
 487:./src/asf/xmega/drivers/tc/tc.h ****  *
 488:./src/asf/xmega/drivers/tc/tc.h ****  * \param tc Pointer to TC module.
 489:./src/asf/xmega/drivers/tc/tc.h ****  * \note Output the Counter value CNT
 490:./src/asf/xmega/drivers/tc/tc.h ****  */
GAS LISTING /tmp/ccwf6aFs.s 			page 46


 491:./src/asf/xmega/drivers/tc/tc.h **** static inline uint16_t tc_read_count(volatile void *tc)
 492:./src/asf/xmega/drivers/tc/tc.h **** {
 493:./src/asf/xmega/drivers/tc/tc.h **** 	return (((TC0_t *)tc)->CNT);
 494:./src/asf/xmega/drivers/tc/tc.h **** }
 495:./src/asf/xmega/drivers/tc/tc.h **** 
 496:./src/asf/xmega/drivers/tc/tc.h **** /**
 497:./src/asf/xmega/drivers/tc/tc.h ****  * \brief Writes the Period value of the Timer
 498:./src/asf/xmega/drivers/tc/tc.h ****  *
 499:./src/asf/xmega/drivers/tc/tc.h ****  * \param tc Pointer to TC module.
 500:./src/asf/xmega/drivers/tc/tc.h ****  * \param per_value Period value : PER
 501:./src/asf/xmega/drivers/tc/tc.h ****  */
 502:./src/asf/xmega/drivers/tc/tc.h **** static inline void tc_write_period(volatile void *tc, uint16_t per_value)
 503:./src/asf/xmega/drivers/tc/tc.h **** {
 504:./src/asf/xmega/drivers/tc/tc.h **** 	((TC0_t *)tc)->PER = per_value;
 505:./src/asf/xmega/drivers/tc/tc.h **** }
 506:./src/asf/xmega/drivers/tc/tc.h **** 
 507:./src/asf/xmega/drivers/tc/tc.h **** /**
 508:./src/asf/xmega/drivers/tc/tc.h ****  * \brief Reads the Period value of the Timer
 509:./src/asf/xmega/drivers/tc/tc.h ****  *
 510:./src/asf/xmega/drivers/tc/tc.h ****  * \param tc Pointer to TC module.
 511:./src/asf/xmega/drivers/tc/tc.h ****  * \return Period value : PER
 512:./src/asf/xmega/drivers/tc/tc.h ****  */
 513:./src/asf/xmega/drivers/tc/tc.h **** static inline uint16_t tc_read_period(volatile void *tc)
 514:./src/asf/xmega/drivers/tc/tc.h **** {
 515:./src/asf/xmega/drivers/tc/tc.h **** 	return (((TC0_t *)tc)->PER);
 516:./src/asf/xmega/drivers/tc/tc.h **** }
 517:./src/asf/xmega/drivers/tc/tc.h **** 
 518:./src/asf/xmega/drivers/tc/tc.h **** /**
 519:./src/asf/xmega/drivers/tc/tc.h ****  * \brief Writes the Period Buffer value of the Timer
 520:./src/asf/xmega/drivers/tc/tc.h ****  *
 521:./src/asf/xmega/drivers/tc/tc.h ****  * \param tc Pointer to TC module.
 522:./src/asf/xmega/drivers/tc/tc.h ****  * \param per_buf Period Buffer value : PERH/PERL
 523:./src/asf/xmega/drivers/tc/tc.h ****  */
 524:./src/asf/xmega/drivers/tc/tc.h **** static inline void tc_write_period_buffer(volatile void *tc, uint16_t per_buf)
 525:./src/asf/xmega/drivers/tc/tc.h **** {
 526:./src/asf/xmega/drivers/tc/tc.h **** 	((TC0_t *)tc)->PERBUF = per_buf;
 527:./src/asf/xmega/drivers/tc/tc.h **** }
 528:./src/asf/xmega/drivers/tc/tc.h **** 
 529:./src/asf/xmega/drivers/tc/tc.h **** /**
 530:./src/asf/xmega/drivers/tc/tc.h ****  * \brief Reads the Period Buffer value of the Timer
 531:./src/asf/xmega/drivers/tc/tc.h ****  *
 532:./src/asf/xmega/drivers/tc/tc.h ****  * \param tc Pointer to TC module.
 533:./src/asf/xmega/drivers/tc/tc.h ****  * \return Period Buffer value : PERH/PERL
 534:./src/asf/xmega/drivers/tc/tc.h ****  */
 535:./src/asf/xmega/drivers/tc/tc.h **** static inline uint16_t tc_read_period_buffer(volatile void *tc)
 536:./src/asf/xmega/drivers/tc/tc.h **** {
 537:./src/asf/xmega/drivers/tc/tc.h **** 	return (((TC0_t *)tc)->PERBUF);
 538:./src/asf/xmega/drivers/tc/tc.h **** }
 539:./src/asf/xmega/drivers/tc/tc.h **** 
 540:./src/asf/xmega/drivers/tc/tc.h **** /**
 541:./src/asf/xmega/drivers/tc/tc.h ****  * \brief Tests if the Period Buffer is valid
 542:./src/asf/xmega/drivers/tc/tc.h ****  *
 543:./src/asf/xmega/drivers/tc/tc.h ****  * \param tc Pointer to TC module.
 544:./src/asf/xmega/drivers/tc/tc.h ****  * \return  period Buffer is valid or not:PERBV
 545:./src/asf/xmega/drivers/tc/tc.h ****  */
 546:./src/asf/xmega/drivers/tc/tc.h **** static inline bool tc_period_buffer_is_valid(volatile void *tc)
 547:./src/asf/xmega/drivers/tc/tc.h **** {
GAS LISTING /tmp/ccwf6aFs.s 			page 47


 548:./src/asf/xmega/drivers/tc/tc.h **** 	return (((TC0_t *)tc)->CTRLGCLR & TC0_PERBV_bm);
 549:./src/asf/xmega/drivers/tc/tc.h **** }
 550:./src/asf/xmega/drivers/tc/tc.h **** 
 551:./src/asf/xmega/drivers/tc/tc.h **** /**
 552:./src/asf/xmega/drivers/tc/tc.h ****  * \brief Enables delay (used for 32bit timer mode)
 553:./src/asf/xmega/drivers/tc/tc.h ****  *
 554:./src/asf/xmega/drivers/tc/tc.h ****  * \param tc Pointer to TC module.
 555:./src/asf/xmega/drivers/tc/tc.h ****  * \note  enables Delay mode
 556:./src/asf/xmega/drivers/tc/tc.h ****  */
 557:./src/asf/xmega/drivers/tc/tc.h **** static inline void tc_enable_delay(volatile void *tc)
 558:./src/asf/xmega/drivers/tc/tc.h **** {
 559:./src/asf/xmega/drivers/tc/tc.h **** 	((TC0_t *)tc)->CTRLD = (((TC0_t *)tc)->CTRLD &
 560:./src/asf/xmega/drivers/tc/tc.h **** 			~TC0_EVDLY_bm) | (1 << TC0_EVDLY_bp);
 561:./src/asf/xmega/drivers/tc/tc.h **** }
 562:./src/asf/xmega/drivers/tc/tc.h **** 
 563:./src/asf/xmega/drivers/tc/tc.h **** /**
 564:./src/asf/xmega/drivers/tc/tc.h ****  * \brief Disables delay
 565:./src/asf/xmega/drivers/tc/tc.h ****  *
 566:./src/asf/xmega/drivers/tc/tc.h ****  * \param tc Pointer to TC module.
 567:./src/asf/xmega/drivers/tc/tc.h ****  * \note  disables Delay mode
 568:./src/asf/xmega/drivers/tc/tc.h ****  */
 569:./src/asf/xmega/drivers/tc/tc.h **** static inline void tc_disable_delay(volatile void *tc)
 570:./src/asf/xmega/drivers/tc/tc.h **** {
 571:./src/asf/xmega/drivers/tc/tc.h **** 	((TC0_t *)tc)->CTRLD = ((TC0_t *)tc)->CTRLD & ~TC0_EVDLY_bm;
 572:./src/asf/xmega/drivers/tc/tc.h **** }
 573:./src/asf/xmega/drivers/tc/tc.h **** 
 574:./src/asf/xmega/drivers/tc/tc.h **** /**
 575:./src/asf/xmega/drivers/tc/tc.h ****  * \brief Tests if the Overflow flag is set
 576:./src/asf/xmega/drivers/tc/tc.h ****  *
 577:./src/asf/xmega/drivers/tc/tc.h ****  * \param tc Pointer to TC module.
 578:./src/asf/xmega/drivers/tc/tc.h ****  * \return  overflow has occurred or not : OVFIF
 579:./src/asf/xmega/drivers/tc/tc.h ****  */
 580:./src/asf/xmega/drivers/tc/tc.h **** static inline bool tc_is_overflow(volatile void *tc)
 581:./src/asf/xmega/drivers/tc/tc.h **** {
 582:./src/asf/xmega/drivers/tc/tc.h **** 	return (((TC0_t *)tc)->INTFLAGS & TC0_OVFIF_bm);
 583:./src/asf/xmega/drivers/tc/tc.h **** }
 584:./src/asf/xmega/drivers/tc/tc.h **** 
 585:./src/asf/xmega/drivers/tc/tc.h **** /**
 586:./src/asf/xmega/drivers/tc/tc.h ****  * \brief Clears the Overflow flag
 587:./src/asf/xmega/drivers/tc/tc.h ****  *
 588:./src/asf/xmega/drivers/tc/tc.h ****  * \param tc Pointer to TC module.
 589:./src/asf/xmega/drivers/tc/tc.h ****  * \note  OVFIF is cleared
 590:./src/asf/xmega/drivers/tc/tc.h ****  */
 591:./src/asf/xmega/drivers/tc/tc.h **** static inline void tc_clear_overflow(volatile void *tc)
 592:./src/asf/xmega/drivers/tc/tc.h **** {
 593:./src/asf/xmega/drivers/tc/tc.h **** 	((TC0_t *)tc)->INTFLAGS |= TC0_OVFIF_bm;
 594:./src/asf/xmega/drivers/tc/tc.h **** }
 595:./src/asf/xmega/drivers/tc/tc.h **** 
 596:./src/asf/xmega/drivers/tc/tc.h **** /**
 597:./src/asf/xmega/drivers/tc/tc.h ****  * \brief Tests if the Error flag is set
 598:./src/asf/xmega/drivers/tc/tc.h ****  *
 599:./src/asf/xmega/drivers/tc/tc.h ****  * \param tc Pointer to TC module.
 600:./src/asf/xmega/drivers/tc/tc.h ****  * \return  Error has occurred or not : ERRIF
 601:./src/asf/xmega/drivers/tc/tc.h ****  */
 602:./src/asf/xmega/drivers/tc/tc.h **** static inline bool tc_read_error(volatile void *tc)
 603:./src/asf/xmega/drivers/tc/tc.h **** {
 604:./src/asf/xmega/drivers/tc/tc.h **** 	return (((TC0_t *)tc)->INTFLAGS & TC0_ERRIF_bm);
GAS LISTING /tmp/ccwf6aFs.s 			page 48


 605:./src/asf/xmega/drivers/tc/tc.h **** }
 606:./src/asf/xmega/drivers/tc/tc.h **** 
 607:./src/asf/xmega/drivers/tc/tc.h **** /**
 608:./src/asf/xmega/drivers/tc/tc.h ****  * \brief Clears the Error flag
 609:./src/asf/xmega/drivers/tc/tc.h ****  *
 610:./src/asf/xmega/drivers/tc/tc.h ****  * \param tc Pointer to TC module.
 611:./src/asf/xmega/drivers/tc/tc.h ****  * \note  ERRIF is cleared
 612:./src/asf/xmega/drivers/tc/tc.h ****  */
 613:./src/asf/xmega/drivers/tc/tc.h **** static inline void tc_clear_error(volatile void *tc)
 614:./src/asf/xmega/drivers/tc/tc.h **** {
 615:./src/asf/xmega/drivers/tc/tc.h **** 	((TC0_t *)tc)->INTFLAGS |= TC0_ERRIF_bm;
 616:./src/asf/xmega/drivers/tc/tc.h **** }
 617:./src/asf/xmega/drivers/tc/tc.h **** 
 618:./src/asf/xmega/drivers/tc/tc.h **** /**
 619:./src/asf/xmega/drivers/tc/tc.h ****  * \brief Restart the Timer
 620:./src/asf/xmega/drivers/tc/tc.h ****  *
 621:./src/asf/xmega/drivers/tc/tc.h ****  * \param tc Pointer to TC module.
 622:./src/asf/xmega/drivers/tc/tc.h ****  * \note  CMD[3] in CTRLFSET is set to 1 and CMD[2] in CTRLFCLR is set
 623:./src/asf/xmega/drivers/tc/tc.h ****  */
 624:./src/asf/xmega/drivers/tc/tc.h **** static inline void tc_restart(volatile void *tc)
 625:./src/asf/xmega/drivers/tc/tc.h **** {
 626:./src/asf/xmega/drivers/tc/tc.h **** 	((TC0_t *)tc)->CTRLFSET = TC_CMD_RESTART_gc;
 627:./src/asf/xmega/drivers/tc/tc.h **** }
 628:./src/asf/xmega/drivers/tc/tc.h **** 
 629:./src/asf/xmega/drivers/tc/tc.h **** /**
 630:./src/asf/xmega/drivers/tc/tc.h ****  * \brief Reset the Timer
 631:./src/asf/xmega/drivers/tc/tc.h ****  *
 632:./src/asf/xmega/drivers/tc/tc.h ****  * \param tc Pointer to TC module.
 633:./src/asf/xmega/drivers/tc/tc.h ****  * \note  CMD[3:2] in CTRLFSET are set to 1
 634:./src/asf/xmega/drivers/tc/tc.h ****  */
 635:./src/asf/xmega/drivers/tc/tc.h **** static inline void tc_reset(volatile void *tc)
 636:./src/asf/xmega/drivers/tc/tc.h **** {
 637:./src/asf/xmega/drivers/tc/tc.h **** 	((TC0_t *)tc)->CTRLFSET = TC_CMD_RESET_gc;
 638:./src/asf/xmega/drivers/tc/tc.h **** }
 639:./src/asf/xmega/drivers/tc/tc.h **** 
 640:./src/asf/xmega/drivers/tc/tc.h **** /**
 641:./src/asf/xmega/drivers/tc/tc.h ****  * \brief Update the Timer
 642:./src/asf/xmega/drivers/tc/tc.h ****  *
 643:./src/asf/xmega/drivers/tc/tc.h ****  * \param tc Pointer to TC module.
 644:./src/asf/xmega/drivers/tc/tc.h ****  * \note  CMD[2] in CTRLFSET is set to 1 and CMD[3] in CTRLFCLR is set
 645:./src/asf/xmega/drivers/tc/tc.h ****  */
 646:./src/asf/xmega/drivers/tc/tc.h **** static inline void tc_update(volatile void *tc)
 647:./src/asf/xmega/drivers/tc/tc.h **** {
 648:./src/asf/xmega/drivers/tc/tc.h **** 	((TC0_t *)tc)->CTRLFSET = TC_CMD_UPDATE_gc;
 649:./src/asf/xmega/drivers/tc/tc.h **** }
 650:./src/asf/xmega/drivers/tc/tc.h **** 
 651:./src/asf/xmega/drivers/tc/tc.h **** /**
 652:./src/asf/xmega/drivers/tc/tc.h ****  * \brief Configures the Timer in Byte mode
 653:./src/asf/xmega/drivers/tc/tc.h ****  *
 654:./src/asf/xmega/drivers/tc/tc.h ****  * \param tc Pointer to TC module.
 655:./src/asf/xmega/drivers/tc/tc.h ****  * \note Configures  BYTEM in CTRLE
 656:./src/asf/xmega/drivers/tc/tc.h ****  */
 657:./src/asf/xmega/drivers/tc/tc.h **** static inline void tc_set_8bits_mode(volatile void *tc)
 658:./src/asf/xmega/drivers/tc/tc.h **** {
 659:./src/asf/xmega/drivers/tc/tc.h **** #ifdef TC0_BYTEM0_bm
 660:./src/asf/xmega/drivers/tc/tc.h **** 	((TC0_t *)tc)->CTRLE |= TC0_BYTEM0_bm;
 661:./src/asf/xmega/drivers/tc/tc.h **** #else
GAS LISTING /tmp/ccwf6aFs.s 			page 49


 662:./src/asf/xmega/drivers/tc/tc.h **** 	((TC0_t *)tc)->CTRLE |= TC0_BYTEM_bm;
 663:./src/asf/xmega/drivers/tc/tc.h **** #endif
 664:./src/asf/xmega/drivers/tc/tc.h **** }
 665:./src/asf/xmega/drivers/tc/tc.h **** 
 666:./src/asf/xmega/drivers/tc/tc.h **** /**
 667:./src/asf/xmega/drivers/tc/tc.h ****  * \brief Locks the Update of the Buffered registers
 668:./src/asf/xmega/drivers/tc/tc.h ****  *
 669:./src/asf/xmega/drivers/tc/tc.h ****  * \param tc Pointer to TC module.
 670:./src/asf/xmega/drivers/tc/tc.h ****  *
 671:./src/asf/xmega/drivers/tc/tc.h ****  *  */
 672:./src/asf/xmega/drivers/tc/tc.h **** static inline void tc_lock_update_buffers(volatile void *tc)
 673:./src/asf/xmega/drivers/tc/tc.h **** {
 674:./src/asf/xmega/drivers/tc/tc.h **** 	((TC0_t *)tc)->CTRLFSET |= TC0_LUPD_bm;
 675:./src/asf/xmega/drivers/tc/tc.h **** }
 676:./src/asf/xmega/drivers/tc/tc.h **** 
 677:./src/asf/xmega/drivers/tc/tc.h **** /**
 678:./src/asf/xmega/drivers/tc/tc.h ****  * \brief Unlocks the Update of the Buffered registers
 679:./src/asf/xmega/drivers/tc/tc.h ****  *
 680:./src/asf/xmega/drivers/tc/tc.h ****  * \param tc Pointer to TC module.
 681:./src/asf/xmega/drivers/tc/tc.h ****  * \note  Configures LUPD in CTRLFCLR
 682:./src/asf/xmega/drivers/tc/tc.h ****  */
 683:./src/asf/xmega/drivers/tc/tc.h **** static inline void tc_unlock_update_buffers(volatile void *tc)
 684:./src/asf/xmega/drivers/tc/tc.h **** {
 685:./src/asf/xmega/drivers/tc/tc.h **** 	((TC0_t *)tc)->CTRLFCLR |= TC0_LUPD_bm;
 686:./src/asf/xmega/drivers/tc/tc.h **** }
 687:./src/asf/xmega/drivers/tc/tc.h **** 
 688:./src/asf/xmega/drivers/tc/tc.h **** /**
 689:./src/asf/xmega/drivers/tc/tc.h ****  * \brief Enables Compare/Capture channel
 690:./src/asf/xmega/drivers/tc/tc.h ****  *
 691:./src/asf/xmega/drivers/tc/tc.h ****  * \param tc Pointer to TC module.
 692:./src/asf/xmega/drivers/tc/tc.h ****  * \param enablemask CC channel
 693:./src/asf/xmega/drivers/tc/tc.h ****  */
 694:./src/asf/xmega/drivers/tc/tc.h **** static inline void tc_enable_cc_channels(volatile void *tc,
 695:./src/asf/xmega/drivers/tc/tc.h **** 		enum tc_cc_channel_mask_enable_t enablemask)
 696:./src/asf/xmega/drivers/tc/tc.h **** {
 697:./src/asf/xmega/drivers/tc/tc.h **** 	if (tc_is_tc0(void *tc)) {
 698:./src/asf/xmega/drivers/tc/tc.h **** 		((TC0_t *)tc)->CTRLB |= enablemask;
 699:./src/asf/xmega/drivers/tc/tc.h **** 	} else if (tc_is_tc1(void *tc)) {
 700:./src/asf/xmega/drivers/tc/tc.h **** 		((TC1_t *)tc)->CTRLB |=
 701:./src/asf/xmega/drivers/tc/tc.h **** 				enablemask & (TC1_CCAEN_bm | TC1_CCBEN_bm);
 702:./src/asf/xmega/drivers/tc/tc.h **** 	}
 703:./src/asf/xmega/drivers/tc/tc.h **** }
 704:./src/asf/xmega/drivers/tc/tc.h **** 
 705:./src/asf/xmega/drivers/tc/tc.h **** /**
 706:./src/asf/xmega/drivers/tc/tc.h ****  * \brief Disables Compare/Capture channel
 707:./src/asf/xmega/drivers/tc/tc.h ****  *
 708:./src/asf/xmega/drivers/tc/tc.h ****  * \param tc Pointer to TC module.
 709:./src/asf/xmega/drivers/tc/tc.h ****  * \param disablemask CC channel
 710:./src/asf/xmega/drivers/tc/tc.h ****  */
 711:./src/asf/xmega/drivers/tc/tc.h **** static inline void tc_disable_cc_channels(volatile void *tc,
 712:./src/asf/xmega/drivers/tc/tc.h **** 		enum tc_cc_channel_mask_enable_t disablemask)
 713:./src/asf/xmega/drivers/tc/tc.h **** {
 714:./src/asf/xmega/drivers/tc/tc.h **** 	if (tc_is_tc0(void *tc)) {
 715:./src/asf/xmega/drivers/tc/tc.h **** 		((TC0_t *)tc)->CTRLB &= ~disablemask;
 716:./src/asf/xmega/drivers/tc/tc.h **** 	} else if (tc_is_tc1(void *tc)) {
 717:./src/asf/xmega/drivers/tc/tc.h **** 		((TC1_t *)tc)->CTRLB &=
 718:./src/asf/xmega/drivers/tc/tc.h **** 				~(disablemask & TC0_CCAEN_bm & TC0_CCBEN_bm);
GAS LISTING /tmp/ccwf6aFs.s 			page 50


 719:./src/asf/xmega/drivers/tc/tc.h **** 	}
 720:./src/asf/xmega/drivers/tc/tc.h **** }
 721:./src/asf/xmega/drivers/tc/tc.h **** 
 722:./src/asf/xmega/drivers/tc/tc.h **** /**
 723:./src/asf/xmega/drivers/tc/tc.h ****  * \brief Enables Input capture mode
 724:./src/asf/xmega/drivers/tc/tc.h ****  *
 725:./src/asf/xmega/drivers/tc/tc.h ****  * \param tc Pointer to TC module.
 726:./src/asf/xmega/drivers/tc/tc.h ****  * \param eventsource Source for the capture
 727:./src/asf/xmega/drivers/tc/tc.h ****  * \param eventaction Event action capture type
 728:./src/asf/xmega/drivers/tc/tc.h ****  */
 729:./src/asf/xmega/drivers/tc/tc.h **** static inline void tc_set_input_capture(volatile void *tc,
 730:./src/asf/xmega/drivers/tc/tc.h **** 		TC_EVSEL_t eventsource, TC_EVACT_t eventaction)
 731:./src/asf/xmega/drivers/tc/tc.h **** {
 732:./src/asf/xmega/drivers/tc/tc.h **** 	((TC0_t *)tc)->CTRLD &= ~(TC0_EVSEL_gm | TC0_EVACT_gm);
 733:./src/asf/xmega/drivers/tc/tc.h **** 	((TC0_t *)tc)->CTRLD |= ((uint8_t)eventsource | (uint8_t)eventaction);
 734:./src/asf/xmega/drivers/tc/tc.h **** }
 735:./src/asf/xmega/drivers/tc/tc.h **** 
 736:./src/asf/xmega/drivers/tc/tc.h **** /**
 737:./src/asf/xmega/drivers/tc/tc.h ****  * \brief Reads the Capture value
 738:./src/asf/xmega/drivers/tc/tc.h ****  *
 739:./src/asf/xmega/drivers/tc/tc.h ****  * \param tc Pointer to TC module.
 740:./src/asf/xmega/drivers/tc/tc.h ****  * \param channel_index Channel x
 741:./src/asf/xmega/drivers/tc/tc.h ****  * \return  Read value of CCx
 742:./src/asf/xmega/drivers/tc/tc.h ****  */
 743:./src/asf/xmega/drivers/tc/tc.h **** static inline uint16_t tc_read_cc(volatile void *tc,
 744:./src/asf/xmega/drivers/tc/tc.h **** 		enum tc_cc_channel_t channel_index)
 745:./src/asf/xmega/drivers/tc/tc.h **** {
 746:./src/asf/xmega/drivers/tc/tc.h **** 	if (tc_is_tc0(void *tc)) {
 747:./src/asf/xmega/drivers/tc/tc.h **** 		switch (channel_index) {
 748:./src/asf/xmega/drivers/tc/tc.h **** 		case TC_CCA:
 749:./src/asf/xmega/drivers/tc/tc.h **** 			return (((TC0_t *)tc)->CCA);
 750:./src/asf/xmega/drivers/tc/tc.h **** 		case TC_CCB:
 751:./src/asf/xmega/drivers/tc/tc.h **** 			return (((TC0_t *)tc)->CCB);
 752:./src/asf/xmega/drivers/tc/tc.h **** 		case TC_CCC:
 753:./src/asf/xmega/drivers/tc/tc.h **** 			return (((TC0_t *)tc)->CCC);
 754:./src/asf/xmega/drivers/tc/tc.h **** 		case TC_CCD:
 755:./src/asf/xmega/drivers/tc/tc.h **** 			return (((TC0_t *)tc)->CCD);
 756:./src/asf/xmega/drivers/tc/tc.h **** 		}
 757:./src/asf/xmega/drivers/tc/tc.h **** 	} else if (tc_is_tc1(void *tc)) {
 758:./src/asf/xmega/drivers/tc/tc.h **** 			switch (channel_index) {
 759:./src/asf/xmega/drivers/tc/tc.h **** 			case TC_CCA:
 760:./src/asf/xmega/drivers/tc/tc.h **** 				return (((TC1_t *)tc)->CCA);
 761:./src/asf/xmega/drivers/tc/tc.h **** 			case TC_CCB:
 762:./src/asf/xmega/drivers/tc/tc.h **** 				return (((TC1_t *)tc)->CCB);
 763:./src/asf/xmega/drivers/tc/tc.h **** 			default:
 764:./src/asf/xmega/drivers/tc/tc.h **** 				return (0);
 765:./src/asf/xmega/drivers/tc/tc.h **** 			}
 766:./src/asf/xmega/drivers/tc/tc.h **** 		}
 767:./src/asf/xmega/drivers/tc/tc.h **** 	return (0);
 768:./src/asf/xmega/drivers/tc/tc.h **** }
 769:./src/asf/xmega/drivers/tc/tc.h **** 
 770:./src/asf/xmega/drivers/tc/tc.h **** /**
 771:./src/asf/xmega/drivers/tc/tc.h ****  * \brief Writes the CC value
 772:./src/asf/xmega/drivers/tc/tc.h ****  *
 773:./src/asf/xmega/drivers/tc/tc.h ****  * \param tc Pointer to TC module.
 774:./src/asf/xmega/drivers/tc/tc.h ****  * \param channel_index CC Channel
 775:./src/asf/xmega/drivers/tc/tc.h ****  * \param value Counter value
GAS LISTING /tmp/ccwf6aFs.s 			page 51


 776:./src/asf/xmega/drivers/tc/tc.h ****  */
 777:./src/asf/xmega/drivers/tc/tc.h **** static inline void tc_write_cc(volatile void *tc,
 778:./src/asf/xmega/drivers/tc/tc.h **** 		enum tc_cc_channel_t channel_index, uint16_t value)
 779:./src/asf/xmega/drivers/tc/tc.h **** {
 780:./src/asf/xmega/drivers/tc/tc.h **** 	if (tc_is_tc0(void *tc)) {
 781:./src/asf/xmega/drivers/tc/tc.h **** 		switch (channel_index) {
 782:./src/asf/xmega/drivers/tc/tc.h **** 		case TC_CCA:
 783:./src/asf/xmega/drivers/tc/tc.h **** 			((TC0_t *)tc)->CCA = value;
 784:./src/asf/xmega/drivers/tc/tc.h **** 			break;
 785:./src/asf/xmega/drivers/tc/tc.h **** 		case TC_CCB:
 786:./src/asf/xmega/drivers/tc/tc.h **** 			((TC0_t *)tc)->CCB = value;
 787:./src/asf/xmega/drivers/tc/tc.h **** 			break;
 788:./src/asf/xmega/drivers/tc/tc.h **** 		case TC_CCC:
 789:./src/asf/xmega/drivers/tc/tc.h **** 			((TC0_t *)tc)->CCC = value;
 790:./src/asf/xmega/drivers/tc/tc.h **** 			break;
 791:./src/asf/xmega/drivers/tc/tc.h **** 		case TC_CCD:
 792:./src/asf/xmega/drivers/tc/tc.h **** 			((TC0_t *)tc)->CCD = value;
 793:./src/asf/xmega/drivers/tc/tc.h **** 			break;
 794:./src/asf/xmega/drivers/tc/tc.h **** 		}
 795:./src/asf/xmega/drivers/tc/tc.h **** 	} else if (tc_is_tc1(void *tc)) {
 796:./src/asf/xmega/drivers/tc/tc.h **** 			switch (channel_index) {
 797:./src/asf/xmega/drivers/tc/tc.h **** 			case TC_CCA:
 798:./src/asf/xmega/drivers/tc/tc.h **** 				((TC1_t *)tc)->CCA = value;
 799:./src/asf/xmega/drivers/tc/tc.h **** 				break;
 800:./src/asf/xmega/drivers/tc/tc.h **** 			case TC_CCB:
 801:./src/asf/xmega/drivers/tc/tc.h **** 				((TC1_t *)tc)->CCB = value;
 802:./src/asf/xmega/drivers/tc/tc.h **** 				break;
 803:./src/asf/xmega/drivers/tc/tc.h **** 			default:
 804:./src/asf/xmega/drivers/tc/tc.h **** 				return ;
 805:./src/asf/xmega/drivers/tc/tc.h **** 			}
 806:./src/asf/xmega/drivers/tc/tc.h **** 		}
 807:./src/asf/xmega/drivers/tc/tc.h **** }
 808:./src/asf/xmega/drivers/tc/tc.h **** 
 809:./src/asf/xmega/drivers/tc/tc.h **** /**
 810:./src/asf/xmega/drivers/tc/tc.h ****  * \brief Writes the Capture/Compare Buffer value
 811:./src/asf/xmega/drivers/tc/tc.h ****  *
 812:./src/asf/xmega/drivers/tc/tc.h ****  * \param tc Pointer to TC module.
 813:./src/asf/xmega/drivers/tc/tc.h ****  * \param channel_index CC Channel
 814:./src/asf/xmega/drivers/tc/tc.h ****  * \param buffer_value Counter Buffer value
 815:./src/asf/xmega/drivers/tc/tc.h ****  */
 816:./src/asf/xmega/drivers/tc/tc.h **** static inline void tc_write_cc_buffer(volatile void *tc,
 817:./src/asf/xmega/drivers/tc/tc.h **** 		enum tc_cc_channel_t channel_index, uint16_t buffer_value)
 818:./src/asf/xmega/drivers/tc/tc.h **** {
 819:./src/asf/xmega/drivers/tc/tc.h **** 	if (tc_is_tc0(void *tc)) {
 820:./src/asf/xmega/drivers/tc/tc.h **** 		switch (channel_index) {
 821:./src/asf/xmega/drivers/tc/tc.h **** 		case TC_CCA:
 822:./src/asf/xmega/drivers/tc/tc.h **** 			((TC0_t *)tc)->CCABUF = buffer_value;
 823:./src/asf/xmega/drivers/tc/tc.h **** 			break;
 824:./src/asf/xmega/drivers/tc/tc.h **** 		case TC_CCB:
 825:./src/asf/xmega/drivers/tc/tc.h **** 			((TC0_t *)tc)->CCBBUF = buffer_value;
 826:./src/asf/xmega/drivers/tc/tc.h **** 			break;
 827:./src/asf/xmega/drivers/tc/tc.h **** 		case TC_CCC:
 828:./src/asf/xmega/drivers/tc/tc.h **** 			((TC0_t *)tc)->CCCBUF = buffer_value;
 829:./src/asf/xmega/drivers/tc/tc.h **** 			break;
 830:./src/asf/xmega/drivers/tc/tc.h **** 		case TC_CCD:
 831:./src/asf/xmega/drivers/tc/tc.h **** 			((TC0_t *)tc)->CCDBUF = buffer_value;
 832:./src/asf/xmega/drivers/tc/tc.h **** 			break;
GAS LISTING /tmp/ccwf6aFs.s 			page 52


 833:./src/asf/xmega/drivers/tc/tc.h **** 		}
 834:./src/asf/xmega/drivers/tc/tc.h **** 	} else if (tc_is_tc1(void *tc)) {
 835:./src/asf/xmega/drivers/tc/tc.h **** 			switch (channel_index) {
 836:./src/asf/xmega/drivers/tc/tc.h **** 			case TC_CCA:
 837:./src/asf/xmega/drivers/tc/tc.h **** 				((TC1_t *)tc)->CCABUF = buffer_value;
 838:./src/asf/xmega/drivers/tc/tc.h **** 				break;
 839:./src/asf/xmega/drivers/tc/tc.h **** 			case TC_CCB:
 840:./src/asf/xmega/drivers/tc/tc.h **** 				((TC1_t *)tc)->CCBBUF = buffer_value;
 841:./src/asf/xmega/drivers/tc/tc.h **** 				break;
 842:./src/asf/xmega/drivers/tc/tc.h **** 			default:
 843:./src/asf/xmega/drivers/tc/tc.h **** 				return;
 844:./src/asf/xmega/drivers/tc/tc.h **** 			}
 845:./src/asf/xmega/drivers/tc/tc.h **** 		}
 846:./src/asf/xmega/drivers/tc/tc.h **** }
 847:./src/asf/xmega/drivers/tc/tc.h **** 
 848:./src/asf/xmega/drivers/tc/tc.h **** /**
 849:./src/asf/xmega/drivers/tc/tc.h ****  * \brief Reads the Capture/Compare Buffer value
 850:./src/asf/xmega/drivers/tc/tc.h ****  *
 851:./src/asf/xmega/drivers/tc/tc.h ****  * \param tc Pointer to TC module.
 852:./src/asf/xmega/drivers/tc/tc.h ****  * \param channel_index CC Channel
 853:./src/asf/xmega/drivers/tc/tc.h ****  * \return  CCx Buffer value
 854:./src/asf/xmega/drivers/tc/tc.h ****  */
 855:./src/asf/xmega/drivers/tc/tc.h **** static inline uint16_t tc_read_cc_buffer(volatile void *tc,
 856:./src/asf/xmega/drivers/tc/tc.h **** 		enum tc_cc_channel_t channel_index)
 857:./src/asf/xmega/drivers/tc/tc.h **** {
 858:./src/asf/xmega/drivers/tc/tc.h **** 	if (tc_is_tc0(void *tc)) {
 859:./src/asf/xmega/drivers/tc/tc.h **** 		switch (channel_index) {
 860:./src/asf/xmega/drivers/tc/tc.h **** 		case TC_CCA:
 861:./src/asf/xmega/drivers/tc/tc.h **** 			return (((TC0_t *)tc)->CCABUF);
 862:./src/asf/xmega/drivers/tc/tc.h **** 		case TC_CCB:
 863:./src/asf/xmega/drivers/tc/tc.h **** 			return (((TC0_t *)tc)->CCBBUF);
 864:./src/asf/xmega/drivers/tc/tc.h **** 		case TC_CCC:
 865:./src/asf/xmega/drivers/tc/tc.h **** 			return (((TC0_t *)tc)->CCCBUF);
 866:./src/asf/xmega/drivers/tc/tc.h **** 		case TC_CCD:
 867:./src/asf/xmega/drivers/tc/tc.h **** 			return (((TC0_t *)tc)->CCDBUF);
 868:./src/asf/xmega/drivers/tc/tc.h **** 		}
 869:./src/asf/xmega/drivers/tc/tc.h **** 	} else if (tc_is_tc1(void *tc)) {
 870:./src/asf/xmega/drivers/tc/tc.h **** 			switch (channel_index) {
 871:./src/asf/xmega/drivers/tc/tc.h **** 			case TC_CCA:
 872:./src/asf/xmega/drivers/tc/tc.h **** 				return (((TC1_t *)tc)->CCABUF);
 873:./src/asf/xmega/drivers/tc/tc.h **** 			case TC_CCB:
 874:./src/asf/xmega/drivers/tc/tc.h **** 				return (((TC1_t *)tc)->CCBBUF);
 875:./src/asf/xmega/drivers/tc/tc.h **** 			default:
 876:./src/asf/xmega/drivers/tc/tc.h **** 				return (0);
 877:./src/asf/xmega/drivers/tc/tc.h **** 			}
 878:./src/asf/xmega/drivers/tc/tc.h **** 		}
 879:./src/asf/xmega/drivers/tc/tc.h **** 	return (0);
 880:./src/asf/xmega/drivers/tc/tc.h **** }
 881:./src/asf/xmega/drivers/tc/tc.h **** 
 882:./src/asf/xmega/drivers/tc/tc.h **** /**
 883:./src/asf/xmega/drivers/tc/tc.h ****  * \brief Reports is Capture/Compare Buffer is valid
 884:./src/asf/xmega/drivers/tc/tc.h ****  *
 885:./src/asf/xmega/drivers/tc/tc.h ****  * \param tc Pointer to TC module.
 886:./src/asf/xmega/drivers/tc/tc.h ****  * \param channel_index CC Channel
 887:./src/asf/xmega/drivers/tc/tc.h ****  * \return  CCx Buffer is valid or not
 888:./src/asf/xmega/drivers/tc/tc.h ****  */
 889:./src/asf/xmega/drivers/tc/tc.h **** static inline bool tc_cc_buffer_is_valid(volatile void *tc,
GAS LISTING /tmp/ccwf6aFs.s 			page 53


 890:./src/asf/xmega/drivers/tc/tc.h **** 		enum tc_cc_channel_t channel_index)
 891:./src/asf/xmega/drivers/tc/tc.h **** {
 892:./src/asf/xmega/drivers/tc/tc.h **** 	if (tc_is_tc0(void *tc)) {
 893:./src/asf/xmega/drivers/tc/tc.h **** 		switch (channel_index) {
 894:./src/asf/xmega/drivers/tc/tc.h **** 		case TC_CCA:
 895:./src/asf/xmega/drivers/tc/tc.h **** 			return ((TC0_t *)tc)->CTRLGCLR & TC0_CCABV_bm;
 896:./src/asf/xmega/drivers/tc/tc.h **** 		case TC_CCB:
 897:./src/asf/xmega/drivers/tc/tc.h **** 			return ((TC0_t *)tc)->CTRLGCLR & TC0_CCBBV_bm;
 898:./src/asf/xmega/drivers/tc/tc.h **** 		case TC_CCC:
 899:./src/asf/xmega/drivers/tc/tc.h **** 			return ((TC0_t *)tc)->CTRLGCLR & TC0_CCCBV_bm;
 900:./src/asf/xmega/drivers/tc/tc.h **** 		case TC_CCD:
 901:./src/asf/xmega/drivers/tc/tc.h **** 			return ((TC0_t *)tc)->CTRLGCLR & TC0_CCDBV_bm;
 902:./src/asf/xmega/drivers/tc/tc.h **** 		}
 903:./src/asf/xmega/drivers/tc/tc.h **** 	} else if (tc_is_tc1(void *tc)) {
 904:./src/asf/xmega/drivers/tc/tc.h **** 			switch (channel_index) {
 905:./src/asf/xmega/drivers/tc/tc.h **** 			case TC_CCA:
 906:./src/asf/xmega/drivers/tc/tc.h **** 				return (((TC1_t *)tc)->CTRLGCLR &
 907:./src/asf/xmega/drivers/tc/tc.h **** 						TC1_CCABV_bm);
 908:./src/asf/xmega/drivers/tc/tc.h **** 			case TC_CCB:
 909:./src/asf/xmega/drivers/tc/tc.h **** 				return (((TC1_t *)tc)->CTRLGCLR &
 910:./src/asf/xmega/drivers/tc/tc.h **** 						TC1_CCBBV_bm);
 911:./src/asf/xmega/drivers/tc/tc.h **** 			default:
 912:./src/asf/xmega/drivers/tc/tc.h **** 				return (0);
 913:./src/asf/xmega/drivers/tc/tc.h **** 			}
 914:./src/asf/xmega/drivers/tc/tc.h **** 		}
 915:./src/asf/xmega/drivers/tc/tc.h **** 	return (0);
 916:./src/asf/xmega/drivers/tc/tc.h **** }
 917:./src/asf/xmega/drivers/tc/tc.h **** 
 918:./src/asf/xmega/drivers/tc/tc.h **** /**
 919:./src/asf/xmega/drivers/tc/tc.h ****  * \brief Reports if Capture/Compare interrupt has occurred
 920:./src/asf/xmega/drivers/tc/tc.h ****  *
 921:./src/asf/xmega/drivers/tc/tc.h ****  * \param tc Pointer to TC module.
 922:./src/asf/xmega/drivers/tc/tc.h ****  * \param channel_index CC Channel
 923:./src/asf/xmega/drivers/tc/tc.h ****  * \return  CCx Interrupt or not
 924:./src/asf/xmega/drivers/tc/tc.h ****  */
 925:./src/asf/xmega/drivers/tc/tc.h **** static inline bool tc_is_cc_interrupt(volatile void *tc,
 926:./src/asf/xmega/drivers/tc/tc.h **** 		enum tc_cc_channel_t channel_index)
 927:./src/asf/xmega/drivers/tc/tc.h **** {
 928:./src/asf/xmega/drivers/tc/tc.h **** 	if (tc_is_tc0(void *tc)) {
 929:./src/asf/xmega/drivers/tc/tc.h **** 		switch (channel_index) {
 930:./src/asf/xmega/drivers/tc/tc.h **** 		case TC_CCA:
 931:./src/asf/xmega/drivers/tc/tc.h **** 			return (((TC0_t *)tc)->INTFLAGS & TC0_CCAIF_bm);
 932:./src/asf/xmega/drivers/tc/tc.h **** 		case TC_CCB:
 933:./src/asf/xmega/drivers/tc/tc.h **** 			return (((TC0_t *)tc)->INTFLAGS & TC0_CCBIF_bm);
 934:./src/asf/xmega/drivers/tc/tc.h **** 		case TC_CCC:
 935:./src/asf/xmega/drivers/tc/tc.h **** 			return (((TC0_t *)tc)->INTFLAGS & TC0_CCCIF_bm);
 936:./src/asf/xmega/drivers/tc/tc.h **** 		case TC_CCD:
 937:./src/asf/xmega/drivers/tc/tc.h **** 			return (((TC0_t *)tc)->INTFLAGS & TC0_CCDIF_bm);
 938:./src/asf/xmega/drivers/tc/tc.h **** 		}
 939:./src/asf/xmega/drivers/tc/tc.h **** 	} else if (tc_is_tc1(void *tc)) {
 940:./src/asf/xmega/drivers/tc/tc.h **** 			switch (channel_index) {
 941:./src/asf/xmega/drivers/tc/tc.h **** 			case TC_CCA:
 942:./src/asf/xmega/drivers/tc/tc.h **** 				return (((TC1_t *)tc)->INTFLAGS &
 943:./src/asf/xmega/drivers/tc/tc.h **** 						TC1_CCAIF_bm);
 944:./src/asf/xmega/drivers/tc/tc.h **** 			case TC_CCB:
 945:./src/asf/xmega/drivers/tc/tc.h **** 				return (((TC1_t *)tc)->INTFLAGS &
 946:./src/asf/xmega/drivers/tc/tc.h **** 						TC1_CCBIF_bm);
GAS LISTING /tmp/ccwf6aFs.s 			page 54


 947:./src/asf/xmega/drivers/tc/tc.h **** 			default:
 948:./src/asf/xmega/drivers/tc/tc.h **** 				return (0);
 949:./src/asf/xmega/drivers/tc/tc.h **** 			}
 950:./src/asf/xmega/drivers/tc/tc.h **** 		}
 951:./src/asf/xmega/drivers/tc/tc.h **** 	return (0);
 952:./src/asf/xmega/drivers/tc/tc.h **** }
 953:./src/asf/xmega/drivers/tc/tc.h **** 
 954:./src/asf/xmega/drivers/tc/tc.h **** /**
 955:./src/asf/xmega/drivers/tc/tc.h ****  * \brief Clears Capture/Compare interrupt
 956:./src/asf/xmega/drivers/tc/tc.h ****  *
 957:./src/asf/xmega/drivers/tc/tc.h ****  * \param tc Pointer to TC module.
 958:./src/asf/xmega/drivers/tc/tc.h ****  * \param channel_index CC Channel
 959:./src/asf/xmega/drivers/tc/tc.h ****  */
 960:./src/asf/xmega/drivers/tc/tc.h **** static inline void tc_clear_cc_interrupt(volatile void *tc,
 961:./src/asf/xmega/drivers/tc/tc.h **** 		enum tc_cc_channel_t channel_index)
 962:./src/asf/xmega/drivers/tc/tc.h **** {
 963:./src/asf/xmega/drivers/tc/tc.h **** 	if (tc_is_tc0(void *tc)) {
 964:./src/asf/xmega/drivers/tc/tc.h **** 		switch (channel_index) {
 965:./src/asf/xmega/drivers/tc/tc.h **** 		case TC_CCA:
 966:./src/asf/xmega/drivers/tc/tc.h **** 			((TC0_t *)tc)->INTFLAGS = TC0_CCAIF_bm;
 967:./src/asf/xmega/drivers/tc/tc.h **** 			break;
 968:./src/asf/xmega/drivers/tc/tc.h **** 		case TC_CCB:
 969:./src/asf/xmega/drivers/tc/tc.h **** 			((TC0_t *)tc)->INTFLAGS = TC0_CCBIF_bm;
 970:./src/asf/xmega/drivers/tc/tc.h **** 			break;
 971:./src/asf/xmega/drivers/tc/tc.h **** 		case TC_CCC:
 972:./src/asf/xmega/drivers/tc/tc.h **** 			((TC0_t *)tc)->INTFLAGS = TC0_CCCIF_bm;
 973:./src/asf/xmega/drivers/tc/tc.h **** 			break;
 974:./src/asf/xmega/drivers/tc/tc.h **** 		case TC_CCD:
 975:./src/asf/xmega/drivers/tc/tc.h **** 			((TC0_t *)tc)->INTFLAGS = TC0_CCDIF_bm;
 976:./src/asf/xmega/drivers/tc/tc.h **** 			break;
 977:./src/asf/xmega/drivers/tc/tc.h **** 		}
 978:./src/asf/xmega/drivers/tc/tc.h **** 	} else if (tc_is_tc1(void *tc)) {
 979:./src/asf/xmega/drivers/tc/tc.h **** 			switch (channel_index) {
 980:./src/asf/xmega/drivers/tc/tc.h **** 			case TC_CCA:
 981:./src/asf/xmega/drivers/tc/tc.h **** 				((TC1_t *)tc)->INTFLAGS = TC1_CCAIF_bm;
 982:./src/asf/xmega/drivers/tc/tc.h **** 				break;
 983:./src/asf/xmega/drivers/tc/tc.h **** 			case TC_CCB:
 984:./src/asf/xmega/drivers/tc/tc.h **** 				((TC1_t *)tc)->INTFLAGS = TC1_CCBIF_bm;
 985:./src/asf/xmega/drivers/tc/tc.h **** 				break;
 986:./src/asf/xmega/drivers/tc/tc.h **** 			default:
 987:./src/asf/xmega/drivers/tc/tc.h **** 				return;
 988:./src/asf/xmega/drivers/tc/tc.h **** 			}
 989:./src/asf/xmega/drivers/tc/tc.h **** 		}
 990:./src/asf/xmega/drivers/tc/tc.h **** }
 991:./src/asf/xmega/drivers/tc/tc.h **** 
 992:./src/asf/xmega/drivers/tc/tc.h **** /**
 993:./src/asf/xmega/drivers/tc/tc.h ****  * \brief Configures TC in the specified Waveform generator mode
 994:./src/asf/xmega/drivers/tc/tc.h ****  *
 995:./src/asf/xmega/drivers/tc/tc.h ****  * \param tc Pointer to TC module.
 996:./src/asf/xmega/drivers/tc/tc.h ****  * \param wgm : waveform generator
 997:./src/asf/xmega/drivers/tc/tc.h ****  */
 998:./src/asf/xmega/drivers/tc/tc.h **** static inline void tc_set_wgm(volatile void *tc, enum tc_wg_mode_t wgm)
 999:./src/asf/xmega/drivers/tc/tc.h **** {
1000:./src/asf/xmega/drivers/tc/tc.h **** 	((TC0_t *)tc)->CTRLB = (((TC0_t *)tc)->CTRLB & ~TC0_WGMODE_gm) | wgm;
 787               		.loc 9 1000 0
 788 036c E0E0      		ldi r30,lo8(2048)
 789 036e F8E0      		ldi r31,hi8(2048)
GAS LISTING /tmp/ccwf6aFs.s 			page 55


 790 0370 8181      		ldd r24,Z+1
 791 0372 887F      		andi r24,lo8(-8)
 792 0374 8183      		std Z+1,r24
 793               	.LVL23:
 794               	.LBE187:
 795               	.LBE186:
 796               	.LBB188:
 797               	.LBB189:
 504:./src/asf/xmega/drivers/tc/tc.h **** 	((TC0_t *)tc)->PER = per_value;
 798               		.loc 9 504 0
 799 0376 83E2      		ldi r24,lo8(2083)
 800 0378 98E0      		ldi r25,hi8(2083)
 801 037a 86A3      		std Z+38,r24
 802 037c 97A3      		std Z+39,r25
 803               	.LVL24:
 804               	.LBE189:
 805               	.LBE188:
 806               	.LBB190:
 807               	.LBB191:
 355:./src/asf/xmega/drivers/tc/tc.h **** 			(((TC0_t *)tc)->CTRLA & ~TC0_CLKSEL_gm) |
 808               		.loc 9 355 0
 809 037e 8081      		ld r24,Z
 354:./src/asf/xmega/drivers/tc/tc.h **** 	((TC0_t *)tc)->CTRLA =
 810               		.loc 9 354 0
 811 0380 807F      		andi r24,lo8(-16)
 812 0382 8560      		ori r24,lo8(5)
 813 0384 8083      		st Z,r24
 814               	.LVL25:
 815               	.LBE191:
 816               	.LBE190:
 817               	.LBB192:
 818               	.LBB193:
 262:./src/asf/xmega/drivers/tc/tc.h **** 	((TC0_t *)tc)->INTCTRLA = ((TC0_t *)tc)->INTCTRLA & ~TC0_OVFINTLVL_gm;
 819               		.loc 9 262 0
 820 0386 8681      		ldd r24,Z+6
 821 0388 8C7F      		andi r24,lo8(-4)
 822 038a 8683      		std Z+6,r24
 264:./src/asf/xmega/drivers/tc/tc.h **** 			((TC0_t *)tc)->INTCTRLA | (level << TC0_OVFINTLVL_gp);
 823               		.loc 9 264 0
 824 038c 8681      		ldd r24,Z+6
 263:./src/asf/xmega/drivers/tc/tc.h **** 	((TC0_t *)tc)->INTCTRLA =
 825               		.loc 9 263 0
 826 038e 8360      		ori r24,lo8(3)
 827 0390 8683      		std Z+6,r24
 828               	.LBE193:
 829               	.LBE192:
 160:src/main.c    **** 	tc_set_wgm(&TCC0, TC_WG_NORMAL);
 161:src/main.c    **** 	tc_write_period(&TCC0, 2083);	// about 60 fps
 162:src/main.c    **** 	tc_write_clock_source(&TCC0, TC_CLKSEL_DIV64_gc);	// 125 khz
 163:src/main.c    **** 	tc_set_overflow_interrupt_level(&TCC0, TC_INT_LVL_HI);
 164:src/main.c    **** 	
 165:src/main.c    **** 	
 166:src/main.c    **** 	// Low-frequency timer
 167:src/main.c    **** 	tc_enable(&TCC1);
 830               		.loc 1 167 0
 831 0392 80E4      		ldi r24,lo8(2112)
 832 0394 98E0      		ldi r25,hi8(2112)
GAS LISTING /tmp/ccwf6aFs.s 			page 56


 833 0396 0E94 0000 		call tc_enable
 168:src/main.c    **** 	tc_set_overflow_interrupt_callback(&TCC1, tick_isr);
 834               		.loc 1 168 0
 835 039a 80E4      		ldi r24,lo8(2112)
 836 039c 98E0      		ldi r25,hi8(2112)
 837 039e 60E0      		ldi r22,lo8(gs(tick_isr))
 838 03a0 70E0      		ldi r23,hi8(gs(tick_isr))
 839 03a2 0E94 0000 		call tc_set_overflow_interrupt_callback
 840               	.LVL26:
 841               	.LBB194:
 842               	.LBB195:
 843               		.loc 9 1000 0
 844 03a6 E0E4      		ldi r30,lo8(2112)
 845 03a8 F8E0      		ldi r31,hi8(2112)
 846 03aa 8181      		ldd r24,Z+1
 847 03ac 887F      		andi r24,lo8(-8)
 848 03ae 8183      		std Z+1,r24
 849               	.LVL27:
 850               	.LBE195:
 851               	.LBE194:
 852               	.LBB196:
 853               	.LBB197:
 504:./src/asf/xmega/drivers/tc/tc.h **** 	((TC0_t *)tc)->PER = per_value;
 854               		.loc 9 504 0
 855 03b0 8FEF      		ldi r24,lo8(-1)
 856 03b2 9FEF      		ldi r25,hi8(-1)
 857 03b4 86A3      		std Z+38,r24
 858 03b6 97A3      		std Z+39,r25
 859               	.LVL28:
 860               	.LBE197:
 861               	.LBE196:
 862               	.LBB198:
 863               	.LBB199:
 355:./src/asf/xmega/drivers/tc/tc.h **** 			(((TC0_t *)tc)->CTRLA & ~TC0_CLKSEL_gm) |
 864               		.loc 9 355 0
 865 03b8 8081      		ld r24,Z
 354:./src/asf/xmega/drivers/tc/tc.h **** 	((TC0_t *)tc)->CTRLA =
 866               		.loc 9 354 0
 867 03ba 807F      		andi r24,lo8(-16)
 868 03bc 8660      		ori r24,lo8(6)
 869 03be 8083      		st Z,r24
 870               	.LVL29:
 871               	.LBE199:
 872               	.LBE198:
 873               	.LBB200:
 874               	.LBB201:
 262:./src/asf/xmega/drivers/tc/tc.h **** 	((TC0_t *)tc)->INTCTRLA = ((TC0_t *)tc)->INTCTRLA & ~TC0_OVFINTLVL_gm;
 875               		.loc 9 262 0
 876 03c0 8681      		ldd r24,Z+6
 877 03c2 8C7F      		andi r24,lo8(-4)
 878 03c4 8683      		std Z+6,r24
 264:./src/asf/xmega/drivers/tc/tc.h **** 			((TC0_t *)tc)->INTCTRLA | (level << TC0_OVFINTLVL_gp);
 879               		.loc 9 264 0
 880 03c6 8681      		ldd r24,Z+6
 263:./src/asf/xmega/drivers/tc/tc.h **** 	((TC0_t *)tc)->INTCTRLA =
 881               		.loc 9 263 0
 882 03c8 8160      		ori r24,lo8(1)
GAS LISTING /tmp/ccwf6aFs.s 			page 57


 883 03ca 8683      		std Z+6,r24
 884               	.LBE201:
 885               	.LBE200:
 169:src/main.c    **** 	tc_set_wgm(&TCC1, TC_WG_NORMAL);
 170:src/main.c    **** 	tc_write_period(&TCC1, 0xFFFF);
 171:src/main.c    **** 	tc_write_clock_source(&TCC1, TC_CLKSEL_DIV256_gc);
 172:src/main.c    **** 	tc_set_overflow_interrupt_level(&TCC1, TC_INT_LVL_LO);
 173:src/main.c    **** 
 174:src/main.c    **** 	
 175:src/main.c    **** 	// run the "Identify" command at startup
 176:src/main.c    **** 	g_usbCommand = IDENTIFY;
 886               		.loc 1 176 0
 887 03cc 84E1      		ldi r24,lo8(20)
 888 03ce 8093 0000 		sts g_usbCommand,r24
 177:src/main.c    **** 	process_command();
 889               		.loc 1 177 0
 890 03d2 0E94 0000 		call process_command
 891               	.LBB202:
 892               	.LBB203:
 893               	.LBB204:
 894               		.loc 3 278 0
 895 03d6 0F2E      		mov __tmp_reg__,r31
 896 03d8 F0E4      		ldi r31,lo8(1600)
 897 03da EF2E      		mov r14,r31
 898 03dc F6E0      		ldi r31,hi8(1600)
 899 03de FF2E      		mov r15,r31
 900 03e0 F02D      		mov r31,__tmp_reg__
 901               	.LBE204:
 902               	.LBE203:
 903               	.LBE202:
 178:src/main.c    **** 	
 179:src/main.c    **** 	while (1) {
 180:src/main.c    **** 		if (!ioport_get_pin_level(SW5)) {	// Test mode
 181:src/main.c    **** 			for (uint16_t i = 0; i < 3 * num_leds; i++) {
 182:src/main.c    **** 				data_buffer[i] = 100;
 183:src/main.c    **** 			}
 184:src/main.c    **** 			dirty = 1;
 904               		.loc 1 184 0
 905 03e2 01E0      		ldi r16,lo8(1)
 906               	.LBB207:
 181:src/main.c    **** 			for (uint16_t i = 0; i < 3 * num_leds; i++) {
 907               		.loc 1 181 0
 908 03e4 0F2E      		mov __tmp_reg__,r31
 909 03e6 F0E0      		ldi r31,lo8(data_buffer)
 910 03e8 CF2E      		mov r12,r31
 911 03ea F0E0      		ldi r31,hi8(data_buffer)
 912 03ec DF2E      		mov r13,r31
 913 03ee F02D      		mov r31,__tmp_reg__
 182:src/main.c    **** 				data_buffer[i] = 100;
 914               		.loc 1 182 0
 915 03f0 14E6      		ldi r17,lo8(100)
 916               	.LVL30:
 917               	.L37:
 918               	.LBE207:
 919               	.LBB208:
 920               	.LBB206:
 921               	.LBB205:
GAS LISTING /tmp/ccwf6aFs.s 			page 58


 922               		.loc 3 278 0
 923 03f2 F701      		movw r30,r14
 924 03f4 8085      		ldd r24,Z+8
 925               	.LVL31:
 926               	.LBE205:
 927               	.LBE206:
 928               	.LBE208:
 180:src/main.c    **** 		if (!ioport_get_pin_level(SW5)) {	// Test mode
 929               		.loc 1 180 0
 930 03f6 81FD      		sbrc r24,1
 931 03f8 00C0      		rjmp .L30
 932               	.LVL32:
 933               	.LBB209:
 181:src/main.c    **** 			for (uint16_t i = 0; i < 3 * num_leds; i++) {
 934               		.loc 1 181 0 discriminator 1
 935 03fa 2091 0000 		lds r18,num_leds
 936 03fe 3091 0000 		lds r19,num_leds+1
 937 0402 C901      		movw r24,r18
 938 0404 880F      		lsl r24
 939 0406 991F      		rol r25
 940 0408 820F      		add r24,r18
 941 040a 931F      		adc r25,r19
 942 040c 0097      		sbiw r24,0
 943 040e 01F0      		breq .L31
 181:src/main.c    **** 			for (uint16_t i = 0; i < 3 * num_leds; i++) {
 944               		.loc 1 181 0 is_stmt 0
 945 0410 F601      		movw r30,r12
 946 0412 20E0      		ldi r18,lo8(0)
 947 0414 30E0      		ldi r19,hi8(0)
 948               	.LVL33:
 949               	.L32:
 182:src/main.c    **** 				data_buffer[i] = 100;
 950               		.loc 1 182 0 is_stmt 1 discriminator 2
 951 0416 1193      		st Z+,r17
 181:src/main.c    **** 			for (uint16_t i = 0; i < 3 * num_leds; i++) {
 952               		.loc 1 181 0 discriminator 2
 953 0418 2F5F      		subi r18,lo8(-(1))
 954 041a 3F4F      		sbci r19,hi8(-(1))
 955               	.LVL34:
 956 041c 2817      		cp r18,r24
 957 041e 3907      		cpc r19,r25
 958 0420 00F0      		brlo .L32
 959               	.LVL35:
 960               	.L31:
 961               	.LBE209:
 962               		.loc 1 184 0
 963 0422 0093 0000 		sts dirty,r16
 964 0426 00C0      		rjmp .L37
 965               	.L30:
 185:src/main.c    **** 		} else {
 186:src/main.c    **** 			
 187:src/main.c    **** 			if (udi_cdc_is_tx_ready()) {
 966               		.loc 1 187 0
 967 0428 0E94 0000 		call udi_cdc_is_tx_ready
 968 042c 8823      		tst r24
 969 042e 01F0      		breq .L37
 188:src/main.c    **** 				process_usb(false);
GAS LISTING /tmp/ccwf6aFs.s 			page 59


 970               		.loc 1 188 0
 971 0430 80E0      		ldi r24,lo8(0)
 972 0432 0E94 0000 		call process_usb
 973 0436 00C0      		rjmp .L37
 974               		.cfi_endproc
 975               	.LFE266:
 976               		.size	main, .-main
 977               	.global	dummy_device
 978               		.data
 979               		.type	dummy_device, @object
 980               		.size	dummy_device, 1
 981               	dummy_device:
 982 0000 01        		.byte	1
 983               	.global	start_bootloader
 984               		.type	start_bootloader, @object
 985               		.size	start_bootloader, 2
 986               	start_bootloader:
 987 0001 FE40      		.word	16638
 988               		.comm COMMAND_TYPE,1,1
 989               		.comm USB_STATE,1,1
 990               		.text
 991               	.Letext0:
 992               		.file 10 "/usr/local/avr8-gnu-toolchain-linux_x86_64/bin/../lib/gcc/avr/4.6.2/../../../../avr/incl
 993               		.file 11 "/usr/local/include/avr/iox32a4u.h"
 994               		.file 12 "./src/asf/common/services/clock/xmega/sysclk.h"
 995               		.file 13 "./src/asf/common/services/ioport/xmega/ioport_compat.h"
 996               		.file 14 "./src/asf/xmega/utils/status_codes.h"
 997               		.file 15 "./src/asf/common/services/spi/xmega_spi/spi_master.h"
 998               		.file 16 "src/usb.h"
 999               		.file 17 "src/commands.h"
 1000               		.file 18 "./src/asf/common/services/ioport/ioport.h"
 1001               		.file 19 "./src/asf/common/services/sleepmgr/xmega/sleepmgr.h"
 1002               		.file 20 "src/globals.h"
 1003               		.section	.debug_info,"",@progbits
 1004               	.Ldebug_info0:
 1005 0000 C31B 0000 		.long	0x1bc3
 1006 0004 0200      		.word	0x2
 1007 0006 0000 0000 		.long	.Ldebug_abbrev0
 1008 000a 04        		.byte	0x4
 1009 000b 01        		.uleb128 0x1
 1010 000c 0000 0000 		.long	.LASF309
 1011 0010 01        		.byte	0x1
 1012 0011 0000 0000 		.long	.LASF310
 1013 0015 0000 0000 		.long	.LASF311
 1014 0019 0000 0000 		.long	.Ltext0
 1015 001d 0000 0000 		.long	.Letext0
 1016 0021 0000 0000 		.long	.Ldebug_line0
 1017 0025 02        		.uleb128 0x2
 1018 0026 01        		.byte	0x1
 1019 0027 06        		.byte	0x6
 1020 0028 0000 0000 		.long	.LASF0
 1021 002c 03        		.uleb128 0x3
 1022 002d 0000 0000 		.long	.LASF2
 1023 0031 0A        		.byte	0xa
 1024 0032 7A        		.byte	0x7a
 1025 0033 3700 0000 		.long	0x37
 1026 0037 02        		.uleb128 0x2
GAS LISTING /tmp/ccwf6aFs.s 			page 60


 1027 0038 01        		.byte	0x1
 1028 0039 08        		.byte	0x8
 1029 003a 0000 0000 		.long	.LASF1
 1030 003e 04        		.uleb128 0x4
 1031 003f 02        		.byte	0x2
 1032 0040 05        		.byte	0x5
 1033 0041 696E 7400 		.string	"int"
 1034 0045 03        		.uleb128 0x3
 1035 0046 0000 0000 		.long	.LASF3
 1036 004a 0A        		.byte	0xa
 1037 004b 7C        		.byte	0x7c
 1038 004c 5000 0000 		.long	0x50
 1039 0050 02        		.uleb128 0x2
 1040 0051 02        		.byte	0x2
 1041 0052 07        		.byte	0x7
 1042 0053 0000 0000 		.long	.LASF4
 1043 0057 02        		.uleb128 0x2
 1044 0058 04        		.byte	0x4
 1045 0059 05        		.byte	0x5
 1046 005a 0000 0000 		.long	.LASF5
 1047 005e 03        		.uleb128 0x3
 1048 005f 0000 0000 		.long	.LASF6
 1049 0063 0A        		.byte	0xa
 1050 0064 7E        		.byte	0x7e
 1051 0065 6900 0000 		.long	0x69
 1052 0069 02        		.uleb128 0x2
 1053 006a 04        		.byte	0x4
 1054 006b 07        		.byte	0x7
 1055 006c 0000 0000 		.long	.LASF7
 1056 0070 02        		.uleb128 0x2
 1057 0071 08        		.byte	0x8
 1058 0072 05        		.byte	0x5
 1059 0073 0000 0000 		.long	.LASF8
 1060 0077 03        		.uleb128 0x3
 1061 0078 0000 0000 		.long	.LASF9
 1062 007c 0A        		.byte	0xa
 1063 007d 81        		.byte	0x81
 1064 007e 8200 0000 		.long	0x82
 1065 0082 02        		.uleb128 0x2
 1066 0083 08        		.byte	0x8
 1067 0084 07        		.byte	0x7
 1068 0085 0000 0000 		.long	.LASF10
 1069 0089 03        		.uleb128 0x3
 1070 008a 0000 0000 		.long	.LASF11
 1071 008e 0A        		.byte	0xa
 1072 008f 93        		.byte	0x93
 1073 0090 4500 0000 		.long	0x45
 1074 0094 05        		.uleb128 0x5
 1075 0095 02        		.byte	0x2
 1076 0096 9A00 0000 		.long	0x9a
 1077 009a 02        		.uleb128 0x2
 1078 009b 01        		.byte	0x1
 1079 009c 08        		.byte	0x8
 1080 009d 0000 0000 		.long	.LASF12
 1081 00a1 06        		.uleb128 0x6
 1082 00a2 2C00 0000 		.long	0x2c
 1083 00a6 06        		.uleb128 0x6
GAS LISTING /tmp/ccwf6aFs.s 			page 61


 1084 00a7 3700 0000 		.long	0x37
 1085 00ab 07        		.uleb128 0x7
 1086 00ac 0000 0000 		.long	.LASF46
 1087 00b0 01        		.byte	0x1
 1088 00b1 0B        		.byte	0xb
 1089 00b2 2401      		.word	0x124
 1090 00b4 D700 0000 		.long	0xd7
 1091 00b8 08        		.uleb128 0x8
 1092 00b9 0000 0000 		.long	.LASF13
 1093 00bd 00        		.sleb128 0
 1094 00be 08        		.uleb128 0x8
 1095 00bf 0000 0000 		.long	.LASF14
 1096 00c3 04        		.sleb128 4
 1097 00c4 08        		.uleb128 0x8
 1098 00c5 0000 0000 		.long	.LASF15
 1099 00c9 06        		.sleb128 6
 1100 00ca 08        		.uleb128 0x8
 1101 00cb 0000 0000 		.long	.LASF16
 1102 00cf 0C        		.sleb128 12
 1103 00d0 08        		.uleb128 0x8
 1104 00d1 0000 0000 		.long	.LASF17
 1105 00d5 0E        		.sleb128 14
 1106 00d6 00        		.byte	0
 1107 00d7 09        		.uleb128 0x9
 1108 00d8 0000 0000 		.long	.LASF22
 1109 00dc 03        		.byte	0x3
 1110 00dd 0B        		.byte	0xb
 1111 00de DB01      		.word	0x1db
 1112 00e0 1201 0000 		.long	0x112
 1113 00e4 0A        		.uleb128 0xa
 1114 00e5 0000 0000 		.long	.LASF18
 1115 00e9 0B        		.byte	0xb
 1116 00ea DD01      		.word	0x1dd
 1117 00ec A600 0000 		.long	0xa6
 1118 00f0 02        		.byte	0x2
 1119 00f1 23        		.byte	0x23
 1120 00f2 00        		.uleb128 0
 1121 00f3 0A        		.uleb128 0xa
 1122 00f4 0000 0000 		.long	.LASF19
 1123 00f8 0B        		.byte	0xb
 1124 00f9 DE01      		.word	0x1de
 1125 00fb A600 0000 		.long	0xa6
 1126 00ff 02        		.byte	0x2
 1127 0100 23        		.byte	0x23
 1128 0101 01        		.uleb128 0x1
 1129 0102 0A        		.uleb128 0xa
 1130 0103 0000 0000 		.long	.LASF20
 1131 0107 0B        		.byte	0xb
 1132 0108 DF01      		.word	0x1df
 1133 010a A600 0000 		.long	0xa6
 1134 010e 02        		.byte	0x2
 1135 010f 23        		.byte	0x23
 1136 0110 02        		.uleb128 0x2
 1137 0111 00        		.byte	0
 1138 0112 0B        		.uleb128 0xb
 1139 0113 0000 0000 		.long	.LASF21
 1140 0117 0B        		.byte	0xb
GAS LISTING /tmp/ccwf6aFs.s 			page 62


 1141 0118 E001      		.word	0x1e0
 1142 011a D700 0000 		.long	0xd7
 1143 011e 06        		.uleb128 0x6
 1144 011f 5000 0000 		.long	0x50
 1145 0123 09        		.uleb128 0x9
 1146 0124 0000 0000 		.long	.LASF23
 1147 0128 18        		.byte	0x18
 1148 0129 0B        		.byte	0xb
 1149 012a 7F07      		.word	0x77f
 1150 012c 9802 0000 		.long	0x298
 1151 0130 0C        		.uleb128 0xc
 1152 0131 4449 5200 		.string	"DIR"
 1153 0135 0B        		.byte	0xb
 1154 0136 8107      		.word	0x781
 1155 0138 A600 0000 		.long	0xa6
 1156 013c 02        		.byte	0x2
 1157 013d 23        		.byte	0x23
 1158 013e 00        		.uleb128 0
 1159 013f 0A        		.uleb128 0xa
 1160 0140 0000 0000 		.long	.LASF24
 1161 0144 0B        		.byte	0xb
 1162 0145 8207      		.word	0x782
 1163 0147 A600 0000 		.long	0xa6
 1164 014b 02        		.byte	0x2
 1165 014c 23        		.byte	0x23
 1166 014d 01        		.uleb128 0x1
 1167 014e 0A        		.uleb128 0xa
 1168 014f 0000 0000 		.long	.LASF25
 1169 0153 0B        		.byte	0xb
 1170 0154 8307      		.word	0x783
 1171 0156 A600 0000 		.long	0xa6
 1172 015a 02        		.byte	0x2
 1173 015b 23        		.byte	0x23
 1174 015c 02        		.uleb128 0x2
 1175 015d 0A        		.uleb128 0xa
 1176 015e 0000 0000 		.long	.LASF26
 1177 0162 0B        		.byte	0xb
 1178 0163 8407      		.word	0x784
 1179 0165 A600 0000 		.long	0xa6
 1180 0169 02        		.byte	0x2
 1181 016a 23        		.byte	0x23
 1182 016b 03        		.uleb128 0x3
 1183 016c 0C        		.uleb128 0xc
 1184 016d 4F55 5400 		.string	"OUT"
 1185 0171 0B        		.byte	0xb
 1186 0172 8507      		.word	0x785
 1187 0174 A600 0000 		.long	0xa6
 1188 0178 02        		.byte	0x2
 1189 0179 23        		.byte	0x23
 1190 017a 04        		.uleb128 0x4
 1191 017b 0A        		.uleb128 0xa
 1192 017c 0000 0000 		.long	.LASF27
 1193 0180 0B        		.byte	0xb
 1194 0181 8607      		.word	0x786
 1195 0183 A600 0000 		.long	0xa6
 1196 0187 02        		.byte	0x2
 1197 0188 23        		.byte	0x23
GAS LISTING /tmp/ccwf6aFs.s 			page 63


 1198 0189 05        		.uleb128 0x5
 1199 018a 0A        		.uleb128 0xa
 1200 018b 0000 0000 		.long	.LASF28
 1201 018f 0B        		.byte	0xb
 1202 0190 8707      		.word	0x787
 1203 0192 A600 0000 		.long	0xa6
 1204 0196 02        		.byte	0x2
 1205 0197 23        		.byte	0x23
 1206 0198 06        		.uleb128 0x6
 1207 0199 0A        		.uleb128 0xa
 1208 019a 0000 0000 		.long	.LASF29
 1209 019e 0B        		.byte	0xb
 1210 019f 8807      		.word	0x788
 1211 01a1 A600 0000 		.long	0xa6
 1212 01a5 02        		.byte	0x2
 1213 01a6 23        		.byte	0x23
 1214 01a7 07        		.uleb128 0x7
 1215 01a8 0C        		.uleb128 0xc
 1216 01a9 494E 00   		.string	"IN"
 1217 01ac 0B        		.byte	0xb
 1218 01ad 8907      		.word	0x789
 1219 01af A600 0000 		.long	0xa6
 1220 01b3 02        		.byte	0x2
 1221 01b4 23        		.byte	0x23
 1222 01b5 08        		.uleb128 0x8
 1223 01b6 0A        		.uleb128 0xa
 1224 01b7 0000 0000 		.long	.LASF30
 1225 01bb 0B        		.byte	0xb
 1226 01bc 8A07      		.word	0x78a
 1227 01be A600 0000 		.long	0xa6
 1228 01c2 02        		.byte	0x2
 1229 01c3 23        		.byte	0x23
 1230 01c4 09        		.uleb128 0x9
 1231 01c5 0A        		.uleb128 0xa
 1232 01c6 0000 0000 		.long	.LASF31
 1233 01ca 0B        		.byte	0xb
 1234 01cb 8B07      		.word	0x78b
 1235 01cd A600 0000 		.long	0xa6
 1236 01d1 02        		.byte	0x2
 1237 01d2 23        		.byte	0x23
 1238 01d3 0A        		.uleb128 0xa
 1239 01d4 0A        		.uleb128 0xa
 1240 01d5 0000 0000 		.long	.LASF32
 1241 01d9 0B        		.byte	0xb
 1242 01da 8C07      		.word	0x78c
 1243 01dc A600 0000 		.long	0xa6
 1244 01e0 02        		.byte	0x2
 1245 01e1 23        		.byte	0x23
 1246 01e2 0B        		.uleb128 0xb
 1247 01e3 0A        		.uleb128 0xa
 1248 01e4 0000 0000 		.long	.LASF33
 1249 01e8 0B        		.byte	0xb
 1250 01e9 8D07      		.word	0x78d
 1251 01eb A600 0000 		.long	0xa6
 1252 01ef 02        		.byte	0x2
 1253 01f0 23        		.byte	0x23
 1254 01f1 0C        		.uleb128 0xc
GAS LISTING /tmp/ccwf6aFs.s 			page 64


 1255 01f2 0A        		.uleb128 0xa
 1256 01f3 0000 0000 		.long	.LASF34
 1257 01f7 0B        		.byte	0xb
 1258 01f8 8E07      		.word	0x78e
 1259 01fa A600 0000 		.long	0xa6
 1260 01fe 02        		.byte	0x2
 1261 01ff 23        		.byte	0x23
 1262 0200 0D        		.uleb128 0xd
 1263 0201 0A        		.uleb128 0xa
 1264 0202 0000 0000 		.long	.LASF35
 1265 0206 0B        		.byte	0xb
 1266 0207 8F07      		.word	0x78f
 1267 0209 A600 0000 		.long	0xa6
 1268 020d 02        		.byte	0x2
 1269 020e 23        		.byte	0x23
 1270 020f 0E        		.uleb128 0xe
 1271 0210 0A        		.uleb128 0xa
 1272 0211 0000 0000 		.long	.LASF36
 1273 0215 0B        		.byte	0xb
 1274 0216 9007      		.word	0x790
 1275 0218 A600 0000 		.long	0xa6
 1276 021c 02        		.byte	0x2
 1277 021d 23        		.byte	0x23
 1278 021e 0F        		.uleb128 0xf
 1279 021f 0A        		.uleb128 0xa
 1280 0220 0000 0000 		.long	.LASF37
 1281 0224 0B        		.byte	0xb
 1282 0225 9107      		.word	0x791
 1283 0227 A600 0000 		.long	0xa6
 1284 022b 02        		.byte	0x2
 1285 022c 23        		.byte	0x23
 1286 022d 10        		.uleb128 0x10
 1287 022e 0A        		.uleb128 0xa
 1288 022f 0000 0000 		.long	.LASF38
 1289 0233 0B        		.byte	0xb
 1290 0234 9207      		.word	0x792
 1291 0236 A600 0000 		.long	0xa6
 1292 023a 02        		.byte	0x2
 1293 023b 23        		.byte	0x23
 1294 023c 11        		.uleb128 0x11
 1295 023d 0A        		.uleb128 0xa
 1296 023e 0000 0000 		.long	.LASF39
 1297 0242 0B        		.byte	0xb
 1298 0243 9307      		.word	0x793
 1299 0245 A600 0000 		.long	0xa6
 1300 0249 02        		.byte	0x2
 1301 024a 23        		.byte	0x23
 1302 024b 12        		.uleb128 0x12
 1303 024c 0A        		.uleb128 0xa
 1304 024d 0000 0000 		.long	.LASF40
 1305 0251 0B        		.byte	0xb
 1306 0252 9407      		.word	0x794
 1307 0254 A600 0000 		.long	0xa6
 1308 0258 02        		.byte	0x2
 1309 0259 23        		.byte	0x23
 1310 025a 13        		.uleb128 0x13
 1311 025b 0A        		.uleb128 0xa
GAS LISTING /tmp/ccwf6aFs.s 			page 65


 1312 025c 0000 0000 		.long	.LASF41
 1313 0260 0B        		.byte	0xb
 1314 0261 9507      		.word	0x795
 1315 0263 A600 0000 		.long	0xa6
 1316 0267 02        		.byte	0x2
 1317 0268 23        		.byte	0x23
 1318 0269 14        		.uleb128 0x14
 1319 026a 0A        		.uleb128 0xa
 1320 026b 0000 0000 		.long	.LASF42
 1321 026f 0B        		.byte	0xb
 1322 0270 9607      		.word	0x796
 1323 0272 A600 0000 		.long	0xa6
 1324 0276 02        		.byte	0x2
 1325 0277 23        		.byte	0x23
 1326 0278 15        		.uleb128 0x15
 1327 0279 0A        		.uleb128 0xa
 1328 027a 0000 0000 		.long	.LASF43
 1329 027e 0B        		.byte	0xb
 1330 027f 9707      		.word	0x797
 1331 0281 A600 0000 		.long	0xa6
 1332 0285 02        		.byte	0x2
 1333 0286 23        		.byte	0x23
 1334 0287 16        		.uleb128 0x16
 1335 0288 0A        		.uleb128 0xa
 1336 0289 0000 0000 		.long	.LASF44
 1337 028d 0B        		.byte	0xb
 1338 028e 9807      		.word	0x798
 1339 0290 A600 0000 		.long	0xa6
 1340 0294 02        		.byte	0x2
 1341 0295 23        		.byte	0x23
 1342 0296 17        		.uleb128 0x17
 1343 0297 00        		.byte	0
 1344 0298 0B        		.uleb128 0xb
 1345 0299 0000 0000 		.long	.LASF45
 1346 029d 0B        		.byte	0xb
 1347 029e 9907      		.word	0x799
 1348 02a0 2301 0000 		.long	0x123
 1349 02a4 07        		.uleb128 0x7
 1350 02a5 0000 0000 		.long	.LASF47
 1351 02a9 01        		.byte	0x1
 1352 02aa 0B        		.byte	0xb
 1353 02ab AE07      		.word	0x7ae
 1354 02ad E202 0000 		.long	0x2e2
 1355 02b1 08        		.uleb128 0x8
 1356 02b2 0000 0000 		.long	.LASF48
 1357 02b6 00        		.sleb128 0
 1358 02b7 08        		.uleb128 0x8
 1359 02b8 0000 0000 		.long	.LASF49
 1360 02bc 08        		.sleb128 8
 1361 02bd 08        		.uleb128 0x8
 1362 02be 0000 0000 		.long	.LASF50
 1363 02c2 10        		.sleb128 16
 1364 02c3 08        		.uleb128 0x8
 1365 02c4 0000 0000 		.long	.LASF51
 1366 02c8 18        		.sleb128 24
 1367 02c9 08        		.uleb128 0x8
 1368 02ca 0000 0000 		.long	.LASF52
GAS LISTING /tmp/ccwf6aFs.s 			page 66


 1369 02ce 20        		.sleb128 32
 1370 02cf 08        		.uleb128 0x8
 1371 02d0 0000 0000 		.long	.LASF53
 1372 02d4 28        		.sleb128 40
 1373 02d5 08        		.uleb128 0x8
 1374 02d6 0000 0000 		.long	.LASF54
 1375 02da 30        		.sleb128 48
 1376 02db 08        		.uleb128 0x8
 1377 02dc 0000 0000 		.long	.LASF55
 1378 02e0 38        		.sleb128 56
 1379 02e1 00        		.byte	0
 1380 02e2 0D        		.uleb128 0xd
 1381 02e3 02        		.byte	0x2
 1382 02e4 0B        		.byte	0xb
 1383 02e5 EE07      		.word	0x7ee
 1384 02e7 0A03 0000 		.long	0x30a
 1385 02eb 0A        		.uleb128 0xa
 1386 02ec 0000 0000 		.long	.LASF56
 1387 02f0 0B        		.byte	0xb
 1388 02f1 EE07      		.word	0x7ee
 1389 02f3 A600 0000 		.long	0xa6
 1390 02f7 02        		.byte	0x2
 1391 02f8 23        		.byte	0x23
 1392 02f9 00        		.uleb128 0
 1393 02fa 0A        		.uleb128 0xa
 1394 02fb 0000 0000 		.long	.LASF57
 1395 02ff 0B        		.byte	0xb
 1396 0300 EE07      		.word	0x7ee
 1397 0302 A600 0000 		.long	0xa6
 1398 0306 02        		.byte	0x2
 1399 0307 23        		.byte	0x23
 1400 0308 01        		.uleb128 0x1
 1401 0309 00        		.byte	0
 1402 030a 0E        		.uleb128 0xe
 1403 030b 02        		.byte	0x2
 1404 030c 0B        		.byte	0xb
 1405 030d EE07      		.word	0x7ee
 1406 030f 2503 0000 		.long	0x325
 1407 0313 0F        		.uleb128 0xf
 1408 0314 434E 5400 		.string	"CNT"
 1409 0318 0B        		.byte	0xb
 1410 0319 EE07      		.word	0x7ee
 1411 031b 1E01 0000 		.long	0x11e
 1412 031f 10        		.uleb128 0x10
 1413 0320 E202 0000 		.long	0x2e2
 1414 0324 00        		.byte	0
 1415 0325 0D        		.uleb128 0xd
 1416 0326 02        		.byte	0x2
 1417 0327 0B        		.byte	0xb
 1418 0328 F307      		.word	0x7f3
 1419 032a 4D03 0000 		.long	0x34d
 1420 032e 0A        		.uleb128 0xa
 1421 032f 0000 0000 		.long	.LASF58
 1422 0333 0B        		.byte	0xb
 1423 0334 F307      		.word	0x7f3
 1424 0336 A600 0000 		.long	0xa6
 1425 033a 02        		.byte	0x2
GAS LISTING /tmp/ccwf6aFs.s 			page 67


 1426 033b 23        		.byte	0x23
 1427 033c 00        		.uleb128 0
 1428 033d 0A        		.uleb128 0xa
 1429 033e 0000 0000 		.long	.LASF59
 1430 0342 0B        		.byte	0xb
 1431 0343 F307      		.word	0x7f3
 1432 0345 A600 0000 		.long	0xa6
 1433 0349 02        		.byte	0x2
 1434 034a 23        		.byte	0x23
 1435 034b 01        		.uleb128 0x1
 1436 034c 00        		.byte	0
 1437 034d 0E        		.uleb128 0xe
 1438 034e 02        		.byte	0x2
 1439 034f 0B        		.byte	0xb
 1440 0350 F307      		.word	0x7f3
 1441 0352 6803 0000 		.long	0x368
 1442 0356 0F        		.uleb128 0xf
 1443 0357 5045 5200 		.string	"PER"
 1444 035b 0B        		.byte	0xb
 1445 035c F307      		.word	0x7f3
 1446 035e 1E01 0000 		.long	0x11e
 1447 0362 10        		.uleb128 0x10
 1448 0363 2503 0000 		.long	0x325
 1449 0367 00        		.byte	0
 1450 0368 0D        		.uleb128 0xd
 1451 0369 02        		.byte	0x2
 1452 036a 0B        		.byte	0xb
 1453 036b F407      		.word	0x7f4
 1454 036d 9003 0000 		.long	0x390
 1455 0371 0A        		.uleb128 0xa
 1456 0372 0000 0000 		.long	.LASF60
 1457 0376 0B        		.byte	0xb
 1458 0377 F407      		.word	0x7f4
 1459 0379 A600 0000 		.long	0xa6
 1460 037d 02        		.byte	0x2
 1461 037e 23        		.byte	0x23
 1462 037f 00        		.uleb128 0
 1463 0380 0A        		.uleb128 0xa
 1464 0381 0000 0000 		.long	.LASF61
 1465 0385 0B        		.byte	0xb
 1466 0386 F407      		.word	0x7f4
 1467 0388 A600 0000 		.long	0xa6
 1468 038c 02        		.byte	0x2
 1469 038d 23        		.byte	0x23
 1470 038e 01        		.uleb128 0x1
 1471 038f 00        		.byte	0
 1472 0390 0E        		.uleb128 0xe
 1473 0391 02        		.byte	0x2
 1474 0392 0B        		.byte	0xb
 1475 0393 F407      		.word	0x7f4
 1476 0395 AB03 0000 		.long	0x3ab
 1477 0399 0F        		.uleb128 0xf
 1478 039a 4343 4100 		.string	"CCA"
 1479 039e 0B        		.byte	0xb
 1480 039f F407      		.word	0x7f4
 1481 03a1 1E01 0000 		.long	0x11e
 1482 03a5 10        		.uleb128 0x10
GAS LISTING /tmp/ccwf6aFs.s 			page 68


 1483 03a6 6803 0000 		.long	0x368
 1484 03aa 00        		.byte	0
 1485 03ab 0D        		.uleb128 0xd
 1486 03ac 02        		.byte	0x2
 1487 03ad 0B        		.byte	0xb
 1488 03ae F507      		.word	0x7f5
 1489 03b0 D303 0000 		.long	0x3d3
 1490 03b4 0A        		.uleb128 0xa
 1491 03b5 0000 0000 		.long	.LASF62
 1492 03b9 0B        		.byte	0xb
 1493 03ba F507      		.word	0x7f5
 1494 03bc A600 0000 		.long	0xa6
 1495 03c0 02        		.byte	0x2
 1496 03c1 23        		.byte	0x23
 1497 03c2 00        		.uleb128 0
 1498 03c3 0A        		.uleb128 0xa
 1499 03c4 0000 0000 		.long	.LASF63
 1500 03c8 0B        		.byte	0xb
 1501 03c9 F507      		.word	0x7f5
 1502 03cb A600 0000 		.long	0xa6
 1503 03cf 02        		.byte	0x2
 1504 03d0 23        		.byte	0x23
 1505 03d1 01        		.uleb128 0x1
 1506 03d2 00        		.byte	0
 1507 03d3 0E        		.uleb128 0xe
 1508 03d4 02        		.byte	0x2
 1509 03d5 0B        		.byte	0xb
 1510 03d6 F507      		.word	0x7f5
 1511 03d8 EE03 0000 		.long	0x3ee
 1512 03dc 0F        		.uleb128 0xf
 1513 03dd 4343 4200 		.string	"CCB"
 1514 03e1 0B        		.byte	0xb
 1515 03e2 F507      		.word	0x7f5
 1516 03e4 1E01 0000 		.long	0x11e
 1517 03e8 10        		.uleb128 0x10
 1518 03e9 AB03 0000 		.long	0x3ab
 1519 03ed 00        		.byte	0
 1520 03ee 0D        		.uleb128 0xd
 1521 03ef 02        		.byte	0x2
 1522 03f0 0B        		.byte	0xb
 1523 03f1 F607      		.word	0x7f6
 1524 03f3 1604 0000 		.long	0x416
 1525 03f7 0A        		.uleb128 0xa
 1526 03f8 0000 0000 		.long	.LASF64
 1527 03fc 0B        		.byte	0xb
 1528 03fd F607      		.word	0x7f6
 1529 03ff A600 0000 		.long	0xa6
 1530 0403 02        		.byte	0x2
 1531 0404 23        		.byte	0x23
 1532 0405 00        		.uleb128 0
 1533 0406 0A        		.uleb128 0xa
 1534 0407 0000 0000 		.long	.LASF65
 1535 040b 0B        		.byte	0xb
 1536 040c F607      		.word	0x7f6
 1537 040e A600 0000 		.long	0xa6
 1538 0412 02        		.byte	0x2
 1539 0413 23        		.byte	0x23
GAS LISTING /tmp/ccwf6aFs.s 			page 69


 1540 0414 01        		.uleb128 0x1
 1541 0415 00        		.byte	0
 1542 0416 0E        		.uleb128 0xe
 1543 0417 02        		.byte	0x2
 1544 0418 0B        		.byte	0xb
 1545 0419 F607      		.word	0x7f6
 1546 041b 3104 0000 		.long	0x431
 1547 041f 0F        		.uleb128 0xf
 1548 0420 4343 4300 		.string	"CCC"
 1549 0424 0B        		.byte	0xb
 1550 0425 F607      		.word	0x7f6
 1551 0427 1E01 0000 		.long	0x11e
 1552 042b 10        		.uleb128 0x10
 1553 042c EE03 0000 		.long	0x3ee
 1554 0430 00        		.byte	0
 1555 0431 0D        		.uleb128 0xd
 1556 0432 02        		.byte	0x2
 1557 0433 0B        		.byte	0xb
 1558 0434 F707      		.word	0x7f7
 1559 0436 5904 0000 		.long	0x459
 1560 043a 0A        		.uleb128 0xa
 1561 043b 0000 0000 		.long	.LASF66
 1562 043f 0B        		.byte	0xb
 1563 0440 F707      		.word	0x7f7
 1564 0442 A600 0000 		.long	0xa6
 1565 0446 02        		.byte	0x2
 1566 0447 23        		.byte	0x23
 1567 0448 00        		.uleb128 0
 1568 0449 0A        		.uleb128 0xa
 1569 044a 0000 0000 		.long	.LASF67
 1570 044e 0B        		.byte	0xb
 1571 044f F707      		.word	0x7f7
 1572 0451 A600 0000 		.long	0xa6
 1573 0455 02        		.byte	0x2
 1574 0456 23        		.byte	0x23
 1575 0457 01        		.uleb128 0x1
 1576 0458 00        		.byte	0
 1577 0459 0E        		.uleb128 0xe
 1578 045a 02        		.byte	0x2
 1579 045b 0B        		.byte	0xb
 1580 045c F707      		.word	0x7f7
 1581 045e 7404 0000 		.long	0x474
 1582 0462 0F        		.uleb128 0xf
 1583 0463 4343 4400 		.string	"CCD"
 1584 0467 0B        		.byte	0xb
 1585 0468 F707      		.word	0x7f7
 1586 046a 1E01 0000 		.long	0x11e
 1587 046e 10        		.uleb128 0x10
 1588 046f 3104 0000 		.long	0x431
 1589 0473 00        		.byte	0
 1590 0474 0D        		.uleb128 0xd
 1591 0475 02        		.byte	0x2
 1592 0476 0B        		.byte	0xb
 1593 0477 FE07      		.word	0x7fe
 1594 0479 9C04 0000 		.long	0x49c
 1595 047d 0A        		.uleb128 0xa
 1596 047e 0000 0000 		.long	.LASF68
GAS LISTING /tmp/ccwf6aFs.s 			page 70


 1597 0482 0B        		.byte	0xb
 1598 0483 FE07      		.word	0x7fe
 1599 0485 A600 0000 		.long	0xa6
 1600 0489 02        		.byte	0x2
 1601 048a 23        		.byte	0x23
 1602 048b 00        		.uleb128 0
 1603 048c 0A        		.uleb128 0xa
 1604 048d 0000 0000 		.long	.LASF69
 1605 0491 0B        		.byte	0xb
 1606 0492 FE07      		.word	0x7fe
 1607 0494 A600 0000 		.long	0xa6
 1608 0498 02        		.byte	0x2
 1609 0499 23        		.byte	0x23
 1610 049a 01        		.uleb128 0x1
 1611 049b 00        		.byte	0
 1612 049c 0E        		.uleb128 0xe
 1613 049d 02        		.byte	0x2
 1614 049e 0B        		.byte	0xb
 1615 049f FE07      		.word	0x7fe
 1616 04a1 B704 0000 		.long	0x4b7
 1617 04a5 11        		.uleb128 0x11
 1618 04a6 0000 0000 		.long	.LASF70
 1619 04aa 0B        		.byte	0xb
 1620 04ab FE07      		.word	0x7fe
 1621 04ad 1E01 0000 		.long	0x11e
 1622 04b1 10        		.uleb128 0x10
 1623 04b2 7404 0000 		.long	0x474
 1624 04b6 00        		.byte	0
 1625 04b7 0D        		.uleb128 0xd
 1626 04b8 02        		.byte	0x2
 1627 04b9 0B        		.byte	0xb
 1628 04ba FF07      		.word	0x7ff
 1629 04bc DF04 0000 		.long	0x4df
 1630 04c0 0A        		.uleb128 0xa
 1631 04c1 0000 0000 		.long	.LASF71
 1632 04c5 0B        		.byte	0xb
 1633 04c6 FF07      		.word	0x7ff
 1634 04c8 A600 0000 		.long	0xa6
 1635 04cc 02        		.byte	0x2
 1636 04cd 23        		.byte	0x23
 1637 04ce 00        		.uleb128 0
 1638 04cf 0A        		.uleb128 0xa
 1639 04d0 0000 0000 		.long	.LASF72
 1640 04d4 0B        		.byte	0xb
 1641 04d5 FF07      		.word	0x7ff
 1642 04d7 A600 0000 		.long	0xa6
 1643 04db 02        		.byte	0x2
 1644 04dc 23        		.byte	0x23
 1645 04dd 01        		.uleb128 0x1
 1646 04de 00        		.byte	0
 1647 04df 0E        		.uleb128 0xe
 1648 04e0 02        		.byte	0x2
 1649 04e1 0B        		.byte	0xb
 1650 04e2 FF07      		.word	0x7ff
 1651 04e4 FA04 0000 		.long	0x4fa
 1652 04e8 11        		.uleb128 0x11
 1653 04e9 0000 0000 		.long	.LASF73
GAS LISTING /tmp/ccwf6aFs.s 			page 71


 1654 04ed 0B        		.byte	0xb
 1655 04ee FF07      		.word	0x7ff
 1656 04f0 1E01 0000 		.long	0x11e
 1657 04f4 10        		.uleb128 0x10
 1658 04f5 B704 0000 		.long	0x4b7
 1659 04f9 00        		.byte	0
 1660 04fa 0D        		.uleb128 0xd
 1661 04fb 02        		.byte	0x2
 1662 04fc 0B        		.byte	0xb
 1663 04fd 0008      		.word	0x800
 1664 04ff 2205 0000 		.long	0x522
 1665 0503 0A        		.uleb128 0xa
 1666 0504 0000 0000 		.long	.LASF74
 1667 0508 0B        		.byte	0xb
 1668 0509 0008      		.word	0x800
 1669 050b A600 0000 		.long	0xa6
 1670 050f 02        		.byte	0x2
 1671 0510 23        		.byte	0x23
 1672 0511 00        		.uleb128 0
 1673 0512 0A        		.uleb128 0xa
 1674 0513 0000 0000 		.long	.LASF75
 1675 0517 0B        		.byte	0xb
 1676 0518 0008      		.word	0x800
 1677 051a A600 0000 		.long	0xa6
 1678 051e 02        		.byte	0x2
 1679 051f 23        		.byte	0x23
 1680 0520 01        		.uleb128 0x1
 1681 0521 00        		.byte	0
 1682 0522 0E        		.uleb128 0xe
 1683 0523 02        		.byte	0x2
 1684 0524 0B        		.byte	0xb
 1685 0525 0008      		.word	0x800
 1686 0527 3D05 0000 		.long	0x53d
 1687 052b 11        		.uleb128 0x11
 1688 052c 0000 0000 		.long	.LASF76
 1689 0530 0B        		.byte	0xb
 1690 0531 0008      		.word	0x800
 1691 0533 1E01 0000 		.long	0x11e
 1692 0537 10        		.uleb128 0x10
 1693 0538 FA04 0000 		.long	0x4fa
 1694 053c 00        		.byte	0
 1695 053d 0D        		.uleb128 0xd
 1696 053e 02        		.byte	0x2
 1697 053f 0B        		.byte	0xb
 1698 0540 0108      		.word	0x801
 1699 0542 6505 0000 		.long	0x565
 1700 0546 0A        		.uleb128 0xa
 1701 0547 0000 0000 		.long	.LASF77
 1702 054b 0B        		.byte	0xb
 1703 054c 0108      		.word	0x801
 1704 054e A600 0000 		.long	0xa6
 1705 0552 02        		.byte	0x2
 1706 0553 23        		.byte	0x23
 1707 0554 00        		.uleb128 0
 1708 0555 0A        		.uleb128 0xa
 1709 0556 0000 0000 		.long	.LASF78
 1710 055a 0B        		.byte	0xb
GAS LISTING /tmp/ccwf6aFs.s 			page 72


 1711 055b 0108      		.word	0x801
 1712 055d A600 0000 		.long	0xa6
 1713 0561 02        		.byte	0x2
 1714 0562 23        		.byte	0x23
 1715 0563 01        		.uleb128 0x1
 1716 0564 00        		.byte	0
 1717 0565 0E        		.uleb128 0xe
 1718 0566 02        		.byte	0x2
 1719 0567 0B        		.byte	0xb
 1720 0568 0108      		.word	0x801
 1721 056a 8005 0000 		.long	0x580
 1722 056e 11        		.uleb128 0x11
 1723 056f 0000 0000 		.long	.LASF79
 1724 0573 0B        		.byte	0xb
 1725 0574 0108      		.word	0x801
 1726 0576 1E01 0000 		.long	0x11e
 1727 057a 10        		.uleb128 0x10
 1728 057b 3D05 0000 		.long	0x53d
 1729 057f 00        		.byte	0
 1730 0580 0D        		.uleb128 0xd
 1731 0581 02        		.byte	0x2
 1732 0582 0B        		.byte	0xb
 1733 0583 0208      		.word	0x802
 1734 0585 A805 0000 		.long	0x5a8
 1735 0589 0A        		.uleb128 0xa
 1736 058a 0000 0000 		.long	.LASF80
 1737 058e 0B        		.byte	0xb
 1738 058f 0208      		.word	0x802
 1739 0591 A600 0000 		.long	0xa6
 1740 0595 02        		.byte	0x2
 1741 0596 23        		.byte	0x23
 1742 0597 00        		.uleb128 0
 1743 0598 0A        		.uleb128 0xa
 1744 0599 0000 0000 		.long	.LASF81
 1745 059d 0B        		.byte	0xb
 1746 059e 0208      		.word	0x802
 1747 05a0 A600 0000 		.long	0xa6
 1748 05a4 02        		.byte	0x2
 1749 05a5 23        		.byte	0x23
 1750 05a6 01        		.uleb128 0x1
 1751 05a7 00        		.byte	0
 1752 05a8 0E        		.uleb128 0xe
 1753 05a9 02        		.byte	0x2
 1754 05aa 0B        		.byte	0xb
 1755 05ab 0208      		.word	0x802
 1756 05ad C305 0000 		.long	0x5c3
 1757 05b1 11        		.uleb128 0x11
 1758 05b2 0000 0000 		.long	.LASF82
 1759 05b6 0B        		.byte	0xb
 1760 05b7 0208      		.word	0x802
 1761 05b9 1E01 0000 		.long	0x11e
 1762 05bd 10        		.uleb128 0x10
 1763 05be 8005 0000 		.long	0x580
 1764 05c2 00        		.byte	0
 1765 05c3 09        		.uleb128 0x9
 1766 05c4 0000 0000 		.long	.LASF83
 1767 05c8 40        		.byte	0x40
GAS LISTING /tmp/ccwf6aFs.s 			page 73


 1768 05c9 0B        		.byte	0xb
 1769 05ca CC07      		.word	0x7cc
 1770 05cc 9F08 0000 		.long	0x89f
 1771 05d0 0A        		.uleb128 0xa
 1772 05d1 0000 0000 		.long	.LASF84
 1773 05d5 0B        		.byte	0xb
 1774 05d6 CE07      		.word	0x7ce
 1775 05d8 A600 0000 		.long	0xa6
 1776 05dc 02        		.byte	0x2
 1777 05dd 23        		.byte	0x23
 1778 05de 00        		.uleb128 0
 1779 05df 0A        		.uleb128 0xa
 1780 05e0 0000 0000 		.long	.LASF85
 1781 05e4 0B        		.byte	0xb
 1782 05e5 CF07      		.word	0x7cf
 1783 05e7 A600 0000 		.long	0xa6
 1784 05eb 02        		.byte	0x2
 1785 05ec 23        		.byte	0x23
 1786 05ed 01        		.uleb128 0x1
 1787 05ee 0A        		.uleb128 0xa
 1788 05ef 0000 0000 		.long	.LASF86
 1789 05f3 0B        		.byte	0xb
 1790 05f4 D007      		.word	0x7d0
 1791 05f6 A600 0000 		.long	0xa6
 1792 05fa 02        		.byte	0x2
 1793 05fb 23        		.byte	0x23
 1794 05fc 02        		.uleb128 0x2
 1795 05fd 0A        		.uleb128 0xa
 1796 05fe 0000 0000 		.long	.LASF87
 1797 0602 0B        		.byte	0xb
 1798 0603 D107      		.word	0x7d1
 1799 0605 A600 0000 		.long	0xa6
 1800 0609 02        		.byte	0x2
 1801 060a 23        		.byte	0x23
 1802 060b 03        		.uleb128 0x3
 1803 060c 0A        		.uleb128 0xa
 1804 060d 0000 0000 		.long	.LASF88
 1805 0611 0B        		.byte	0xb
 1806 0612 D207      		.word	0x7d2
 1807 0614 A600 0000 		.long	0xa6
 1808 0618 02        		.byte	0x2
 1809 0619 23        		.byte	0x23
 1810 061a 04        		.uleb128 0x4
 1811 061b 0A        		.uleb128 0xa
 1812 061c 0000 0000 		.long	.LASF89
 1813 0620 0B        		.byte	0xb
 1814 0621 D307      		.word	0x7d3
 1815 0623 A600 0000 		.long	0xa6
 1816 0627 02        		.byte	0x2
 1817 0628 23        		.byte	0x23
 1818 0629 05        		.uleb128 0x5
 1819 062a 0A        		.uleb128 0xa
 1820 062b 0000 0000 		.long	.LASF90
 1821 062f 0B        		.byte	0xb
 1822 0630 D407      		.word	0x7d4
 1823 0632 A600 0000 		.long	0xa6
 1824 0636 02        		.byte	0x2
GAS LISTING /tmp/ccwf6aFs.s 			page 74


 1825 0637 23        		.byte	0x23
 1826 0638 06        		.uleb128 0x6
 1827 0639 0A        		.uleb128 0xa
 1828 063a 0000 0000 		.long	.LASF91
 1829 063e 0B        		.byte	0xb
 1830 063f D507      		.word	0x7d5
 1831 0641 A600 0000 		.long	0xa6
 1832 0645 02        		.byte	0x2
 1833 0646 23        		.byte	0x23
 1834 0647 07        		.uleb128 0x7
 1835 0648 0A        		.uleb128 0xa
 1836 0649 0000 0000 		.long	.LASF92
 1837 064d 0B        		.byte	0xb
 1838 064e D607      		.word	0x7d6
 1839 0650 A600 0000 		.long	0xa6
 1840 0654 02        		.byte	0x2
 1841 0655 23        		.byte	0x23
 1842 0656 08        		.uleb128 0x8
 1843 0657 0A        		.uleb128 0xa
 1844 0658 0000 0000 		.long	.LASF93
 1845 065c 0B        		.byte	0xb
 1846 065d D707      		.word	0x7d7
 1847 065f A600 0000 		.long	0xa6
 1848 0663 02        		.byte	0x2
 1849 0664 23        		.byte	0x23
 1850 0665 09        		.uleb128 0x9
 1851 0666 0A        		.uleb128 0xa
 1852 0667 0000 0000 		.long	.LASF94
 1853 066b 0B        		.byte	0xb
 1854 066c D807      		.word	0x7d8
 1855 066e A600 0000 		.long	0xa6
 1856 0672 02        		.byte	0x2
 1857 0673 23        		.byte	0x23
 1858 0674 0A        		.uleb128 0xa
 1859 0675 0A        		.uleb128 0xa
 1860 0676 0000 0000 		.long	.LASF95
 1861 067a 0B        		.byte	0xb
 1862 067b D907      		.word	0x7d9
 1863 067d A600 0000 		.long	0xa6
 1864 0681 02        		.byte	0x2
 1865 0682 23        		.byte	0x23
 1866 0683 0B        		.uleb128 0xb
 1867 0684 0A        		.uleb128 0xa
 1868 0685 0000 0000 		.long	.LASF33
 1869 0689 0B        		.byte	0xb
 1870 068a DA07      		.word	0x7da
 1871 068c A600 0000 		.long	0xa6
 1872 0690 02        		.byte	0x2
 1873 0691 23        		.byte	0x23
 1874 0692 0C        		.uleb128 0xc
 1875 0693 0A        		.uleb128 0xa
 1876 0694 0000 0000 		.long	.LASF34
 1877 0698 0B        		.byte	0xb
 1878 0699 DB07      		.word	0x7db
 1879 069b A600 0000 		.long	0xa6
 1880 069f 02        		.byte	0x2
 1881 06a0 23        		.byte	0x23
GAS LISTING /tmp/ccwf6aFs.s 			page 75


 1882 06a1 0D        		.uleb128 0xd
 1883 06a2 0A        		.uleb128 0xa
 1884 06a3 0000 0000 		.long	.LASF96
 1885 06a7 0B        		.byte	0xb
 1886 06a8 DC07      		.word	0x7dc
 1887 06aa A600 0000 		.long	0xa6
 1888 06ae 02        		.byte	0x2
 1889 06af 23        		.byte	0x23
 1890 06b0 0E        		.uleb128 0xe
 1891 06b1 0A        		.uleb128 0xa
 1892 06b2 0000 0000 		.long	.LASF97
 1893 06b6 0B        		.byte	0xb
 1894 06b7 DD07      		.word	0x7dd
 1895 06b9 A600 0000 		.long	0xa6
 1896 06bd 02        		.byte	0x2
 1897 06be 23        		.byte	0x23
 1898 06bf 0F        		.uleb128 0xf
 1899 06c0 0A        		.uleb128 0xa
 1900 06c1 0000 0000 		.long	.LASF98
 1901 06c5 0B        		.byte	0xb
 1902 06c6 DE07      		.word	0x7de
 1903 06c8 A600 0000 		.long	0xa6
 1904 06cc 02        		.byte	0x2
 1905 06cd 23        		.byte	0x23
 1906 06ce 10        		.uleb128 0x10
 1907 06cf 0A        		.uleb128 0xa
 1908 06d0 0000 0000 		.long	.LASF99
 1909 06d4 0B        		.byte	0xb
 1910 06d5 DF07      		.word	0x7df
 1911 06d7 A600 0000 		.long	0xa6
 1912 06db 02        		.byte	0x2
 1913 06dc 23        		.byte	0x23
 1914 06dd 11        		.uleb128 0x11
 1915 06de 0A        		.uleb128 0xa
 1916 06df 0000 0000 		.long	.LASF100
 1917 06e3 0B        		.byte	0xb
 1918 06e4 E007      		.word	0x7e0
 1919 06e6 A600 0000 		.long	0xa6
 1920 06ea 02        		.byte	0x2
 1921 06eb 23        		.byte	0x23
 1922 06ec 12        		.uleb128 0x12
 1923 06ed 0A        		.uleb128 0xa
 1924 06ee 0000 0000 		.long	.LASF101
 1925 06f2 0B        		.byte	0xb
 1926 06f3 E107      		.word	0x7e1
 1927 06f5 A600 0000 		.long	0xa6
 1928 06f9 02        		.byte	0x2
 1929 06fa 23        		.byte	0x23
 1930 06fb 13        		.uleb128 0x13
 1931 06fc 0A        		.uleb128 0xa
 1932 06fd 0000 0000 		.long	.LASF102
 1933 0701 0B        		.byte	0xb
 1934 0702 E207      		.word	0x7e2
 1935 0704 A600 0000 		.long	0xa6
 1936 0708 02        		.byte	0x2
 1937 0709 23        		.byte	0x23
 1938 070a 14        		.uleb128 0x14
GAS LISTING /tmp/ccwf6aFs.s 			page 76


 1939 070b 0A        		.uleb128 0xa
 1940 070c 0000 0000 		.long	.LASF103
 1941 0710 0B        		.byte	0xb
 1942 0711 E307      		.word	0x7e3
 1943 0713 A600 0000 		.long	0xa6
 1944 0717 02        		.byte	0x2
 1945 0718 23        		.byte	0x23
 1946 0719 15        		.uleb128 0x15
 1947 071a 0A        		.uleb128 0xa
 1948 071b 0000 0000 		.long	.LASF104
 1949 071f 0B        		.byte	0xb
 1950 0720 E407      		.word	0x7e4
 1951 0722 A600 0000 		.long	0xa6
 1952 0726 02        		.byte	0x2
 1953 0727 23        		.byte	0x23
 1954 0728 16        		.uleb128 0x16
 1955 0729 0A        		.uleb128 0xa
 1956 072a 0000 0000 		.long	.LASF105
 1957 072e 0B        		.byte	0xb
 1958 072f E507      		.word	0x7e5
 1959 0731 A600 0000 		.long	0xa6
 1960 0735 02        		.byte	0x2
 1961 0736 23        		.byte	0x23
 1962 0737 17        		.uleb128 0x17
 1963 0738 0A        		.uleb128 0xa
 1964 0739 0000 0000 		.long	.LASF106
 1965 073d 0B        		.byte	0xb
 1966 073e E607      		.word	0x7e6
 1967 0740 A600 0000 		.long	0xa6
 1968 0744 02        		.byte	0x2
 1969 0745 23        		.byte	0x23
 1970 0746 18        		.uleb128 0x18
 1971 0747 0A        		.uleb128 0xa
 1972 0748 0000 0000 		.long	.LASF107
 1973 074c 0B        		.byte	0xb
 1974 074d E707      		.word	0x7e7
 1975 074f A600 0000 		.long	0xa6
 1976 0753 02        		.byte	0x2
 1977 0754 23        		.byte	0x23
 1978 0755 19        		.uleb128 0x19
 1979 0756 0A        		.uleb128 0xa
 1980 0757 0000 0000 		.long	.LASF108
 1981 075b 0B        		.byte	0xb
 1982 075c E807      		.word	0x7e8
 1983 075e A600 0000 		.long	0xa6
 1984 0762 02        		.byte	0x2
 1985 0763 23        		.byte	0x23
 1986 0764 1A        		.uleb128 0x1a
 1987 0765 0A        		.uleb128 0xa
 1988 0766 0000 0000 		.long	.LASF109
 1989 076a 0B        		.byte	0xb
 1990 076b E907      		.word	0x7e9
 1991 076d A600 0000 		.long	0xa6
 1992 0771 02        		.byte	0x2
 1993 0772 23        		.byte	0x23
 1994 0773 1B        		.uleb128 0x1b
 1995 0774 0A        		.uleb128 0xa
GAS LISTING /tmp/ccwf6aFs.s 			page 77


 1996 0775 0000 0000 		.long	.LASF110
 1997 0779 0B        		.byte	0xb
 1998 077a EA07      		.word	0x7ea
 1999 077c A600 0000 		.long	0xa6
 2000 0780 02        		.byte	0x2
 2001 0781 23        		.byte	0x23
 2002 0782 1C        		.uleb128 0x1c
 2003 0783 0A        		.uleb128 0xa
 2004 0784 0000 0000 		.long	.LASF111
 2005 0788 0B        		.byte	0xb
 2006 0789 EB07      		.word	0x7eb
 2007 078b A600 0000 		.long	0xa6
 2008 078f 02        		.byte	0x2
 2009 0790 23        		.byte	0x23
 2010 0791 1D        		.uleb128 0x1d
 2011 0792 0A        		.uleb128 0xa
 2012 0793 0000 0000 		.long	.LASF112
 2013 0797 0B        		.byte	0xb
 2014 0798 EC07      		.word	0x7ec
 2015 079a A600 0000 		.long	0xa6
 2016 079e 02        		.byte	0x2
 2017 079f 23        		.byte	0x23
 2018 07a0 1E        		.uleb128 0x1e
 2019 07a1 0A        		.uleb128 0xa
 2020 07a2 0000 0000 		.long	.LASF113
 2021 07a6 0B        		.byte	0xb
 2022 07a7 ED07      		.word	0x7ed
 2023 07a9 A600 0000 		.long	0xa6
 2024 07ad 02        		.byte	0x2
 2025 07ae 23        		.byte	0x23
 2026 07af 1F        		.uleb128 0x1f
 2027 07b0 12        		.uleb128 0x12
 2028 07b1 0A03 0000 		.long	0x30a
 2029 07b5 02        		.byte	0x2
 2030 07b6 23        		.byte	0x23
 2031 07b7 20        		.uleb128 0x20
 2032 07b8 0A        		.uleb128 0xa
 2033 07b9 0000 0000 		.long	.LASF114
 2034 07bd 0B        		.byte	0xb
 2035 07be EF07      		.word	0x7ef
 2036 07c0 A600 0000 		.long	0xa6
 2037 07c4 02        		.byte	0x2
 2038 07c5 23        		.byte	0x23
 2039 07c6 22        		.uleb128 0x22
 2040 07c7 0A        		.uleb128 0xa
 2041 07c8 0000 0000 		.long	.LASF115
 2042 07cc 0B        		.byte	0xb
 2043 07cd F007      		.word	0x7f0
 2044 07cf A600 0000 		.long	0xa6
 2045 07d3 02        		.byte	0x2
 2046 07d4 23        		.byte	0x23
 2047 07d5 23        		.uleb128 0x23
 2048 07d6 0A        		.uleb128 0xa
 2049 07d7 0000 0000 		.long	.LASF116
 2050 07db 0B        		.byte	0xb
 2051 07dc F107      		.word	0x7f1
 2052 07de A600 0000 		.long	0xa6
GAS LISTING /tmp/ccwf6aFs.s 			page 78


 2053 07e2 02        		.byte	0x2
 2054 07e3 23        		.byte	0x23
 2055 07e4 24        		.uleb128 0x24
 2056 07e5 0A        		.uleb128 0xa
 2057 07e6 0000 0000 		.long	.LASF117
 2058 07ea 0B        		.byte	0xb
 2059 07eb F207      		.word	0x7f2
 2060 07ed A600 0000 		.long	0xa6
 2061 07f1 02        		.byte	0x2
 2062 07f2 23        		.byte	0x23
 2063 07f3 25        		.uleb128 0x25
 2064 07f4 12        		.uleb128 0x12
 2065 07f5 4D03 0000 		.long	0x34d
 2066 07f9 02        		.byte	0x2
 2067 07fa 23        		.byte	0x23
 2068 07fb 26        		.uleb128 0x26
 2069 07fc 12        		.uleb128 0x12
 2070 07fd 9003 0000 		.long	0x390
 2071 0801 02        		.byte	0x2
 2072 0802 23        		.byte	0x23
 2073 0803 28        		.uleb128 0x28
 2074 0804 12        		.uleb128 0x12
 2075 0805 D303 0000 		.long	0x3d3
 2076 0809 02        		.byte	0x2
 2077 080a 23        		.byte	0x23
 2078 080b 2A        		.uleb128 0x2a
 2079 080c 12        		.uleb128 0x12
 2080 080d 1604 0000 		.long	0x416
 2081 0811 02        		.byte	0x2
 2082 0812 23        		.byte	0x23
 2083 0813 2C        		.uleb128 0x2c
 2084 0814 12        		.uleb128 0x12
 2085 0815 5904 0000 		.long	0x459
 2086 0819 02        		.byte	0x2
 2087 081a 23        		.byte	0x23
 2088 081b 2E        		.uleb128 0x2e
 2089 081c 0A        		.uleb128 0xa
 2090 081d 0000 0000 		.long	.LASF118
 2091 0821 0B        		.byte	0xb
 2092 0822 F807      		.word	0x7f8
 2093 0824 A600 0000 		.long	0xa6
 2094 0828 02        		.byte	0x2
 2095 0829 23        		.byte	0x23
 2096 082a 30        		.uleb128 0x30
 2097 082b 0A        		.uleb128 0xa
 2098 082c 0000 0000 		.long	.LASF119
 2099 0830 0B        		.byte	0xb
 2100 0831 F907      		.word	0x7f9
 2101 0833 A600 0000 		.long	0xa6
 2102 0837 02        		.byte	0x2
 2103 0838 23        		.byte	0x23
 2104 0839 31        		.uleb128 0x31
 2105 083a 0A        		.uleb128 0xa
 2106 083b 0000 0000 		.long	.LASF120
 2107 083f 0B        		.byte	0xb
 2108 0840 FA07      		.word	0x7fa
 2109 0842 A600 0000 		.long	0xa6
GAS LISTING /tmp/ccwf6aFs.s 			page 79


 2110 0846 02        		.byte	0x2
 2111 0847 23        		.byte	0x23
 2112 0848 32        		.uleb128 0x32
 2113 0849 0A        		.uleb128 0xa
 2114 084a 0000 0000 		.long	.LASF121
 2115 084e 0B        		.byte	0xb
 2116 084f FB07      		.word	0x7fb
 2117 0851 A600 0000 		.long	0xa6
 2118 0855 02        		.byte	0x2
 2119 0856 23        		.byte	0x23
 2120 0857 33        		.uleb128 0x33
 2121 0858 0A        		.uleb128 0xa
 2122 0859 0000 0000 		.long	.LASF122
 2123 085d 0B        		.byte	0xb
 2124 085e FC07      		.word	0x7fc
 2125 0860 A600 0000 		.long	0xa6
 2126 0864 02        		.byte	0x2
 2127 0865 23        		.byte	0x23
 2128 0866 34        		.uleb128 0x34
 2129 0867 0A        		.uleb128 0xa
 2130 0868 0000 0000 		.long	.LASF123
 2131 086c 0B        		.byte	0xb
 2132 086d FD07      		.word	0x7fd
 2133 086f A600 0000 		.long	0xa6
 2134 0873 02        		.byte	0x2
 2135 0874 23        		.byte	0x23
 2136 0875 35        		.uleb128 0x35
 2137 0876 12        		.uleb128 0x12
 2138 0877 9C04 0000 		.long	0x49c
 2139 087b 02        		.byte	0x2
 2140 087c 23        		.byte	0x23
 2141 087d 36        		.uleb128 0x36
 2142 087e 12        		.uleb128 0x12
 2143 087f DF04 0000 		.long	0x4df
 2144 0883 02        		.byte	0x2
 2145 0884 23        		.byte	0x23
 2146 0885 38        		.uleb128 0x38
 2147 0886 12        		.uleb128 0x12
 2148 0887 2205 0000 		.long	0x522
 2149 088b 02        		.byte	0x2
 2150 088c 23        		.byte	0x23
 2151 088d 3A        		.uleb128 0x3a
 2152 088e 12        		.uleb128 0x12
 2153 088f 6505 0000 		.long	0x565
 2154 0893 02        		.byte	0x2
 2155 0894 23        		.byte	0x23
 2156 0895 3C        		.uleb128 0x3c
 2157 0896 12        		.uleb128 0x12
 2158 0897 A805 0000 		.long	0x5a8
 2159 089b 02        		.byte	0x2
 2160 089c 23        		.byte	0x23
 2161 089d 3E        		.uleb128 0x3e
 2162 089e 00        		.byte	0
 2163 089f 0B        		.uleb128 0xb
 2164 08a0 0000 0000 		.long	.LASF124
 2165 08a4 0B        		.byte	0xb
 2166 08a5 0308      		.word	0x803
GAS LISTING /tmp/ccwf6aFs.s 			page 80


 2167 08a7 C305 0000 		.long	0x5c3
 2168 08ab 0D        		.uleb128 0xd
 2169 08ac 02        		.byte	0x2
 2170 08ad 0B        		.byte	0xb
 2171 08ae 2908      		.word	0x829
 2172 08b0 D308 0000 		.long	0x8d3
 2173 08b4 0A        		.uleb128 0xa
 2174 08b5 0000 0000 		.long	.LASF56
 2175 08b9 0B        		.byte	0xb
 2176 08ba 2908      		.word	0x829
 2177 08bc A600 0000 		.long	0xa6
 2178 08c0 02        		.byte	0x2
 2179 08c1 23        		.byte	0x23
 2180 08c2 00        		.uleb128 0
 2181 08c3 0A        		.uleb128 0xa
 2182 08c4 0000 0000 		.long	.LASF57
 2183 08c8 0B        		.byte	0xb
 2184 08c9 2908      		.word	0x829
 2185 08cb A600 0000 		.long	0xa6
 2186 08cf 02        		.byte	0x2
 2187 08d0 23        		.byte	0x23
 2188 08d1 01        		.uleb128 0x1
 2189 08d2 00        		.byte	0
 2190 08d3 0E        		.uleb128 0xe
 2191 08d4 02        		.byte	0x2
 2192 08d5 0B        		.byte	0xb
 2193 08d6 2908      		.word	0x829
 2194 08d8 EE08 0000 		.long	0x8ee
 2195 08dc 0F        		.uleb128 0xf
 2196 08dd 434E 5400 		.string	"CNT"
 2197 08e1 0B        		.byte	0xb
 2198 08e2 2908      		.word	0x829
 2199 08e4 1E01 0000 		.long	0x11e
 2200 08e8 10        		.uleb128 0x10
 2201 08e9 AB08 0000 		.long	0x8ab
 2202 08ed 00        		.byte	0
 2203 08ee 0D        		.uleb128 0xd
 2204 08ef 02        		.byte	0x2
 2205 08f0 0B        		.byte	0xb
 2206 08f1 2E08      		.word	0x82e
 2207 08f3 1609 0000 		.long	0x916
 2208 08f7 0A        		.uleb128 0xa
 2209 08f8 0000 0000 		.long	.LASF58
 2210 08fc 0B        		.byte	0xb
 2211 08fd 2E08      		.word	0x82e
 2212 08ff A600 0000 		.long	0xa6
 2213 0903 02        		.byte	0x2
 2214 0904 23        		.byte	0x23
 2215 0905 00        		.uleb128 0
 2216 0906 0A        		.uleb128 0xa
 2217 0907 0000 0000 		.long	.LASF59
 2218 090b 0B        		.byte	0xb
 2219 090c 2E08      		.word	0x82e
 2220 090e A600 0000 		.long	0xa6
 2221 0912 02        		.byte	0x2
 2222 0913 23        		.byte	0x23
 2223 0914 01        		.uleb128 0x1
GAS LISTING /tmp/ccwf6aFs.s 			page 81


 2224 0915 00        		.byte	0
 2225 0916 0E        		.uleb128 0xe
 2226 0917 02        		.byte	0x2
 2227 0918 0B        		.byte	0xb
 2228 0919 2E08      		.word	0x82e
 2229 091b 3109 0000 		.long	0x931
 2230 091f 0F        		.uleb128 0xf
 2231 0920 5045 5200 		.string	"PER"
 2232 0924 0B        		.byte	0xb
 2233 0925 2E08      		.word	0x82e
 2234 0927 1E01 0000 		.long	0x11e
 2235 092b 10        		.uleb128 0x10
 2236 092c EE08 0000 		.long	0x8ee
 2237 0930 00        		.byte	0
 2238 0931 0D        		.uleb128 0xd
 2239 0932 02        		.byte	0x2
 2240 0933 0B        		.byte	0xb
 2241 0934 2F08      		.word	0x82f
 2242 0936 5909 0000 		.long	0x959
 2243 093a 0A        		.uleb128 0xa
 2244 093b 0000 0000 		.long	.LASF60
 2245 093f 0B        		.byte	0xb
 2246 0940 2F08      		.word	0x82f
 2247 0942 A600 0000 		.long	0xa6
 2248 0946 02        		.byte	0x2
 2249 0947 23        		.byte	0x23
 2250 0948 00        		.uleb128 0
 2251 0949 0A        		.uleb128 0xa
 2252 094a 0000 0000 		.long	.LASF61
 2253 094e 0B        		.byte	0xb
 2254 094f 2F08      		.word	0x82f
 2255 0951 A600 0000 		.long	0xa6
 2256 0955 02        		.byte	0x2
 2257 0956 23        		.byte	0x23
 2258 0957 01        		.uleb128 0x1
 2259 0958 00        		.byte	0
 2260 0959 0E        		.uleb128 0xe
 2261 095a 02        		.byte	0x2
 2262 095b 0B        		.byte	0xb
 2263 095c 2F08      		.word	0x82f
 2264 095e 7409 0000 		.long	0x974
 2265 0962 0F        		.uleb128 0xf
 2266 0963 4343 4100 		.string	"CCA"
 2267 0967 0B        		.byte	0xb
 2268 0968 2F08      		.word	0x82f
 2269 096a 1E01 0000 		.long	0x11e
 2270 096e 10        		.uleb128 0x10
 2271 096f 3109 0000 		.long	0x931
 2272 0973 00        		.byte	0
 2273 0974 0D        		.uleb128 0xd
 2274 0975 02        		.byte	0x2
 2275 0976 0B        		.byte	0xb
 2276 0977 3008      		.word	0x830
 2277 0979 9C09 0000 		.long	0x99c
 2278 097d 0A        		.uleb128 0xa
 2279 097e 0000 0000 		.long	.LASF62
 2280 0982 0B        		.byte	0xb
GAS LISTING /tmp/ccwf6aFs.s 			page 82


 2281 0983 3008      		.word	0x830
 2282 0985 A600 0000 		.long	0xa6
 2283 0989 02        		.byte	0x2
 2284 098a 23        		.byte	0x23
 2285 098b 00        		.uleb128 0
 2286 098c 0A        		.uleb128 0xa
 2287 098d 0000 0000 		.long	.LASF63
 2288 0991 0B        		.byte	0xb
 2289 0992 3008      		.word	0x830
 2290 0994 A600 0000 		.long	0xa6
 2291 0998 02        		.byte	0x2
 2292 0999 23        		.byte	0x23
 2293 099a 01        		.uleb128 0x1
 2294 099b 00        		.byte	0
 2295 099c 0E        		.uleb128 0xe
 2296 099d 02        		.byte	0x2
 2297 099e 0B        		.byte	0xb
 2298 099f 3008      		.word	0x830
 2299 09a1 B709 0000 		.long	0x9b7
 2300 09a5 0F        		.uleb128 0xf
 2301 09a6 4343 4200 		.string	"CCB"
 2302 09aa 0B        		.byte	0xb
 2303 09ab 3008      		.word	0x830
 2304 09ad 1E01 0000 		.long	0x11e
 2305 09b1 10        		.uleb128 0x10
 2306 09b2 7409 0000 		.long	0x974
 2307 09b6 00        		.byte	0
 2308 09b7 0D        		.uleb128 0xd
 2309 09b8 02        		.byte	0x2
 2310 09b9 0B        		.byte	0xb
 2311 09ba 3B08      		.word	0x83b
 2312 09bc DF09 0000 		.long	0x9df
 2313 09c0 0A        		.uleb128 0xa
 2314 09c1 0000 0000 		.long	.LASF68
 2315 09c5 0B        		.byte	0xb
 2316 09c6 3B08      		.word	0x83b
 2317 09c8 A600 0000 		.long	0xa6
 2318 09cc 02        		.byte	0x2
 2319 09cd 23        		.byte	0x23
 2320 09ce 00        		.uleb128 0
 2321 09cf 0A        		.uleb128 0xa
 2322 09d0 0000 0000 		.long	.LASF69
 2323 09d4 0B        		.byte	0xb
 2324 09d5 3B08      		.word	0x83b
 2325 09d7 A600 0000 		.long	0xa6
 2326 09db 02        		.byte	0x2
 2327 09dc 23        		.byte	0x23
 2328 09dd 01        		.uleb128 0x1
 2329 09de 00        		.byte	0
 2330 09df 0E        		.uleb128 0xe
 2331 09e0 02        		.byte	0x2
 2332 09e1 0B        		.byte	0xb
 2333 09e2 3B08      		.word	0x83b
 2334 09e4 FA09 0000 		.long	0x9fa
 2335 09e8 11        		.uleb128 0x11
 2336 09e9 0000 0000 		.long	.LASF70
 2337 09ed 0B        		.byte	0xb
GAS LISTING /tmp/ccwf6aFs.s 			page 83


 2338 09ee 3B08      		.word	0x83b
 2339 09f0 1E01 0000 		.long	0x11e
 2340 09f4 10        		.uleb128 0x10
 2341 09f5 B709 0000 		.long	0x9b7
 2342 09f9 00        		.byte	0
 2343 09fa 0D        		.uleb128 0xd
 2344 09fb 02        		.byte	0x2
 2345 09fc 0B        		.byte	0xb
 2346 09fd 3C08      		.word	0x83c
 2347 09ff 220A 0000 		.long	0xa22
 2348 0a03 0A        		.uleb128 0xa
 2349 0a04 0000 0000 		.long	.LASF71
 2350 0a08 0B        		.byte	0xb
 2351 0a09 3C08      		.word	0x83c
 2352 0a0b A600 0000 		.long	0xa6
 2353 0a0f 02        		.byte	0x2
 2354 0a10 23        		.byte	0x23
 2355 0a11 00        		.uleb128 0
 2356 0a12 0A        		.uleb128 0xa
 2357 0a13 0000 0000 		.long	.LASF72
 2358 0a17 0B        		.byte	0xb
 2359 0a18 3C08      		.word	0x83c
 2360 0a1a A600 0000 		.long	0xa6
 2361 0a1e 02        		.byte	0x2
 2362 0a1f 23        		.byte	0x23
 2363 0a20 01        		.uleb128 0x1
 2364 0a21 00        		.byte	0
 2365 0a22 0E        		.uleb128 0xe
 2366 0a23 02        		.byte	0x2
 2367 0a24 0B        		.byte	0xb
 2368 0a25 3C08      		.word	0x83c
 2369 0a27 3D0A 0000 		.long	0xa3d
 2370 0a2b 11        		.uleb128 0x11
 2371 0a2c 0000 0000 		.long	.LASF73
 2372 0a30 0B        		.byte	0xb
 2373 0a31 3C08      		.word	0x83c
 2374 0a33 1E01 0000 		.long	0x11e
 2375 0a37 10        		.uleb128 0x10
 2376 0a38 FA09 0000 		.long	0x9fa
 2377 0a3c 00        		.byte	0
 2378 0a3d 0D        		.uleb128 0xd
 2379 0a3e 02        		.byte	0x2
 2380 0a3f 0B        		.byte	0xb
 2381 0a40 3D08      		.word	0x83d
 2382 0a42 650A 0000 		.long	0xa65
 2383 0a46 0A        		.uleb128 0xa
 2384 0a47 0000 0000 		.long	.LASF74
 2385 0a4b 0B        		.byte	0xb
 2386 0a4c 3D08      		.word	0x83d
 2387 0a4e A600 0000 		.long	0xa6
 2388 0a52 02        		.byte	0x2
 2389 0a53 23        		.byte	0x23
 2390 0a54 00        		.uleb128 0
 2391 0a55 0A        		.uleb128 0xa
 2392 0a56 0000 0000 		.long	.LASF75
 2393 0a5a 0B        		.byte	0xb
 2394 0a5b 3D08      		.word	0x83d
GAS LISTING /tmp/ccwf6aFs.s 			page 84


 2395 0a5d A600 0000 		.long	0xa6
 2396 0a61 02        		.byte	0x2
 2397 0a62 23        		.byte	0x23
 2398 0a63 01        		.uleb128 0x1
 2399 0a64 00        		.byte	0
 2400 0a65 0E        		.uleb128 0xe
 2401 0a66 02        		.byte	0x2
 2402 0a67 0B        		.byte	0xb
 2403 0a68 3D08      		.word	0x83d
 2404 0a6a 800A 0000 		.long	0xa80
 2405 0a6e 11        		.uleb128 0x11
 2406 0a6f 0000 0000 		.long	.LASF76
 2407 0a73 0B        		.byte	0xb
 2408 0a74 3D08      		.word	0x83d
 2409 0a76 1E01 0000 		.long	0x11e
 2410 0a7a 10        		.uleb128 0x10
 2411 0a7b 3D0A 0000 		.long	0xa3d
 2412 0a7f 00        		.byte	0
 2413 0a80 09        		.uleb128 0x9
 2414 0a81 0000 0000 		.long	.LASF125
 2415 0a85 3C        		.byte	0x3c
 2416 0a86 0B        		.byte	0xb
 2417 0a87 0708      		.word	0x807
 2418 0a89 780D 0000 		.long	0xd78
 2419 0a8d 0A        		.uleb128 0xa
 2420 0a8e 0000 0000 		.long	.LASF84
 2421 0a92 0B        		.byte	0xb
 2422 0a93 0908      		.word	0x809
 2423 0a95 A600 0000 		.long	0xa6
 2424 0a99 02        		.byte	0x2
 2425 0a9a 23        		.byte	0x23
 2426 0a9b 00        		.uleb128 0
 2427 0a9c 0A        		.uleb128 0xa
 2428 0a9d 0000 0000 		.long	.LASF85
 2429 0aa1 0B        		.byte	0xb
 2430 0aa2 0A08      		.word	0x80a
 2431 0aa4 A600 0000 		.long	0xa6
 2432 0aa8 02        		.byte	0x2
 2433 0aa9 23        		.byte	0x23
 2434 0aaa 01        		.uleb128 0x1
 2435 0aab 0A        		.uleb128 0xa
 2436 0aac 0000 0000 		.long	.LASF86
 2437 0ab0 0B        		.byte	0xb
 2438 0ab1 0B08      		.word	0x80b
 2439 0ab3 A600 0000 		.long	0xa6
 2440 0ab7 02        		.byte	0x2
 2441 0ab8 23        		.byte	0x23
 2442 0ab9 02        		.uleb128 0x2
 2443 0aba 0A        		.uleb128 0xa
 2444 0abb 0000 0000 		.long	.LASF87
 2445 0abf 0B        		.byte	0xb
 2446 0ac0 0C08      		.word	0x80c
 2447 0ac2 A600 0000 		.long	0xa6
 2448 0ac6 02        		.byte	0x2
 2449 0ac7 23        		.byte	0x23
 2450 0ac8 03        		.uleb128 0x3
 2451 0ac9 0A        		.uleb128 0xa
GAS LISTING /tmp/ccwf6aFs.s 			page 85


 2452 0aca 0000 0000 		.long	.LASF88
 2453 0ace 0B        		.byte	0xb
 2454 0acf 0D08      		.word	0x80d
 2455 0ad1 A600 0000 		.long	0xa6
 2456 0ad5 02        		.byte	0x2
 2457 0ad6 23        		.byte	0x23
 2458 0ad7 04        		.uleb128 0x4
 2459 0ad8 0A        		.uleb128 0xa
 2460 0ad9 0000 0000 		.long	.LASF89
 2461 0add 0B        		.byte	0xb
 2462 0ade 0E08      		.word	0x80e
 2463 0ae0 A600 0000 		.long	0xa6
 2464 0ae4 02        		.byte	0x2
 2465 0ae5 23        		.byte	0x23
 2466 0ae6 05        		.uleb128 0x5
 2467 0ae7 0A        		.uleb128 0xa
 2468 0ae8 0000 0000 		.long	.LASF90
 2469 0aec 0B        		.byte	0xb
 2470 0aed 0F08      		.word	0x80f
 2471 0aef A600 0000 		.long	0xa6
 2472 0af3 02        		.byte	0x2
 2473 0af4 23        		.byte	0x23
 2474 0af5 06        		.uleb128 0x6
 2475 0af6 0A        		.uleb128 0xa
 2476 0af7 0000 0000 		.long	.LASF91
 2477 0afb 0B        		.byte	0xb
 2478 0afc 1008      		.word	0x810
 2479 0afe A600 0000 		.long	0xa6
 2480 0b02 02        		.byte	0x2
 2481 0b03 23        		.byte	0x23
 2482 0b04 07        		.uleb128 0x7
 2483 0b05 0A        		.uleb128 0xa
 2484 0b06 0000 0000 		.long	.LASF92
 2485 0b0a 0B        		.byte	0xb
 2486 0b0b 1108      		.word	0x811
 2487 0b0d A600 0000 		.long	0xa6
 2488 0b11 02        		.byte	0x2
 2489 0b12 23        		.byte	0x23
 2490 0b13 08        		.uleb128 0x8
 2491 0b14 0A        		.uleb128 0xa
 2492 0b15 0000 0000 		.long	.LASF93
 2493 0b19 0B        		.byte	0xb
 2494 0b1a 1208      		.word	0x812
 2495 0b1c A600 0000 		.long	0xa6
 2496 0b20 02        		.byte	0x2
 2497 0b21 23        		.byte	0x23
 2498 0b22 09        		.uleb128 0x9
 2499 0b23 0A        		.uleb128 0xa
 2500 0b24 0000 0000 		.long	.LASF94
 2501 0b28 0B        		.byte	0xb
 2502 0b29 1308      		.word	0x813
 2503 0b2b A600 0000 		.long	0xa6
 2504 0b2f 02        		.byte	0x2
 2505 0b30 23        		.byte	0x23
 2506 0b31 0A        		.uleb128 0xa
 2507 0b32 0A        		.uleb128 0xa
 2508 0b33 0000 0000 		.long	.LASF95
GAS LISTING /tmp/ccwf6aFs.s 			page 86


 2509 0b37 0B        		.byte	0xb
 2510 0b38 1408      		.word	0x814
 2511 0b3a A600 0000 		.long	0xa6
 2512 0b3e 02        		.byte	0x2
 2513 0b3f 23        		.byte	0x23
 2514 0b40 0B        		.uleb128 0xb
 2515 0b41 0A        		.uleb128 0xa
 2516 0b42 0000 0000 		.long	.LASF33
 2517 0b46 0B        		.byte	0xb
 2518 0b47 1508      		.word	0x815
 2519 0b49 A600 0000 		.long	0xa6
 2520 0b4d 02        		.byte	0x2
 2521 0b4e 23        		.byte	0x23
 2522 0b4f 0C        		.uleb128 0xc
 2523 0b50 0A        		.uleb128 0xa
 2524 0b51 0000 0000 		.long	.LASF34
 2525 0b55 0B        		.byte	0xb
 2526 0b56 1608      		.word	0x816
 2527 0b58 A600 0000 		.long	0xa6
 2528 0b5c 02        		.byte	0x2
 2529 0b5d 23        		.byte	0x23
 2530 0b5e 0D        		.uleb128 0xd
 2531 0b5f 0A        		.uleb128 0xa
 2532 0b60 0000 0000 		.long	.LASF96
 2533 0b64 0B        		.byte	0xb
 2534 0b65 1708      		.word	0x817
 2535 0b67 A600 0000 		.long	0xa6
 2536 0b6b 02        		.byte	0x2
 2537 0b6c 23        		.byte	0x23
 2538 0b6d 0E        		.uleb128 0xe
 2539 0b6e 0A        		.uleb128 0xa
 2540 0b6f 0000 0000 		.long	.LASF97
 2541 0b73 0B        		.byte	0xb
 2542 0b74 1808      		.word	0x818
 2543 0b76 A600 0000 		.long	0xa6
 2544 0b7a 02        		.byte	0x2
 2545 0b7b 23        		.byte	0x23
 2546 0b7c 0F        		.uleb128 0xf
 2547 0b7d 0A        		.uleb128 0xa
 2548 0b7e 0000 0000 		.long	.LASF98
 2549 0b82 0B        		.byte	0xb
 2550 0b83 1908      		.word	0x819
 2551 0b85 A600 0000 		.long	0xa6
 2552 0b89 02        		.byte	0x2
 2553 0b8a 23        		.byte	0x23
 2554 0b8b 10        		.uleb128 0x10
 2555 0b8c 0A        		.uleb128 0xa
 2556 0b8d 0000 0000 		.long	.LASF99
 2557 0b91 0B        		.byte	0xb
 2558 0b92 1A08      		.word	0x81a
 2559 0b94 A600 0000 		.long	0xa6
 2560 0b98 02        		.byte	0x2
 2561 0b99 23        		.byte	0x23
 2562 0b9a 11        		.uleb128 0x11
 2563 0b9b 0A        		.uleb128 0xa
 2564 0b9c 0000 0000 		.long	.LASF100
 2565 0ba0 0B        		.byte	0xb
GAS LISTING /tmp/ccwf6aFs.s 			page 87


 2566 0ba1 1B08      		.word	0x81b
 2567 0ba3 A600 0000 		.long	0xa6
 2568 0ba7 02        		.byte	0x2
 2569 0ba8 23        		.byte	0x23
 2570 0ba9 12        		.uleb128 0x12
 2571 0baa 0A        		.uleb128 0xa
 2572 0bab 0000 0000 		.long	.LASF101
 2573 0baf 0B        		.byte	0xb
 2574 0bb0 1C08      		.word	0x81c
 2575 0bb2 A600 0000 		.long	0xa6
 2576 0bb6 02        		.byte	0x2
 2577 0bb7 23        		.byte	0x23
 2578 0bb8 13        		.uleb128 0x13
 2579 0bb9 0A        		.uleb128 0xa
 2580 0bba 0000 0000 		.long	.LASF102
 2581 0bbe 0B        		.byte	0xb
 2582 0bbf 1D08      		.word	0x81d
 2583 0bc1 A600 0000 		.long	0xa6
 2584 0bc5 02        		.byte	0x2
 2585 0bc6 23        		.byte	0x23
 2586 0bc7 14        		.uleb128 0x14
 2587 0bc8 0A        		.uleb128 0xa
 2588 0bc9 0000 0000 		.long	.LASF103
 2589 0bcd 0B        		.byte	0xb
 2590 0bce 1E08      		.word	0x81e
 2591 0bd0 A600 0000 		.long	0xa6
 2592 0bd4 02        		.byte	0x2
 2593 0bd5 23        		.byte	0x23
 2594 0bd6 15        		.uleb128 0x15
 2595 0bd7 0A        		.uleb128 0xa
 2596 0bd8 0000 0000 		.long	.LASF104
 2597 0bdc 0B        		.byte	0xb
 2598 0bdd 1F08      		.word	0x81f
 2599 0bdf A600 0000 		.long	0xa6
 2600 0be3 02        		.byte	0x2
 2601 0be4 23        		.byte	0x23
 2602 0be5 16        		.uleb128 0x16
 2603 0be6 0A        		.uleb128 0xa
 2604 0be7 0000 0000 		.long	.LASF105
 2605 0beb 0B        		.byte	0xb
 2606 0bec 2008      		.word	0x820
 2607 0bee A600 0000 		.long	0xa6
 2608 0bf2 02        		.byte	0x2
 2609 0bf3 23        		.byte	0x23
 2610 0bf4 17        		.uleb128 0x17
 2611 0bf5 0A        		.uleb128 0xa
 2612 0bf6 0000 0000 		.long	.LASF106
 2613 0bfa 0B        		.byte	0xb
 2614 0bfb 2108      		.word	0x821
 2615 0bfd A600 0000 		.long	0xa6
 2616 0c01 02        		.byte	0x2
 2617 0c02 23        		.byte	0x23
 2618 0c03 18        		.uleb128 0x18
 2619 0c04 0A        		.uleb128 0xa
 2620 0c05 0000 0000 		.long	.LASF107
 2621 0c09 0B        		.byte	0xb
 2622 0c0a 2208      		.word	0x822
GAS LISTING /tmp/ccwf6aFs.s 			page 88


 2623 0c0c A600 0000 		.long	0xa6
 2624 0c10 02        		.byte	0x2
 2625 0c11 23        		.byte	0x23
 2626 0c12 19        		.uleb128 0x19
 2627 0c13 0A        		.uleb128 0xa
 2628 0c14 0000 0000 		.long	.LASF108
 2629 0c18 0B        		.byte	0xb
 2630 0c19 2308      		.word	0x823
 2631 0c1b A600 0000 		.long	0xa6
 2632 0c1f 02        		.byte	0x2
 2633 0c20 23        		.byte	0x23
 2634 0c21 1A        		.uleb128 0x1a
 2635 0c22 0A        		.uleb128 0xa
 2636 0c23 0000 0000 		.long	.LASF109
 2637 0c27 0B        		.byte	0xb
 2638 0c28 2408      		.word	0x824
 2639 0c2a A600 0000 		.long	0xa6
 2640 0c2e 02        		.byte	0x2
 2641 0c2f 23        		.byte	0x23
 2642 0c30 1B        		.uleb128 0x1b
 2643 0c31 0A        		.uleb128 0xa
 2644 0c32 0000 0000 		.long	.LASF110
 2645 0c36 0B        		.byte	0xb
 2646 0c37 2508      		.word	0x825
 2647 0c39 A600 0000 		.long	0xa6
 2648 0c3d 02        		.byte	0x2
 2649 0c3e 23        		.byte	0x23
 2650 0c3f 1C        		.uleb128 0x1c
 2651 0c40 0A        		.uleb128 0xa
 2652 0c41 0000 0000 		.long	.LASF111
 2653 0c45 0B        		.byte	0xb
 2654 0c46 2608      		.word	0x826
 2655 0c48 A600 0000 		.long	0xa6
 2656 0c4c 02        		.byte	0x2
 2657 0c4d 23        		.byte	0x23
 2658 0c4e 1D        		.uleb128 0x1d
 2659 0c4f 0A        		.uleb128 0xa
 2660 0c50 0000 0000 		.long	.LASF112
 2661 0c54 0B        		.byte	0xb
 2662 0c55 2708      		.word	0x827
 2663 0c57 A600 0000 		.long	0xa6
 2664 0c5b 02        		.byte	0x2
 2665 0c5c 23        		.byte	0x23
 2666 0c5d 1E        		.uleb128 0x1e
 2667 0c5e 0A        		.uleb128 0xa
 2668 0c5f 0000 0000 		.long	.LASF113
 2669 0c63 0B        		.byte	0xb
 2670 0c64 2808      		.word	0x828
 2671 0c66 A600 0000 		.long	0xa6
 2672 0c6a 02        		.byte	0x2
 2673 0c6b 23        		.byte	0x23
 2674 0c6c 1F        		.uleb128 0x1f
 2675 0c6d 12        		.uleb128 0x12
 2676 0c6e D308 0000 		.long	0x8d3
 2677 0c72 02        		.byte	0x2
 2678 0c73 23        		.byte	0x23
 2679 0c74 20        		.uleb128 0x20
GAS LISTING /tmp/ccwf6aFs.s 			page 89


 2680 0c75 0A        		.uleb128 0xa
 2681 0c76 0000 0000 		.long	.LASF114
 2682 0c7a 0B        		.byte	0xb
 2683 0c7b 2A08      		.word	0x82a
 2684 0c7d A600 0000 		.long	0xa6
 2685 0c81 02        		.byte	0x2
 2686 0c82 23        		.byte	0x23
 2687 0c83 22        		.uleb128 0x22
 2688 0c84 0A        		.uleb128 0xa
 2689 0c85 0000 0000 		.long	.LASF115
 2690 0c89 0B        		.byte	0xb
 2691 0c8a 2B08      		.word	0x82b
 2692 0c8c A600 0000 		.long	0xa6
 2693 0c90 02        		.byte	0x2
 2694 0c91 23        		.byte	0x23
 2695 0c92 23        		.uleb128 0x23
 2696 0c93 0A        		.uleb128 0xa
 2697 0c94 0000 0000 		.long	.LASF116
 2698 0c98 0B        		.byte	0xb
 2699 0c99 2C08      		.word	0x82c
 2700 0c9b A600 0000 		.long	0xa6
 2701 0c9f 02        		.byte	0x2
 2702 0ca0 23        		.byte	0x23
 2703 0ca1 24        		.uleb128 0x24
 2704 0ca2 0A        		.uleb128 0xa
 2705 0ca3 0000 0000 		.long	.LASF117
 2706 0ca7 0B        		.byte	0xb
 2707 0ca8 2D08      		.word	0x82d
 2708 0caa A600 0000 		.long	0xa6
 2709 0cae 02        		.byte	0x2
 2710 0caf 23        		.byte	0x23
 2711 0cb0 25        		.uleb128 0x25
 2712 0cb1 12        		.uleb128 0x12
 2713 0cb2 1609 0000 		.long	0x916
 2714 0cb6 02        		.byte	0x2
 2715 0cb7 23        		.byte	0x23
 2716 0cb8 26        		.uleb128 0x26
 2717 0cb9 12        		.uleb128 0x12
 2718 0cba 5909 0000 		.long	0x959
 2719 0cbe 02        		.byte	0x2
 2720 0cbf 23        		.byte	0x23
 2721 0cc0 28        		.uleb128 0x28
 2722 0cc1 12        		.uleb128 0x12
 2723 0cc2 9C09 0000 		.long	0x99c
 2724 0cc6 02        		.byte	0x2
 2725 0cc7 23        		.byte	0x23
 2726 0cc8 2A        		.uleb128 0x2a
 2727 0cc9 0A        		.uleb128 0xa
 2728 0cca 0000 0000 		.long	.LASF126
 2729 0cce 0B        		.byte	0xb
 2730 0ccf 3108      		.word	0x831
 2731 0cd1 A600 0000 		.long	0xa6
 2732 0cd5 02        		.byte	0x2
 2733 0cd6 23        		.byte	0x23
 2734 0cd7 2C        		.uleb128 0x2c
 2735 0cd8 0A        		.uleb128 0xa
 2736 0cd9 0000 0000 		.long	.LASF127
GAS LISTING /tmp/ccwf6aFs.s 			page 90


 2737 0cdd 0B        		.byte	0xb
 2738 0cde 3208      		.word	0x832
 2739 0ce0 A600 0000 		.long	0xa6
 2740 0ce4 02        		.byte	0x2
 2741 0ce5 23        		.byte	0x23
 2742 0ce6 2D        		.uleb128 0x2d
 2743 0ce7 0A        		.uleb128 0xa
 2744 0ce8 0000 0000 		.long	.LASF128
 2745 0cec 0B        		.byte	0xb
 2746 0ced 3308      		.word	0x833
 2747 0cef A600 0000 		.long	0xa6
 2748 0cf3 02        		.byte	0x2
 2749 0cf4 23        		.byte	0x23
 2750 0cf5 2E        		.uleb128 0x2e
 2751 0cf6 0A        		.uleb128 0xa
 2752 0cf7 0000 0000 		.long	.LASF129
 2753 0cfb 0B        		.byte	0xb
 2754 0cfc 3408      		.word	0x834
 2755 0cfe A600 0000 		.long	0xa6
 2756 0d02 02        		.byte	0x2
 2757 0d03 23        		.byte	0x23
 2758 0d04 2F        		.uleb128 0x2f
 2759 0d05 0A        		.uleb128 0xa
 2760 0d06 0000 0000 		.long	.LASF118
 2761 0d0a 0B        		.byte	0xb
 2762 0d0b 3508      		.word	0x835
 2763 0d0d A600 0000 		.long	0xa6
 2764 0d11 02        		.byte	0x2
 2765 0d12 23        		.byte	0x23
 2766 0d13 30        		.uleb128 0x30
 2767 0d14 0A        		.uleb128 0xa
 2768 0d15 0000 0000 		.long	.LASF119
 2769 0d19 0B        		.byte	0xb
 2770 0d1a 3608      		.word	0x836
 2771 0d1c A600 0000 		.long	0xa6
 2772 0d20 02        		.byte	0x2
 2773 0d21 23        		.byte	0x23
 2774 0d22 31        		.uleb128 0x31
 2775 0d23 0A        		.uleb128 0xa
 2776 0d24 0000 0000 		.long	.LASF120
 2777 0d28 0B        		.byte	0xb
 2778 0d29 3708      		.word	0x837
 2779 0d2b A600 0000 		.long	0xa6
 2780 0d2f 02        		.byte	0x2
 2781 0d30 23        		.byte	0x23
 2782 0d31 32        		.uleb128 0x32
 2783 0d32 0A        		.uleb128 0xa
 2784 0d33 0000 0000 		.long	.LASF121
 2785 0d37 0B        		.byte	0xb
 2786 0d38 3808      		.word	0x838
 2787 0d3a A600 0000 		.long	0xa6
 2788 0d3e 02        		.byte	0x2
 2789 0d3f 23        		.byte	0x23
 2790 0d40 33        		.uleb128 0x33
 2791 0d41 0A        		.uleb128 0xa
 2792 0d42 0000 0000 		.long	.LASF122
 2793 0d46 0B        		.byte	0xb
GAS LISTING /tmp/ccwf6aFs.s 			page 91


 2794 0d47 3908      		.word	0x839
 2795 0d49 A600 0000 		.long	0xa6
 2796 0d4d 02        		.byte	0x2
 2797 0d4e 23        		.byte	0x23
 2798 0d4f 34        		.uleb128 0x34
 2799 0d50 0A        		.uleb128 0xa
 2800 0d51 0000 0000 		.long	.LASF123
 2801 0d55 0B        		.byte	0xb
 2802 0d56 3A08      		.word	0x83a
 2803 0d58 A600 0000 		.long	0xa6
 2804 0d5c 02        		.byte	0x2
 2805 0d5d 23        		.byte	0x23
 2806 0d5e 35        		.uleb128 0x35
 2807 0d5f 12        		.uleb128 0x12
 2808 0d60 DF09 0000 		.long	0x9df
 2809 0d64 02        		.byte	0x2
 2810 0d65 23        		.byte	0x23
 2811 0d66 36        		.uleb128 0x36
 2812 0d67 12        		.uleb128 0x12
 2813 0d68 220A 0000 		.long	0xa22
 2814 0d6c 02        		.byte	0x2
 2815 0d6d 23        		.byte	0x23
 2816 0d6e 38        		.uleb128 0x38
 2817 0d6f 12        		.uleb128 0x12
 2818 0d70 650A 0000 		.long	0xa65
 2819 0d74 02        		.byte	0x2
 2820 0d75 23        		.byte	0x23
 2821 0d76 3A        		.uleb128 0x3a
 2822 0d77 00        		.byte	0
 2823 0d78 0B        		.uleb128 0xb
 2824 0d79 0000 0000 		.long	.LASF130
 2825 0d7d 0B        		.byte	0xb
 2826 0d7e 3E08      		.word	0x83e
 2827 0d80 800A 0000 		.long	0xa80
 2828 0d84 07        		.uleb128 0x7
 2829 0d85 0000 0000 		.long	.LASF131
 2830 0d89 01        		.byte	0x1
 2831 0d8a 0B        		.byte	0xb
 2832 0d8b 4108      		.word	0x841
 2833 0d8d F20D 0000 		.long	0xdf2
 2834 0d91 08        		.uleb128 0x8
 2835 0d92 0000 0000 		.long	.LASF132
 2836 0d96 00        		.sleb128 0
 2837 0d97 08        		.uleb128 0x8
 2838 0d98 0000 0000 		.long	.LASF133
 2839 0d9c 01        		.sleb128 1
 2840 0d9d 08        		.uleb128 0x8
 2841 0d9e 0000 0000 		.long	.LASF134
 2842 0da2 02        		.sleb128 2
 2843 0da3 08        		.uleb128 0x8
 2844 0da4 0000 0000 		.long	.LASF135
 2845 0da8 03        		.sleb128 3
 2846 0da9 08        		.uleb128 0x8
 2847 0daa 0000 0000 		.long	.LASF136
 2848 0dae 04        		.sleb128 4
 2849 0daf 08        		.uleb128 0x8
 2850 0db0 0000 0000 		.long	.LASF137
GAS LISTING /tmp/ccwf6aFs.s 			page 92


 2851 0db4 05        		.sleb128 5
 2852 0db5 08        		.uleb128 0x8
 2853 0db6 0000 0000 		.long	.LASF138
 2854 0dba 06        		.sleb128 6
 2855 0dbb 08        		.uleb128 0x8
 2856 0dbc 0000 0000 		.long	.LASF139
 2857 0dc0 07        		.sleb128 7
 2858 0dc1 08        		.uleb128 0x8
 2859 0dc2 0000 0000 		.long	.LASF140
 2860 0dc6 08        		.sleb128 8
 2861 0dc7 08        		.uleb128 0x8
 2862 0dc8 0000 0000 		.long	.LASF141
 2863 0dcc 09        		.sleb128 9
 2864 0dcd 08        		.uleb128 0x8
 2865 0dce 0000 0000 		.long	.LASF142
 2866 0dd2 0A        		.sleb128 10
 2867 0dd3 08        		.uleb128 0x8
 2868 0dd4 0000 0000 		.long	.LASF143
 2869 0dd8 0B        		.sleb128 11
 2870 0dd9 08        		.uleb128 0x8
 2871 0dda 0000 0000 		.long	.LASF144
 2872 0dde 0C        		.sleb128 12
 2873 0ddf 08        		.uleb128 0x8
 2874 0de0 0000 0000 		.long	.LASF145
 2875 0de4 0D        		.sleb128 13
 2876 0de5 08        		.uleb128 0x8
 2877 0de6 0000 0000 		.long	.LASF146
 2878 0dea 0E        		.sleb128 14
 2879 0deb 08        		.uleb128 0x8
 2880 0dec 0000 0000 		.long	.LASF147
 2881 0df0 0F        		.sleb128 15
 2882 0df1 00        		.byte	0
 2883 0df2 0B        		.uleb128 0xb
 2884 0df3 0000 0000 		.long	.LASF148
 2885 0df7 0B        		.byte	0xb
 2886 0df8 5308      		.word	0x853
 2887 0dfa 840D 0000 		.long	0xd84
 2888 0dfe 07        		.uleb128 0x7
 2889 0dff 0000 0000 		.long	.LASF149
 2890 0e03 01        		.byte	0x1
 2891 0e04 0B        		.byte	0xb
 2892 0e05 5608      		.word	0x856
 2893 0e07 480E 0000 		.long	0xe48
 2894 0e0b 08        		.uleb128 0x8
 2895 0e0c 0000 0000 		.long	.LASF150
 2896 0e10 00        		.sleb128 0
 2897 0e11 08        		.uleb128 0x8
 2898 0e12 0000 0000 		.long	.LASF151
 2899 0e16 01        		.sleb128 1
 2900 0e17 08        		.uleb128 0x8
 2901 0e18 0000 0000 		.long	.LASF152
 2902 0e1c 03        		.sleb128 3
 2903 0e1d 08        		.uleb128 0x8
 2904 0e1e 0000 0000 		.long	.LASF153
 2905 0e22 03        		.sleb128 3
 2906 0e23 08        		.uleb128 0x8
 2907 0e24 0000 0000 		.long	.LASF154
GAS LISTING /tmp/ccwf6aFs.s 			page 93


 2908 0e28 05        		.sleb128 5
 2909 0e29 08        		.uleb128 0x8
 2910 0e2a 0000 0000 		.long	.LASF155
 2911 0e2e 05        		.sleb128 5
 2912 0e2f 08        		.uleb128 0x8
 2913 0e30 0000 0000 		.long	.LASF156
 2914 0e34 06        		.sleb128 6
 2915 0e35 08        		.uleb128 0x8
 2916 0e36 0000 0000 		.long	.LASF157
 2917 0e3a 06        		.sleb128 6
 2918 0e3b 08        		.uleb128 0x8
 2919 0e3c 0000 0000 		.long	.LASF158
 2920 0e40 07        		.sleb128 7
 2921 0e41 08        		.uleb128 0x8
 2922 0e42 0000 0000 		.long	.LASF159
 2923 0e46 07        		.sleb128 7
 2924 0e47 00        		.byte	0
 2925 0e48 09        		.uleb128 0x9
 2926 0e49 0000 0000 		.long	.LASF160
 2927 0e4d 08        		.byte	0x8
 2928 0e4e 0B        		.byte	0xb
 2929 0e4f A309      		.word	0x9a3
 2930 0e51 CE0E 0000 		.long	0xece
 2931 0e55 0A        		.uleb128 0xa
 2932 0e56 0000 0000 		.long	.LASF161
 2933 0e5a 0B        		.byte	0xb
 2934 0e5b A509      		.word	0x9a5
 2935 0e5d A600 0000 		.long	0xa6
 2936 0e61 02        		.byte	0x2
 2937 0e62 23        		.byte	0x23
 2938 0e63 00        		.uleb128 0
 2939 0e64 0A        		.uleb128 0xa
 2940 0e65 0000 0000 		.long	.LASF18
 2941 0e69 0B        		.byte	0xb
 2942 0e6a A609      		.word	0x9a6
 2943 0e6c A600 0000 		.long	0xa6
 2944 0e70 02        		.byte	0x2
 2945 0e71 23        		.byte	0x23
 2946 0e72 01        		.uleb128 0x1
 2947 0e73 0A        		.uleb128 0xa
 2948 0e74 0000 0000 		.long	.LASF162
 2949 0e78 0B        		.byte	0xb
 2950 0e79 A709      		.word	0x9a7
 2951 0e7b A600 0000 		.long	0xa6
 2952 0e7f 02        		.byte	0x2
 2953 0e80 23        		.byte	0x23
 2954 0e81 02        		.uleb128 0x2
 2955 0e82 0A        		.uleb128 0xa
 2956 0e83 0000 0000 		.long	.LASF84
 2957 0e87 0B        		.byte	0xb
 2958 0e88 A809      		.word	0x9a8
 2959 0e8a A600 0000 		.long	0xa6
 2960 0e8e 02        		.byte	0x2
 2961 0e8f 23        		.byte	0x23
 2962 0e90 03        		.uleb128 0x3
 2963 0e91 0A        		.uleb128 0xa
 2964 0e92 0000 0000 		.long	.LASF85
GAS LISTING /tmp/ccwf6aFs.s 			page 94


 2965 0e96 0B        		.byte	0xb
 2966 0e97 A909      		.word	0x9a9
 2967 0e99 A600 0000 		.long	0xa6
 2968 0e9d 02        		.byte	0x2
 2969 0e9e 23        		.byte	0x23
 2970 0e9f 04        		.uleb128 0x4
 2971 0ea0 0A        		.uleb128 0xa
 2972 0ea1 0000 0000 		.long	.LASF86
 2973 0ea5 0B        		.byte	0xb
 2974 0ea6 AA09      		.word	0x9aa
 2975 0ea8 A600 0000 		.long	0xa6
 2976 0eac 02        		.byte	0x2
 2977 0ead 23        		.byte	0x23
 2978 0eae 05        		.uleb128 0x5
 2979 0eaf 0A        		.uleb128 0xa
 2980 0eb0 0000 0000 		.long	.LASF163
 2981 0eb4 0B        		.byte	0xb
 2982 0eb5 AB09      		.word	0x9ab
 2983 0eb7 A600 0000 		.long	0xa6
 2984 0ebb 02        		.byte	0x2
 2985 0ebc 23        		.byte	0x23
 2986 0ebd 06        		.uleb128 0x6
 2987 0ebe 0A        		.uleb128 0xa
 2988 0ebf 0000 0000 		.long	.LASF164
 2989 0ec3 0B        		.byte	0xb
 2990 0ec4 AC09      		.word	0x9ac
 2991 0ec6 A600 0000 		.long	0xa6
 2992 0eca 02        		.byte	0x2
 2993 0ecb 23        		.byte	0x23
 2994 0ecc 07        		.uleb128 0x7
 2995 0ecd 00        		.byte	0
 2996 0ece 0B        		.uleb128 0xb
 2997 0ecf 0000 0000 		.long	.LASF165
 2998 0ed3 0B        		.byte	0xb
 2999 0ed4 AD09      		.word	0x9ad
 3000 0ed6 480E 0000 		.long	0xe48
 3001 0eda 07        		.uleb128 0x7
 3002 0edb 0000 0000 		.long	.LASF166
 3003 0edf 01        		.byte	0x1
 3004 0ee0 0B        		.byte	0xb
 3005 0ee1 CB09      		.word	0x9cb
 3006 0ee3 060F 0000 		.long	0xf06
 3007 0ee7 08        		.uleb128 0x8
 3008 0ee8 0000 0000 		.long	.LASF167
 3009 0eec 00        		.sleb128 0
 3010 0eed 08        		.uleb128 0x8
 3011 0eee 0000 0000 		.long	.LASF168
 3012 0ef2 01        		.sleb128 1
 3013 0ef3 08        		.uleb128 0x8
 3014 0ef4 0000 0000 		.long	.LASF169
 3015 0ef8 02        		.sleb128 2
 3016 0ef9 08        		.uleb128 0x8
 3017 0efa 0000 0000 		.long	.LASF170
 3018 0efe 03        		.sleb128 3
 3019 0eff 08        		.uleb128 0x8
 3020 0f00 0000 0000 		.long	.LASF171
 3021 0f04 07        		.sleb128 7
GAS LISTING /tmp/ccwf6aFs.s 			page 95


 3022 0f05 00        		.byte	0
 3023 0f06 0B        		.uleb128 0xb
 3024 0f07 0000 0000 		.long	.LASF172
 3025 0f0b 0B        		.byte	0xb
 3026 0f0c D209      		.word	0x9d2
 3027 0f0e DA0E 0000 		.long	0xeda
 3028 0f12 07        		.uleb128 0x7
 3029 0f13 0000 0000 		.long	.LASF173
 3030 0f17 01        		.byte	0x1
 3031 0f18 0B        		.byte	0xb
 3032 0f19 DE09      		.word	0x9de
 3033 0f1b 320F 0000 		.long	0xf32
 3034 0f1f 08        		.uleb128 0x8
 3035 0f20 0000 0000 		.long	.LASF174
 3036 0f24 00        		.sleb128 0
 3037 0f25 08        		.uleb128 0x8
 3038 0f26 0000 0000 		.long	.LASF175
 3039 0f2a 20        		.sleb128 32
 3040 0f2b 08        		.uleb128 0x8
 3041 0f2c 0000 0000 		.long	.LASF176
 3042 0f30 30        		.sleb128 48
 3043 0f31 00        		.byte	0
 3044 0f32 0B        		.uleb128 0xb
 3045 0f33 0000 0000 		.long	.LASF177
 3046 0f37 0B        		.byte	0xb
 3047 0f38 E309      		.word	0x9e3
 3048 0f3a 120F 0000 		.long	0xf12
 3049 0f3e 09        		.uleb128 0x9
 3050 0f3f 0000 0000 		.long	.LASF178
 3051 0f43 04        		.byte	0x4
 3052 0f44 0B        		.byte	0xb
 3053 0f45 ED09      		.word	0x9ed
 3054 0f47 880F 0000 		.long	0xf88
 3055 0f4b 0A        		.uleb128 0xa
 3056 0f4c 0000 0000 		.long	.LASF20
 3057 0f50 0B        		.byte	0xb
 3058 0f51 EF09      		.word	0x9ef
 3059 0f53 A600 0000 		.long	0xa6
 3060 0f57 02        		.byte	0x2
 3061 0f58 23        		.byte	0x23
 3062 0f59 00        		.uleb128 0
 3063 0f5a 0A        		.uleb128 0xa
 3064 0f5b 0000 0000 		.long	.LASF30
 3065 0f5f 0B        		.byte	0xb
 3066 0f60 F009      		.word	0x9f0
 3067 0f62 A600 0000 		.long	0xa6
 3068 0f66 02        		.byte	0x2
 3069 0f67 23        		.byte	0x23
 3070 0f68 01        		.uleb128 0x1
 3071 0f69 0A        		.uleb128 0xa
 3072 0f6a 0000 0000 		.long	.LASF18
 3073 0f6e 0B        		.byte	0xb
 3074 0f6f F109      		.word	0x9f1
 3075 0f71 A600 0000 		.long	0xa6
 3076 0f75 02        		.byte	0x2
 3077 0f76 23        		.byte	0x23
 3078 0f77 02        		.uleb128 0x2
GAS LISTING /tmp/ccwf6aFs.s 			page 96


 3079 0f78 0A        		.uleb128 0xa
 3080 0f79 0000 0000 		.long	.LASF161
 3081 0f7d 0B        		.byte	0xb
 3082 0f7e F209      		.word	0x9f2
 3083 0f80 A600 0000 		.long	0xa6
 3084 0f84 02        		.byte	0x2
 3085 0f85 23        		.byte	0x23
 3086 0f86 03        		.uleb128 0x3
 3087 0f87 00        		.byte	0
 3088 0f88 0B        		.uleb128 0xb
 3089 0f89 0000 0000 		.long	.LASF179
 3090 0f8d 0B        		.byte	0xb
 3091 0f8e F309      		.word	0x9f3
 3092 0f90 3E0F 0000 		.long	0xf3e
 3093 0f94 02        		.uleb128 0x2
 3094 0f95 02        		.byte	0x2
 3095 0f96 05        		.byte	0x5
 3096 0f97 0000 0000 		.long	.LASF180
 3097 0f9b 02        		.uleb128 0x2
 3098 0f9c 02        		.byte	0x2
 3099 0f9d 07        		.byte	0x7
 3100 0f9e 0000 0000 		.long	.LASF181
 3101 0fa2 02        		.uleb128 0x2
 3102 0fa3 04        		.byte	0x4
 3103 0fa4 04        		.byte	0x4
 3104 0fa5 0000 0000 		.long	.LASF182
 3105 0fa9 02        		.uleb128 0x2
 3106 0faa 04        		.byte	0x4
 3107 0fab 04        		.byte	0x4
 3108 0fac 0000 0000 		.long	.LASF183
 3109 0fb0 07        		.uleb128 0x7
 3110 0fb1 0000 0000 		.long	.LASF184
 3111 0fb5 01        		.byte	0x1
 3112 0fb6 0C        		.byte	0xc
 3113 0fb7 6401      		.word	0x164
 3114 0fb9 E80F 0000 		.long	0xfe8
 3115 0fbd 08        		.uleb128 0x8
 3116 0fbe 0000 0000 		.long	.LASF185
 3117 0fc2 00        		.sleb128 0
 3118 0fc3 08        		.uleb128 0x8
 3119 0fc4 0000 0000 		.long	.LASF186
 3120 0fc8 01        		.sleb128 1
 3121 0fc9 08        		.uleb128 0x8
 3122 0fca 0000 0000 		.long	.LASF187
 3123 0fce 02        		.sleb128 2
 3124 0fcf 08        		.uleb128 0x8
 3125 0fd0 0000 0000 		.long	.LASF188
 3126 0fd4 03        		.sleb128 3
 3127 0fd5 08        		.uleb128 0x8
 3128 0fd6 0000 0000 		.long	.LASF189
 3129 0fda 04        		.sleb128 4
 3130 0fdb 08        		.uleb128 0x8
 3131 0fdc 0000 0000 		.long	.LASF190
 3132 0fe0 05        		.sleb128 5
 3133 0fe1 08        		.uleb128 0x8
 3134 0fe2 0000 0000 		.long	.LASF191
 3135 0fe6 06        		.sleb128 6
GAS LISTING /tmp/ccwf6aFs.s 			page 97


 3136 0fe7 00        		.byte	0
 3137 0fe8 03        		.uleb128 0x3
 3138 0fe9 0000 0000 		.long	.LASF192
 3139 0fed 03        		.byte	0x3
 3140 0fee 74        		.byte	0x74
 3141 0fef 2C00 0000 		.long	0x2c
 3142 0ff3 03        		.uleb128 0x3
 3143 0ff4 0000 0000 		.long	.LASF193
 3144 0ff8 03        		.byte	0x3
 3145 0ff9 75        		.byte	0x75
 3146 0ffa 2C00 0000 		.long	0x2c
 3147 0ffe 03        		.uleb128 0x3
 3148 0fff 0000 0000 		.long	.LASF194
 3149 1003 03        		.byte	0x3
 3150 1004 76        		.byte	0x76
 3151 1005 2C00 0000 		.long	0x2c
 3152 1009 03        		.uleb128 0x3
 3153 100a 0000 0000 		.long	.LASF195
 3154 100e 0D        		.byte	0xd
 3155 100f 3D        		.byte	0x3d
 3156 1010 2C00 0000 		.long	0x2c
 3157 1014 13        		.uleb128 0x13
 3158 1015 0000 0000 		.long	.LASF196
 3159 1019 01        		.byte	0x1
 3160 101a 05        		.byte	0x5
 3161 101b 46        		.byte	0x46
 3162 101c 3910 0000 		.long	0x1039
 3163 1020 08        		.uleb128 0x8
 3164 1021 0000 0000 		.long	.LASF197
 3165 1025 01        		.sleb128 1
 3166 1026 08        		.uleb128 0x8
 3167 1027 0000 0000 		.long	.LASF198
 3168 102b 02        		.sleb128 2
 3169 102c 08        		.uleb128 0x8
 3170 102d 0000 0000 		.long	.LASF199
 3171 1031 04        		.sleb128 4
 3172 1032 08        		.uleb128 0x8
 3173 1033 0000 0000 		.long	.LASF200
 3174 1037 07        		.sleb128 7
 3175 1038 00        		.byte	0
 3176 1039 13        		.uleb128 0x13
 3177 103a 0000 0000 		.long	.LASF201
 3178 103e 01        		.byte	0x1
 3179 103f 0E        		.byte	0xe
 3180 1040 4F        		.byte	0x4f
 3181 1041 9510 0000 		.long	0x1095
 3182 1045 08        		.uleb128 0x8
 3183 1046 0000 0000 		.long	.LASF202
 3184 104a 00        		.sleb128 0
 3185 104b 08        		.uleb128 0x8
 3186 104c 0000 0000 		.long	.LASF203
 3187 1050 7F        		.sleb128 -1
 3188 1051 08        		.uleb128 0x8
 3189 1052 0000 0000 		.long	.LASF204
 3190 1056 7E        		.sleb128 -2
 3191 1057 08        		.uleb128 0x8
 3192 1058 0000 0000 		.long	.LASF205
GAS LISTING /tmp/ccwf6aFs.s 			page 98


 3193 105c 7D        		.sleb128 -3
 3194 105d 08        		.uleb128 0x8
 3195 105e 0000 0000 		.long	.LASF206
 3196 1062 7C        		.sleb128 -4
 3197 1063 08        		.uleb128 0x8
 3198 1064 0000 0000 		.long	.LASF207
 3199 1068 7B        		.sleb128 -5
 3200 1069 08        		.uleb128 0x8
 3201 106a 0000 0000 		.long	.LASF208
 3202 106e 7A        		.sleb128 -6
 3203 106f 08        		.uleb128 0x8
 3204 1070 0000 0000 		.long	.LASF209
 3205 1074 79        		.sleb128 -7
 3206 1075 08        		.uleb128 0x8
 3207 1076 0000 0000 		.long	.LASF210
 3208 107a 78        		.sleb128 -8
 3209 107b 08        		.uleb128 0x8
 3210 107c 0000 0000 		.long	.LASF211
 3211 1080 77        		.sleb128 -9
 3212 1081 08        		.uleb128 0x8
 3213 1082 0000 0000 		.long	.LASF212
 3214 1086 76        		.sleb128 -10
 3215 1087 08        		.uleb128 0x8
 3216 1088 0000 0000 		.long	.LASF213
 3217 108c 75        		.sleb128 -11
 3218 108d 08        		.uleb128 0x8
 3219 108e 0000 0000 		.long	.LASF214
 3220 1092 807F      		.sleb128 -128
 3221 1094 00        		.byte	0
 3222 1095 14        		.uleb128 0x14
 3223 1096 0000 0000 		.long	.LASF215
 3224 109a 01        		.byte	0x1
 3225 109b 0F        		.byte	0xf
 3226 109c 72        		.byte	0x72
 3227 109d AF10 0000 		.long	0x10af
 3228 10a1 15        		.uleb128 0x15
 3229 10a2 6964 00   		.string	"id"
 3230 10a5 0F        		.byte	0xf
 3231 10a6 74        		.byte	0x74
 3232 10a7 0910 0000 		.long	0x1009
 3233 10ab 02        		.byte	0x2
 3234 10ac 23        		.byte	0x23
 3235 10ad 00        		.uleb128 0
 3236 10ae 00        		.byte	0
 3237 10af 14        		.uleb128 0x14
 3238 10b0 0000 0000 		.long	.LASF216
 3239 10b4 07        		.byte	0x7
 3240 10b5 07        		.byte	0x7
 3241 10b6 72        		.byte	0x72
 3242 10b7 F410 0000 		.long	0x10f4
 3243 10bb 16        		.uleb128 0x16
 3244 10bc 0000 0000 		.long	.LASF217
 3245 10c0 07        		.byte	0x7
 3246 10c1 74        		.byte	0x74
 3247 10c2 5E00 0000 		.long	0x5e
 3248 10c6 02        		.byte	0x2
 3249 10c7 23        		.byte	0x23
GAS LISTING /tmp/ccwf6aFs.s 			page 99


 3250 10c8 00        		.uleb128 0
 3251 10c9 16        		.uleb128 0x16
 3252 10ca 0000 0000 		.long	.LASF218
 3253 10ce 07        		.byte	0x7
 3254 10cf 77        		.byte	0x77
 3255 10d0 060F 0000 		.long	0xf06
 3256 10d4 02        		.byte	0x2
 3257 10d5 23        		.byte	0x23
 3258 10d6 04        		.uleb128 0x4
 3259 10d7 16        		.uleb128 0x16
 3260 10d8 0000 0000 		.long	.LASF219
 3261 10dc 07        		.byte	0x7
 3262 10dd 7B        		.byte	0x7b
 3263 10de 320F 0000 		.long	0xf32
 3264 10e2 02        		.byte	0x2
 3265 10e3 23        		.byte	0x23
 3266 10e4 05        		.uleb128 0x5
 3267 10e5 16        		.uleb128 0x16
 3268 10e6 0000 0000 		.long	.LASF220
 3269 10ea 07        		.byte	0x7
 3270 10eb 80        		.byte	0x80
 3271 10ec F410 0000 		.long	0x10f4
 3272 10f0 02        		.byte	0x2
 3273 10f1 23        		.byte	0x23
 3274 10f2 06        		.uleb128 0x6
 3275 10f3 00        		.byte	0
 3276 10f4 02        		.uleb128 0x2
 3277 10f5 01        		.byte	0x1
 3278 10f6 02        		.byte	0x2
 3279 10f7 0000 0000 		.long	.LASF221
 3280 10fb 03        		.uleb128 0x3
 3281 10fc 0000 0000 		.long	.LASF222
 3282 1100 07        		.byte	0x7
 3283 1101 82        		.byte	0x82
 3284 1102 AF10 0000 		.long	0x10af
 3285 1106 13        		.uleb128 0x13
 3286 1107 0000 0000 		.long	.LASF223
 3287 110b 01        		.byte	0x1
 3288 110c 07        		.byte	0x7
 3289 110d 90        		.byte	0x90
 3290 110e 2B11 0000 		.long	0x112b
 3291 1112 08        		.uleb128 0x8
 3292 1113 0000 0000 		.long	.LASF224
 3293 1117 00        		.sleb128 0
 3294 1118 08        		.uleb128 0x8
 3295 1119 0000 0000 		.long	.LASF225
 3296 111d 01        		.sleb128 1
 3297 111e 08        		.uleb128 0x8
 3298 111f 0000 0000 		.long	.LASF226
 3299 1123 02        		.sleb128 2
 3300 1124 08        		.uleb128 0x8
 3301 1125 0000 0000 		.long	.LASF227
 3302 1129 03        		.sleb128 3
 3303 112a 00        		.byte	0
 3304 112b 03        		.uleb128 0x3
 3305 112c 0000 0000 		.long	.LASF228
 3306 1130 02        		.byte	0x2
GAS LISTING /tmp/ccwf6aFs.s 			page 100


 3307 1131 3A        		.byte	0x3a
 3308 1132 FB10 0000 		.long	0x10fb
 3309 1136 03        		.uleb128 0x3
 3310 1137 0000 0000 		.long	.LASF229
 3311 113b 02        		.byte	0x2
 3312 113c 3C        		.byte	0x3c
 3313 113d 4111 0000 		.long	0x1141
 3314 1141 05        		.uleb128 0x5
 3315 1142 02        		.byte	0x2
 3316 1143 CE0E 0000 		.long	0xece
 3317 1147 05        		.uleb128 0x5
 3318 1148 02        		.byte	0x2
 3319 1149 4D11 0000 		.long	0x114d
 3320 114d 17        		.uleb128 0x17
 3321 114e 01        		.byte	0x1
 3322 114f 13        		.uleb128 0x13
 3323 1150 0000 0000 		.long	.LASF230
 3324 1154 01        		.byte	0x1
 3325 1155 09        		.byte	0x9
 3326 1156 78        		.byte	0x78
 3327 1157 8011 0000 		.long	0x1180
 3328 115b 08        		.uleb128 0x8
 3329 115c 0000 0000 		.long	.LASF231
 3330 1160 00        		.sleb128 0
 3331 1161 08        		.uleb128 0x8
 3332 1162 0000 0000 		.long	.LASF232
 3333 1166 01        		.sleb128 1
 3334 1167 08        		.uleb128 0x8
 3335 1168 0000 0000 		.long	.LASF233
 3336 116c 03        		.sleb128 3
 3337 116d 08        		.uleb128 0x8
 3338 116e 0000 0000 		.long	.LASF234
 3339 1172 05        		.sleb128 5
 3340 1173 08        		.uleb128 0x8
 3341 1174 0000 0000 		.long	.LASF235
 3342 1178 06        		.sleb128 6
 3343 1179 08        		.uleb128 0x8
 3344 117a 0000 0000 		.long	.LASF236
 3345 117e 07        		.sleb128 7
 3346 117f 00        		.byte	0
 3347 1180 13        		.uleb128 0x13
 3348 1181 0000 0000 		.long	.LASF237
 3349 1185 01        		.byte	0x1
 3350 1186 09        		.byte	0x9
 3351 1187 88        		.byte	0x88
 3352 1188 A511 0000 		.long	0x11a5
 3353 118c 08        		.uleb128 0x8
 3354 118d 0000 0000 		.long	.LASF238
 3355 1191 00        		.sleb128 0
 3356 1192 08        		.uleb128 0x8
 3357 1193 0000 0000 		.long	.LASF239
 3358 1197 01        		.sleb128 1
 3359 1198 08        		.uleb128 0x8
 3360 1199 0000 0000 		.long	.LASF240
 3361 119d 02        		.sleb128 2
 3362 119e 08        		.uleb128 0x8
 3363 119f 0000 0000 		.long	.LASF241
GAS LISTING /tmp/ccwf6aFs.s 			page 101


 3364 11a3 03        		.sleb128 3
 3365 11a4 00        		.byte	0
 3366 11a5 05        		.uleb128 0x5
 3367 11a6 02        		.byte	0x2
 3368 11a7 2C00 0000 		.long	0x2c
 3369 11ab 18        		.uleb128 0x18
 3370 11ac 01        		.byte	0x1
 3371 11ad 10        		.byte	0x10
 3372 11ae 07        		.byte	0x7
 3373 11af D811 0000 		.long	0x11d8
 3374 11b3 08        		.uleb128 0x8
 3375 11b4 0000 0000 		.long	.LASF242
 3376 11b8 00        		.sleb128 0
 3377 11b9 08        		.uleb128 0x8
 3378 11ba 0000 0000 		.long	.LASF243
 3379 11be 01        		.sleb128 1
 3380 11bf 08        		.uleb128 0x8
 3381 11c0 0000 0000 		.long	.LASF244
 3382 11c4 02        		.sleb128 2
 3383 11c5 08        		.uleb128 0x8
 3384 11c6 0000 0000 		.long	.LASF245
 3385 11ca 03        		.sleb128 3
 3386 11cb 08        		.uleb128 0x8
 3387 11cc 0000 0000 		.long	.LASF246
 3388 11d0 04        		.sleb128 4
 3389 11d1 08        		.uleb128 0x8
 3390 11d2 0000 0000 		.long	.LASF247
 3391 11d6 05        		.sleb128 5
 3392 11d7 00        		.byte	0
 3393 11d8 18        		.uleb128 0x18
 3394 11d9 01        		.byte	0x1
 3395 11da 11        		.byte	0x11
 3396 11db 07        		.byte	0x7
 3397 11dc 0B12 0000 		.long	0x120b
 3398 11e0 08        		.uleb128 0x8
 3399 11e1 0000 0000 		.long	.LASF248
 3400 11e5 10        		.sleb128 16
 3401 11e6 08        		.uleb128 0x8
 3402 11e7 0000 0000 		.long	.LASF249
 3403 11eb 11        		.sleb128 17
 3404 11ec 08        		.uleb128 0x8
 3405 11ed 0000 0000 		.long	.LASF250
 3406 11f1 12        		.sleb128 18
 3407 11f2 08        		.uleb128 0x8
 3408 11f3 0000 0000 		.long	.LASF251
 3409 11f7 13        		.sleb128 19
 3410 11f8 08        		.uleb128 0x8
 3411 11f9 0000 0000 		.long	.LASF252
 3412 11fd 14        		.sleb128 20
 3413 11fe 08        		.uleb128 0x8
 3414 11ff 0000 0000 		.long	.LASF253
 3415 1203 15        		.sleb128 21
 3416 1204 08        		.uleb128 0x8
 3417 1205 0000 0000 		.long	.LASF254
 3418 1209 16        		.sleb128 22
 3419 120a 00        		.byte	0
 3420 120b 19        		.uleb128 0x19
GAS LISTING /tmp/ccwf6aFs.s 			page 102


 3421 120c 0000 0000 		.long	.LASF255
 3422 1210 03        		.byte	0x3
 3423 1211 78        		.byte	0x78
 3424 1212 01        		.byte	0x1
 3425 1213 F30F 0000 		.long	0xff3
 3426 1217 03        		.byte	0x3
 3427 1218 2812 0000 		.long	0x1228
 3428 121c 1A        		.uleb128 0x1a
 3429 121d 7069 6E00 		.string	"pin"
 3430 1221 03        		.byte	0x3
 3431 1222 78        		.byte	0x78
 3432 1223 E80F 0000 		.long	0xfe8
 3433 1227 00        		.byte	0
 3434 1228 19        		.uleb128 0x19
 3435 1229 0000 0000 		.long	.LASF256
 3436 122d 03        		.byte	0x3
 3437 122e 7D        		.byte	0x7d
 3438 122f 01        		.byte	0x1
 3439 1230 4512 0000 		.long	0x1245
 3440 1234 03        		.byte	0x3
 3441 1235 4512 0000 		.long	0x1245
 3442 1239 1B        		.uleb128 0x1b
 3443 123a 0000 0000 		.long	.LASF257
 3444 123e 03        		.byte	0x3
 3445 123f 7D        		.byte	0x7d
 3446 1240 F30F 0000 		.long	0xff3
 3447 1244 00        		.byte	0
 3448 1245 05        		.uleb128 0x5
 3449 1246 02        		.byte	0x2
 3450 1247 9802 0000 		.long	0x298
 3451 124b 19        		.uleb128 0x19
 3452 124c 0000 0000 		.long	.LASF258
 3453 1250 03        		.byte	0x3
 3454 1251 83        		.byte	0x83
 3455 1252 01        		.byte	0x1
 3456 1253 4512 0000 		.long	0x1245
 3457 1257 03        		.byte	0x3
 3458 1258 6812 0000 		.long	0x1268
 3459 125c 1A        		.uleb128 0x1a
 3460 125d 7069 6E00 		.string	"pin"
 3461 1261 03        		.byte	0x3
 3462 1262 83        		.byte	0x83
 3463 1263 E80F 0000 		.long	0xfe8
 3464 1267 00        		.byte	0
 3465 1268 19        		.uleb128 0x19
 3466 1269 0000 0000 		.long	.LASF259
 3467 126d 03        		.byte	0x3
 3468 126e 88        		.byte	0x88
 3469 126f 01        		.byte	0x1
 3470 1270 FE0F 0000 		.long	0xffe
 3471 1274 03        		.byte	0x3
 3472 1275 8512 0000 		.long	0x1285
 3473 1279 1A        		.uleb128 0x1a
 3474 127a 7069 6E00 		.string	"pin"
 3475 127e 03        		.byte	0x3
 3476 127f 88        		.byte	0x88
 3477 1280 E80F 0000 		.long	0xfe8
GAS LISTING /tmp/ccwf6aFs.s 			page 103


 3478 1284 00        		.byte	0
 3479 1285 1C        		.uleb128 0x1c
 3480 1286 0000 0000 		.long	.LASF266
 3481 128a 03        		.byte	0x3
 3482 128b FD        		.byte	0xfd
 3483 128c 01        		.byte	0x1
 3484 128d 03        		.byte	0x3
 3485 128e B512 0000 		.long	0x12b5
 3486 1292 1A        		.uleb128 0x1a
 3487 1293 7069 6E00 		.string	"pin"
 3488 1297 03        		.byte	0x3
 3489 1298 FD        		.byte	0xfd
 3490 1299 E80F 0000 		.long	0xfe8
 3491 129d 1B        		.uleb128 0x1b
 3492 129e 0000 0000 		.long	.LASF260
 3493 12a2 03        		.byte	0x3
 3494 12a3 FE        		.byte	0xfe
 3495 12a4 F410 0000 		.long	0x10f4
 3496 12a8 1D        		.uleb128 0x1d
 3497 12a9 0000 0000 		.long	.LASF262
 3498 12ad 03        		.byte	0x3
 3499 12ae 0001      		.word	0x100
 3500 12b0 4512 0000 		.long	0x1245
 3501 12b4 00        		.byte	0
 3502 12b5 1E        		.uleb128 0x1e
 3503 12b6 0000 0000 		.long	.LASF261
 3504 12ba 03        		.byte	0x3
 3505 12bb 1201      		.word	0x112
 3506 12bd 01        		.byte	0x1
 3507 12be F410 0000 		.long	0x10f4
 3508 12c2 03        		.byte	0x3
 3509 12c3 E012 0000 		.long	0x12e0
 3510 12c7 1F        		.uleb128 0x1f
 3511 12c8 7069 6E00 		.string	"pin"
 3512 12cc 03        		.byte	0x3
 3513 12cd 1201      		.word	0x112
 3514 12cf E80F 0000 		.long	0xfe8
 3515 12d3 1D        		.uleb128 0x1d
 3516 12d4 0000 0000 		.long	.LASF262
 3517 12d8 03        		.byte	0x3
 3518 12d9 1401      		.word	0x114
 3519 12db 4512 0000 		.long	0x1245
 3520 12df 00        		.byte	0
 3521 12e0 19        		.uleb128 0x19
 3522 12e1 0000 0000 		.long	.LASF263
 3523 12e5 02        		.byte	0x2
 3524 12e6 46        		.byte	0x46
 3525 12e7 01        		.byte	0x1
 3526 12e8 F410 0000 		.long	0x10f4
 3527 12ec 03        		.byte	0x3
 3528 12ed 1313 0000 		.long	0x1313
 3529 12f1 1B        		.uleb128 0x1b
 3530 12f2 0000 0000 		.long	.LASF264
 3531 12f6 02        		.byte	0x2
 3532 12f7 46        		.byte	0x46
 3533 12f8 3611 0000 		.long	0x1136
 3534 12fc 1B        		.uleb128 0x1b
GAS LISTING /tmp/ccwf6aFs.s 			page 104


 3535 12fd 0000 0000 		.long	.LASF265
 3536 1301 02        		.byte	0x2
 3537 1302 47        		.byte	0x47
 3538 1303 1313 0000 		.long	0x1313
 3539 1307 20        		.uleb128 0x20
 3540 1308 0000 0000 		.long	.LASF216
 3541 130c 02        		.byte	0x2
 3542 130d 4A        		.byte	0x4a
 3543 130e FB10 0000 		.long	0x10fb
 3544 1312 00        		.byte	0
 3545 1313 05        		.uleb128 0x5
 3546 1314 02        		.byte	0x2
 3547 1315 1913 0000 		.long	0x1319
 3548 1319 21        		.uleb128 0x21
 3549 131a 2B11 0000 		.long	0x112b
 3550 131e 1C        		.uleb128 0x1c
 3551 131f 0000 0000 		.long	.LASF267
 3552 1323 0D        		.byte	0xd
 3553 1324 DC        		.byte	0xdc
 3554 1325 01        		.byte	0x1
 3555 1326 03        		.byte	0x3
 3556 1327 3713 0000 		.long	0x1337
 3557 132b 1A        		.uleb128 0x1a
 3558 132c 7069 6E00 		.string	"pin"
 3559 1330 0D        		.byte	0xd
 3560 1331 DC        		.byte	0xdc
 3561 1332 0910 0000 		.long	0x1009
 3562 1336 00        		.byte	0
 3563 1337 1C        		.uleb128 0x1c
 3564 1338 0000 0000 		.long	.LASF268
 3565 133c 04        		.byte	0x4
 3566 133d 51        		.byte	0x51
 3567 133e 01        		.byte	0x1
 3568 133f 03        		.byte	0x3
 3569 1340 5013 0000 		.long	0x1350
 3570 1344 1A        		.uleb128 0x1a
 3571 1345 7370 6900 		.string	"spi"
 3572 1349 04        		.byte	0x4
 3573 134a 51        		.byte	0x51
 3574 134b 5013 0000 		.long	0x1350
 3575 134f 00        		.byte	0
 3576 1350 05        		.uleb128 0x5
 3577 1351 02        		.byte	0x2
 3578 1352 880F 0000 		.long	0xf88
 3579 1356 22        		.uleb128 0x22
 3580 1357 0000 0000 		.long	.LASF272
 3581 135b 05        		.byte	0x5
 3582 135c 65        		.byte	0x65
 3583 135d 01        		.byte	0x1
 3584 135e 03        		.byte	0x3
 3585 135f 1C        		.uleb128 0x1c
 3586 1360 0000 0000 		.long	.LASF269
 3587 1364 06        		.byte	0x6
 3588 1365 56        		.byte	0x56
 3589 1366 01        		.byte	0x1
 3590 1367 03        		.byte	0x3
 3591 1368 8313 0000 		.long	0x1383
GAS LISTING /tmp/ccwf6aFs.s 			page 105


 3592 136c 1B        		.uleb128 0x1b
 3593 136d 0000 0000 		.long	.LASF264
 3594 1371 06        		.byte	0x6
 3595 1372 56        		.byte	0x56
 3596 1373 8313 0000 		.long	0x1383
 3597 1377 1A        		.uleb128 0x1a
 3598 1378 6F70 7400 		.string	"opt"
 3599 137c 06        		.byte	0x6
 3600 137d 56        		.byte	0x56
 3601 137e 1313 0000 		.long	0x1313
 3602 1382 00        		.byte	0
 3603 1383 05        		.uleb128 0x5
 3604 1384 02        		.byte	0x2
 3605 1385 8913 0000 		.long	0x1389
 3606 1389 23        		.uleb128 0x23
 3607 138a 1C        		.uleb128 0x1c
 3608 138b 0000 0000 		.long	.LASF270
 3609 138f 07        		.byte	0x7
 3610 1390 D8        		.byte	0xd8
 3611 1391 01        		.byte	0x1
 3612 1392 03        		.byte	0x3
 3613 1393 AE13 0000 		.long	0x13ae
 3614 1397 1B        		.uleb128 0x1b
 3615 1398 0000 0000 		.long	.LASF264
 3616 139c 07        		.byte	0x7
 3617 139d D8        		.byte	0xd8
 3618 139e 4111 0000 		.long	0x1141
 3619 13a2 1B        		.uleb128 0x1b
 3620 13a3 0000 0000 		.long	.LASF260
 3621 13a7 07        		.byte	0x7
 3622 13a8 D9        		.byte	0xd9
 3623 13a9 0611 0000 		.long	0x1106
 3624 13ad 00        		.byte	0
 3625 13ae 1E        		.uleb128 0x1e
 3626 13af 0000 0000 		.long	.LASF271
 3627 13b3 12        		.byte	0x12
 3628 13b4 1601      		.word	0x116
 3629 13b6 01        		.byte	0x1
 3630 13b7 F410 0000 		.long	0x10f4
 3631 13bb 03        		.byte	0x3
 3632 13bc CD13 0000 		.long	0x13cd
 3633 13c0 1F        		.uleb128 0x1f
 3634 13c1 7069 6E00 		.string	"pin"
 3635 13c5 12        		.byte	0x12
 3636 13c6 1601      		.word	0x116
 3637 13c8 E80F 0000 		.long	0xfe8
 3638 13cc 00        		.byte	0
 3639 13cd 22        		.uleb128 0x22
 3640 13ce 0000 0000 		.long	.LASF273
 3641 13d2 08        		.byte	0x8
 3642 13d3 B2        		.byte	0xb2
 3643 13d4 01        		.byte	0x1
 3644 13d5 03        		.byte	0x3
 3645 13d6 1C        		.uleb128 0x1c
 3646 13d7 0000 0000 		.long	.LASF274
 3647 13db 07        		.byte	0x7
 3648 13dc 9C        		.byte	0x9c
GAS LISTING /tmp/ccwf6aFs.s 			page 106


 3649 13dd 01        		.byte	0x1
 3650 13de 03        		.byte	0x3
 3651 13df EF13 0000 		.long	0x13ef
 3652 13e3 1B        		.uleb128 0x1b
 3653 13e4 0000 0000 		.long	.LASF264
 3654 13e8 07        		.byte	0x7
 3655 13e9 9C        		.byte	0x9c
 3656 13ea 4111 0000 		.long	0x1141
 3657 13ee 00        		.byte	0
 3658 13ef 24        		.uleb128 0x24
 3659 13f0 0000 0000 		.long	.LASF275
 3660 13f4 09        		.byte	0x9
 3661 13f5 E603      		.word	0x3e6
 3662 13f7 01        		.byte	0x1
 3663 13f8 03        		.byte	0x3
 3664 13f9 1514 0000 		.long	0x1415
 3665 13fd 1F        		.uleb128 0x1f
 3666 13fe 7463 00   		.string	"tc"
 3667 1401 09        		.byte	0x9
 3668 1402 E603      		.word	0x3e6
 3669 1404 8313 0000 		.long	0x1383
 3670 1408 1F        		.uleb128 0x1f
 3671 1409 7767 6D00 		.string	"wgm"
 3672 140d 09        		.byte	0x9
 3673 140e E603      		.word	0x3e6
 3674 1410 4F11 0000 		.long	0x114f
 3675 1414 00        		.byte	0
 3676 1415 24        		.uleb128 0x24
 3677 1416 0000 0000 		.long	.LASF276
 3678 141a 09        		.byte	0x9
 3679 141b F601      		.word	0x1f6
 3680 141d 01        		.byte	0x1
 3681 141e 03        		.byte	0x3
 3682 141f 3B14 0000 		.long	0x143b
 3683 1423 1F        		.uleb128 0x1f
 3684 1424 7463 00   		.string	"tc"
 3685 1427 09        		.byte	0x9
 3686 1428 F601      		.word	0x1f6
 3687 142a 8313 0000 		.long	0x1383
 3688 142e 25        		.uleb128 0x25
 3689 142f 0000 0000 		.long	.LASF277
 3690 1433 09        		.byte	0x9
 3691 1434 F601      		.word	0x1f6
 3692 1436 4500 0000 		.long	0x45
 3693 143a 00        		.byte	0
 3694 143b 24        		.uleb128 0x24
 3695 143c 0000 0000 		.long	.LASF278
 3696 1440 09        		.byte	0x9
 3697 1441 5F01      		.word	0x15f
 3698 1443 01        		.byte	0x1
 3699 1444 03        		.byte	0x3
 3700 1445 6114 0000 		.long	0x1461
 3701 1449 1F        		.uleb128 0x1f
 3702 144a 7463 00   		.string	"tc"
 3703 144d 09        		.byte	0x9
 3704 144e 5F01      		.word	0x15f
 3705 1450 8313 0000 		.long	0x1383
GAS LISTING /tmp/ccwf6aFs.s 			page 107


 3706 1454 25        		.uleb128 0x25
 3707 1455 0000 0000 		.long	.LASF131
 3708 1459 09        		.byte	0x9
 3709 145a 6001      		.word	0x160
 3710 145c F20D 0000 		.long	0xdf2
 3711 1460 00        		.byte	0
 3712 1461 24        		.uleb128 0x24
 3713 1462 0000 0000 		.long	.LASF279
 3714 1466 09        		.byte	0x9
 3715 1467 0301      		.word	0x103
 3716 1469 01        		.byte	0x1
 3717 146a 03        		.byte	0x3
 3718 146b 8714 0000 		.long	0x1487
 3719 146f 1F        		.uleb128 0x1f
 3720 1470 7463 00   		.string	"tc"
 3721 1473 09        		.byte	0x9
 3722 1474 0301      		.word	0x103
 3723 1476 8313 0000 		.long	0x1383
 3724 147a 25        		.uleb128 0x25
 3725 147b 0000 0000 		.long	.LASF260
 3726 147f 09        		.byte	0x9
 3727 1480 0401      		.word	0x104
 3728 1482 8011 0000 		.long	0x1180
 3729 1486 00        		.byte	0
 3730 1487 26        		.uleb128 0x26
 3731 1488 0000 0000 		.long	.LASF280
 3732 148c 01        		.byte	0x1
 3733 148d 30        		.byte	0x30
 3734 148e 01        		.byte	0x1
 3735 148f 0000 0000 		.long	.LFB261
 3736 1493 0000 0000 		.long	.LFE261
 3737 1497 03        		.byte	0x3
 3738 1498 92        		.byte	0x92
 3739 1499 20        		.uleb128 0x20
 3740 149a 02        		.sleb128 2
 3741 149b 26        		.uleb128 0x26
 3742 149c 0000 0000 		.long	.LASF281
 3743 14a0 01        		.byte	0x1
 3744 14a1 26        		.byte	0x26
 3745 14a2 01        		.byte	0x1
 3746 14a3 0000 0000 		.long	.LFB260
 3747 14a7 0000 0000 		.long	.LFE260
 3748 14ab 03        		.byte	0x3
 3749 14ac 92        		.byte	0x92
 3750 14ad 20        		.uleb128 0x20
 3751 14ae 02        		.sleb128 2
 3752 14af 27        		.uleb128 0x27
 3753 14b0 0000 0000 		.long	.LASF312
 3754 14b4 02        		.byte	0x2
 3755 14b5 91        		.byte	0x91
 3756 14b6 01        		.byte	0x1
 3757 14b7 0000 0000 		.long	.LFB177
 3758 14bb 0000 0000 		.long	.LFE177
 3759 14bf 0000 0000 		.long	.LLST0
 3760 14c3 E614 0000 		.long	0x14e6
 3761 14c7 28        		.uleb128 0x28
 3762 14c8 0000 0000 		.long	.LASF264
GAS LISTING /tmp/ccwf6aFs.s 			page 108


 3763 14cc 02        		.byte	0x2
 3764 14cd 91        		.byte	0x91
 3765 14ce 3611 0000 		.long	0x1136
 3766 14d2 0000 0000 		.long	.LLST1
 3767 14d6 28        		.uleb128 0x28
 3768 14d7 0000 0000 		.long	.LASF282
 3769 14db 02        		.byte	0x2
 3770 14dc 91        		.byte	0x91
 3771 14dd A511 0000 		.long	0x11a5
 3772 14e1 0000 0000 		.long	.LLST2
 3773 14e5 00        		.byte	0
 3774 14e6 29        		.uleb128 0x29
 3775 14e7 0000 0000 		.long	.LASF313
 3776 14eb 02        		.byte	0x2
 3777 14ec 87        		.byte	0x87
 3778 14ed 01        		.byte	0x1
 3779 14ee 3910 0000 		.long	0x1039
 3780 14f2 0000 0000 		.long	.LFB176
 3781 14f6 0000 0000 		.long	.LFE176
 3782 14fa 03        		.byte	0x3
 3783 14fb 92        		.byte	0x92
 3784 14fc 20        		.uleb128 0x20
 3785 14fd 02        		.sleb128 2
 3786 14fe 1F15 0000 		.long	0x151f
 3787 1502 28        		.uleb128 0x28
 3788 1503 0000 0000 		.long	.LASF264
 3789 1507 02        		.byte	0x2
 3790 1508 87        		.byte	0x87
 3791 1509 3611 0000 		.long	0x1136
 3792 150d 0000 0000 		.long	.LLST3
 3793 1511 2A        		.uleb128 0x2a
 3794 1512 6300      		.string	"c"
 3795 1514 02        		.byte	0x2
 3796 1515 87        		.byte	0x87
 3797 1516 2C00 0000 		.long	0x2c
 3798 151a 0000 0000 		.long	.LLST4
 3799 151e 00        		.byte	0
 3800 151f 2B        		.uleb128 0x2b
 3801 1520 01        		.byte	0x1
 3802 1521 0000 0000 		.long	.LASF285
 3803 1525 01        		.byte	0x1
 3804 1526 3E        		.byte	0x3e
 3805 1527 01        		.byte	0x1
 3806 1528 0000 0000 		.long	.LFB262
 3807 152c 0000 0000 		.long	.LFE262
 3808 1530 0000 0000 		.long	.LLST5
 3809 1534 BF15 0000 		.long	0x15bf
 3810 1538 2C        		.uleb128 0x2c
 3811 1539 1E13 0000 		.long	0x131e
 3812 153d 0000 0000 		.long	.LBB154
 3813 1541 0000 0000 		.long	.LBE154
 3814 1545 01        		.byte	0x1
 3815 1546 40        		.byte	0x40
 3816 1547 7D15 0000 		.long	0x157d
 3817 154b 2D        		.uleb128 0x2d
 3818 154c 2B13 0000 		.long	0x132b
 3819 1550 14        		.byte	0x14
GAS LISTING /tmp/ccwf6aFs.s 			page 109


 3820 1551 2E        		.uleb128 0x2e
 3821 1552 8512 0000 		.long	0x1285
 3822 1556 0000 0000 		.long	.LBB155
 3823 155a 0000 0000 		.long	.LBE155
 3824 155e 0D        		.byte	0xd
 3825 155f DE        		.byte	0xde
 3826 1560 2D        		.uleb128 0x2d
 3827 1561 9D12 0000 		.long	0x129d
 3828 1565 00        		.byte	0
 3829 1566 2D        		.uleb128 0x2d
 3830 1567 9212 0000 		.long	0x1292
 3831 156b 14        		.byte	0x14
 3832 156c 2F        		.uleb128 0x2f
 3833 156d 0000 0000 		.long	.LBB156
 3834 1571 0000 0000 		.long	.LBE156
 3835 1575 30        		.uleb128 0x30
 3836 1576 A812 0000 		.long	0x12a8
 3837 157a 00        		.byte	0
 3838 157b 00        		.byte	0
 3839 157c 00        		.byte	0
 3840 157d 2E        		.uleb128 0x2e
 3841 157e 1E13 0000 		.long	0x131e
 3842 1582 0000 0000 		.long	.LBB157
 3843 1586 0000 0000 		.long	.LBE157
 3844 158a 01        		.byte	0x1
 3845 158b 41        		.byte	0x41
 3846 158c 2D        		.uleb128 0x2d
 3847 158d 2B13 0000 		.long	0x132b
 3848 1591 16        		.byte	0x16
 3849 1592 2E        		.uleb128 0x2e
 3850 1593 8512 0000 		.long	0x1285
 3851 1597 0000 0000 		.long	.LBB158
 3852 159b 0000 0000 		.long	.LBE158
 3853 159f 0D        		.byte	0xd
 3854 15a0 DE        		.byte	0xde
 3855 15a1 2D        		.uleb128 0x2d
 3856 15a2 9D12 0000 		.long	0x129d
 3857 15a6 00        		.byte	0
 3858 15a7 2D        		.uleb128 0x2d
 3859 15a8 9212 0000 		.long	0x1292
 3860 15ac 16        		.byte	0x16
 3861 15ad 2F        		.uleb128 0x2f
 3862 15ae 0000 0000 		.long	.LBB159
 3863 15b2 0000 0000 		.long	.LBE159
 3864 15b6 30        		.uleb128 0x30
 3865 15b7 A812 0000 		.long	0x12a8
 3866 15bb 00        		.byte	0
 3867 15bc 00        		.byte	0
 3868 15bd 00        		.byte	0
 3869 15be 00        		.byte	0
 3870 15bf 31        		.uleb128 0x31
 3871 15c0 01        		.byte	0x1
 3872 15c1 0000 0000 		.long	.LASF283
 3873 15c5 01        		.byte	0x1
 3874 15c6 44        		.byte	0x44
 3875 15c7 01        		.byte	0x1
 3876 15c8 0000 0000 		.long	.LFB263
GAS LISTING /tmp/ccwf6aFs.s 			page 110


 3877 15cc 0000 0000 		.long	.LFE263
 3878 15d0 0000 0000 		.long	.LLST6
 3879 15d4 32        		.uleb128 0x32
 3880 15d5 01        		.byte	0x1
 3881 15d6 0000 0000 		.long	.LASF284
 3882 15da 01        		.byte	0x1
 3883 15db 4B        		.byte	0x4b
 3884 15dc 01        		.byte	0x1
 3885 15dd 0000 0000 		.long	.LFB264
 3886 15e1 0000 0000 		.long	.LFE264
 3887 15e5 03        		.byte	0x3
 3888 15e6 92        		.byte	0x92
 3889 15e7 20        		.uleb128 0x20
 3890 15e8 02        		.sleb128 2
 3891 15e9 2B        		.uleb128 0x2b
 3892 15ea 01        		.byte	0x1
 3893 15eb 0000 0000 		.long	.LASF286
 3894 15ef 01        		.byte	0x1
 3895 15f0 53        		.byte	0x53
 3896 15f1 01        		.byte	0x1
 3897 15f2 0000 0000 		.long	.LFB265
 3898 15f6 0000 0000 		.long	.LFE265
 3899 15fa 0000 0000 		.long	.LLST7
 3900 15fe 1A16 0000 		.long	0x161a
 3901 1602 2E        		.uleb128 0x2e
 3902 1603 3713 0000 		.long	0x1337
 3903 1607 0000 0000 		.long	.LBB160
 3904 160b 0000 0000 		.long	.LBE160
 3905 160f 01        		.byte	0x1
 3906 1610 57        		.byte	0x57
 3907 1611 33        		.uleb128 0x33
 3908 1612 4413 0000 		.long	0x1344
 3909 1616 C008      		.word	0x8c0
 3910 1618 00        		.byte	0
 3911 1619 00        		.byte	0
 3912 161a 34        		.uleb128 0x34
 3913 161b 01        		.byte	0x1
 3914 161c 0000 0000 		.long	.LASF314
 3915 1620 01        		.byte	0x1
 3916 1621 5B        		.byte	0x5b
 3917 1622 01        		.byte	0x1
 3918 1623 3E00 0000 		.long	0x3e
 3919 1627 0000 0000 		.long	.LFB266
 3920 162b 0000 0000 		.long	.LFE266
 3921 162f 0000 0000 		.long	.LLST8
 3922 1633 5D19 0000 		.long	0x195d
 3923 1637 35        		.uleb128 0x35
 3924 1638 0000 0000 		.long	.LASF287
 3925 163c 01        		.byte	0x1
 3926 163d 62        		.byte	0x62
 3927 163e AF10 0000 		.long	0x10af
 3928 1642 02        		.byte	0x2
 3929 1643 8C        		.byte	0x8c
 3930 1644 01        		.sleb128 1
 3931 1645 36        		.uleb128 0x36
 3932 1646 5613 0000 		.long	0x1356
 3933 164a 0000 0000 		.long	.LBB162
GAS LISTING /tmp/ccwf6aFs.s 			page 111


 3934 164e 0000 0000 		.long	.LBE162
 3935 1652 01        		.byte	0x1
 3936 1653 5E        		.byte	0x5e
 3937 1654 2C        		.uleb128 0x2c
 3938 1655 5F13 0000 		.long	0x135f
 3939 1659 0000 0000 		.long	.LBB164
 3940 165d 0000 0000 		.long	.LBE164
 3941 1661 01        		.byte	0x1
 3942 1662 68        		.byte	0x68
 3943 1663 AA16 0000 		.long	0x16aa
 3944 1667 37        		.uleb128 0x37
 3945 1668 7713 0000 		.long	0x1377
 3946 166c 03        		.byte	0x3
 3947 166d 91        		.byte	0x91
 3948 166e 6F        		.sleb128 -17
 3949 166f 9F        		.byte	0x9f
 3950 1670 33        		.uleb128 0x33
 3951 1671 6C13 0000 		.long	0x136c
 3952 1675 A00A      		.word	0xaa0
 3953 1677 2E        		.uleb128 0x2e
 3954 1678 E012 0000 		.long	0x12e0
 3955 167c 0000 0000 		.long	.LBB166
 3956 1680 0000 0000 		.long	.LBE166
 3957 1684 06        		.byte	0x6
 3958 1685 5C        		.byte	0x5c
 3959 1686 33        		.uleb128 0x33
 3960 1687 F112 0000 		.long	0x12f1
 3961 168b A00A      		.word	0xaa0
 3962 168d 37        		.uleb128 0x37
 3963 168e FC12 0000 		.long	0x12fc
 3964 1692 03        		.byte	0x3
 3965 1693 91        		.byte	0x91
 3966 1694 6F        		.sleb128 -17
 3967 1695 9F        		.byte	0x9f
 3968 1696 2F        		.uleb128 0x2f
 3969 1697 0000 0000 		.long	.LBB167
 3970 169b 0000 0000 		.long	.LBE167
 3971 169f 38        		.uleb128 0x38
 3972 16a0 0713 0000 		.long	0x1307
 3973 16a4 02        		.byte	0x2
 3974 16a5 8C        		.byte	0x8c
 3975 16a6 08        		.sleb128 8
 3976 16a7 00        		.byte	0
 3977 16a8 00        		.byte	0
 3978 16a9 00        		.byte	0
 3979 16aa 2C        		.uleb128 0x2c
 3980 16ab 8A13 0000 		.long	0x138a
 3981 16af 0000 0000 		.long	.LBB168
 3982 16b3 0000 0000 		.long	.LBE168
 3983 16b7 01        		.byte	0x1
 3984 16b8 70        		.byte	0x70
 3985 16b9 CB16 0000 		.long	0x16cb
 3986 16bd 2D        		.uleb128 0x2d
 3987 16be A213 0000 		.long	0x13a2
 3988 16c2 02        		.byte	0x2
 3989 16c3 33        		.uleb128 0x33
 3990 16c4 9713 0000 		.long	0x1397
GAS LISTING /tmp/ccwf6aFs.s 			page 112


 3991 16c8 A008      		.word	0x8a0
 3992 16ca 00        		.byte	0
 3993 16cb 2C        		.uleb128 0x2c
 3994 16cc AE13 0000 		.long	0x13ae
 3995 16d0 0000 0000 		.long	.LBB170
 3996 16d4 0000 0000 		.long	.LBE170
 3997 16d8 01        		.byte	0x1
 3998 16d9 7D        		.byte	0x7d
 3999 16da 0E17 0000 		.long	0x170e
 4000 16de 2D        		.uleb128 0x2d
 4001 16df C013 0000 		.long	0x13c0
 4002 16e3 08        		.byte	0x8
 4003 16e4 39        		.uleb128 0x39
 4004 16e5 B512 0000 		.long	0x12b5
 4005 16e9 0000 0000 		.long	.LBB171
 4006 16ed 0000 0000 		.long	.LBE171
 4007 16f1 12        		.byte	0x12
 4008 16f2 1801      		.word	0x118
 4009 16f4 3A        		.uleb128 0x3a
 4010 16f5 C712 0000 		.long	0x12c7
 4011 16f9 0000 0000 		.long	.LLST9
 4012 16fd 2F        		.uleb128 0x2f
 4013 16fe 0000 0000 		.long	.LBB172
 4014 1702 0000 0000 		.long	.LBE172
 4015 1706 30        		.uleb128 0x30
 4016 1707 D312 0000 		.long	0x12d3
 4017 170b 00        		.byte	0
 4018 170c 00        		.byte	0
 4019 170d 00        		.byte	0
 4020 170e 2C        		.uleb128 0x2c
 4021 170f AE13 0000 		.long	0x13ae
 4022 1713 0000 0000 		.long	.LBB173
 4023 1717 0000 0000 		.long	.LBE173
 4024 171b 01        		.byte	0x1
 4025 171c 81        		.byte	0x81
 4026 171d 5117 0000 		.long	0x1751
 4027 1721 2D        		.uleb128 0x2d
 4028 1722 C013 0000 		.long	0x13c0
 4029 1726 09        		.byte	0x9
 4030 1727 39        		.uleb128 0x39
 4031 1728 B512 0000 		.long	0x12b5
 4032 172c 0000 0000 		.long	.LBB174
 4033 1730 0000 0000 		.long	.LBE174
 4034 1734 12        		.byte	0x12
 4035 1735 1801      		.word	0x118
 4036 1737 3A        		.uleb128 0x3a
 4037 1738 C712 0000 		.long	0x12c7
 4038 173c 0000 0000 		.long	.LLST9
 4039 1740 2F        		.uleb128 0x2f
 4040 1741 0000 0000 		.long	.LBB175
 4041 1745 0000 0000 		.long	.LBE175
 4042 1749 30        		.uleb128 0x30
 4043 174a D312 0000 		.long	0x12d3
 4044 174e 00        		.byte	0
 4045 174f 00        		.byte	0
 4046 1750 00        		.byte	0
 4047 1751 2C        		.uleb128 0x2c
GAS LISTING /tmp/ccwf6aFs.s 			page 113


 4048 1752 AE13 0000 		.long	0x13ae
 4049 1756 0000 0000 		.long	.LBB176
 4050 175a 0000 0000 		.long	.LBE176
 4051 175e 01        		.byte	0x1
 4052 175f 85        		.byte	0x85
 4053 1760 9417 0000 		.long	0x1794
 4054 1764 2D        		.uleb128 0x2d
 4055 1765 C013 0000 		.long	0x13c0
 4056 1769 0A        		.byte	0xa
 4057 176a 39        		.uleb128 0x39
 4058 176b B512 0000 		.long	0x12b5
 4059 176f 0000 0000 		.long	.LBB177
 4060 1773 0000 0000 		.long	.LBE177
 4061 1777 12        		.byte	0x12
 4062 1778 1801      		.word	0x118
 4063 177a 3A        		.uleb128 0x3a
 4064 177b C712 0000 		.long	0x12c7
 4065 177f 0000 0000 		.long	.LLST9
 4066 1783 2F        		.uleb128 0x2f
 4067 1784 0000 0000 		.long	.LBB178
 4068 1788 0000 0000 		.long	.LBE178
 4069 178c 30        		.uleb128 0x30
 4070 178d D312 0000 		.long	0x12d3
 4071 1791 00        		.byte	0
 4072 1792 00        		.byte	0
 4073 1793 00        		.byte	0
 4074 1794 2C        		.uleb128 0x2c
 4075 1795 AE13 0000 		.long	0x13ae
 4076 1799 0000 0000 		.long	.LBB179
 4077 179d 0000 0000 		.long	.LBE179
 4078 17a1 01        		.byte	0x1
 4079 17a2 89        		.byte	0x89
 4080 17a3 D717 0000 		.long	0x17d7
 4081 17a7 2D        		.uleb128 0x2d
 4082 17a8 C013 0000 		.long	0x13c0
 4083 17ac 0B        		.byte	0xb
 4084 17ad 39        		.uleb128 0x39
 4085 17ae B512 0000 		.long	0x12b5
 4086 17b2 0000 0000 		.long	.LBB180
 4087 17b6 0000 0000 		.long	.LBE180
 4088 17ba 12        		.byte	0x12
 4089 17bb 1801      		.word	0x118
 4090 17bd 3A        		.uleb128 0x3a
 4091 17be C712 0000 		.long	0x12c7
 4092 17c2 0000 0000 		.long	.LLST9
 4093 17c6 2F        		.uleb128 0x2f
 4094 17c7 0000 0000 		.long	.LBB181
 4095 17cb 0000 0000 		.long	.LBE181
 4096 17cf 30        		.uleb128 0x30
 4097 17d0 D312 0000 		.long	0x12d3
 4098 17d4 00        		.byte	0
 4099 17d5 00        		.byte	0
 4100 17d6 00        		.byte	0
 4101 17d7 36        		.uleb128 0x36
 4102 17d8 CD13 0000 		.long	0x13cd
 4103 17dc 0000 0000 		.long	.LBB182
 4104 17e0 0000 0000 		.long	.LBE182
GAS LISTING /tmp/ccwf6aFs.s 			page 114


 4105 17e4 01        		.byte	0x1
 4106 17e5 94        		.byte	0x94
 4107 17e6 2C        		.uleb128 0x2c
 4108 17e7 D613 0000 		.long	0x13d6
 4109 17eb 0000 0000 		.long	.LBB184
 4110 17ef 0000 0000 		.long	.LBE184
 4111 17f3 01        		.byte	0x1
 4112 17f4 95        		.byte	0x95
 4113 17f5 0118 0000 		.long	0x1801
 4114 17f9 33        		.uleb128 0x33
 4115 17fa E313 0000 		.long	0x13e3
 4116 17fe A008      		.word	0x8a0
 4117 1800 00        		.byte	0
 4118 1801 2C        		.uleb128 0x2c
 4119 1802 EF13 0000 		.long	0x13ef
 4120 1806 0000 0000 		.long	.LBB186
 4121 180a 0000 0000 		.long	.LBE186
 4122 180e 01        		.byte	0x1
 4123 180f A0        		.byte	0xa0
 4124 1810 2218 0000 		.long	0x1822
 4125 1814 2D        		.uleb128 0x2d
 4126 1815 0814 0000 		.long	0x1408
 4127 1819 00        		.byte	0
 4128 181a 33        		.uleb128 0x33
 4129 181b FD13 0000 		.long	0x13fd
 4130 181f 0008      		.word	0x800
 4131 1821 00        		.byte	0
 4132 1822 2C        		.uleb128 0x2c
 4133 1823 1514 0000 		.long	0x1415
 4134 1827 0000 0000 		.long	.LBB188
 4135 182b 0000 0000 		.long	.LBE188
 4136 182f 01        		.byte	0x1
 4137 1830 A1        		.byte	0xa1
 4138 1831 4418 0000 		.long	0x1844
 4139 1835 33        		.uleb128 0x33
 4140 1836 2E14 0000 		.long	0x142e
 4141 183a 2308      		.word	0x823
 4142 183c 33        		.uleb128 0x33
 4143 183d 2314 0000 		.long	0x1423
 4144 1841 0008      		.word	0x800
 4145 1843 00        		.byte	0
 4146 1844 2C        		.uleb128 0x2c
 4147 1845 3B14 0000 		.long	0x143b
 4148 1849 0000 0000 		.long	.LBB190
 4149 184d 0000 0000 		.long	.LBE190
 4150 1851 01        		.byte	0x1
 4151 1852 A2        		.byte	0xa2
 4152 1853 6518 0000 		.long	0x1865
 4153 1857 2D        		.uleb128 0x2d
 4154 1858 5414 0000 		.long	0x1454
 4155 185c 05        		.byte	0x5
 4156 185d 33        		.uleb128 0x33
 4157 185e 4914 0000 		.long	0x1449
 4158 1862 0008      		.word	0x800
 4159 1864 00        		.byte	0
 4160 1865 2C        		.uleb128 0x2c
 4161 1866 6114 0000 		.long	0x1461
GAS LISTING /tmp/ccwf6aFs.s 			page 115


 4162 186a 0000 0000 		.long	.LBB192
 4163 186e 0000 0000 		.long	.LBE192
 4164 1872 01        		.byte	0x1
 4165 1873 A3        		.byte	0xa3
 4166 1874 8618 0000 		.long	0x1886
 4167 1878 2D        		.uleb128 0x2d
 4168 1879 7A14 0000 		.long	0x147a
 4169 187d 03        		.byte	0x3
 4170 187e 33        		.uleb128 0x33
 4171 187f 6F14 0000 		.long	0x146f
 4172 1883 0008      		.word	0x800
 4173 1885 00        		.byte	0
 4174 1886 2C        		.uleb128 0x2c
 4175 1887 EF13 0000 		.long	0x13ef
 4176 188b 0000 0000 		.long	.LBB194
 4177 188f 0000 0000 		.long	.LBE194
 4178 1893 01        		.byte	0x1
 4179 1894 A9        		.byte	0xa9
 4180 1895 A718 0000 		.long	0x18a7
 4181 1899 2D        		.uleb128 0x2d
 4182 189a 0814 0000 		.long	0x1408
 4183 189e 00        		.byte	0
 4184 189f 33        		.uleb128 0x33
 4185 18a0 FD13 0000 		.long	0x13fd
 4186 18a4 4008      		.word	0x840
 4187 18a6 00        		.byte	0
 4188 18a7 2C        		.uleb128 0x2c
 4189 18a8 1514 0000 		.long	0x1415
 4190 18ac 0000 0000 		.long	.LBB196
 4191 18b0 0000 0000 		.long	.LBE196
 4192 18b4 01        		.byte	0x1
 4193 18b5 AA        		.byte	0xaa
 4194 18b6 C818 0000 		.long	0x18c8
 4195 18ba 3B        		.uleb128 0x3b
 4196 18bb 2E14 0000 		.long	0x142e
 4197 18bf 7F        		.sleb128 -1
 4198 18c0 33        		.uleb128 0x33
 4199 18c1 2314 0000 		.long	0x1423
 4200 18c5 4008      		.word	0x840
 4201 18c7 00        		.byte	0
 4202 18c8 2C        		.uleb128 0x2c
 4203 18c9 3B14 0000 		.long	0x143b
 4204 18cd 0000 0000 		.long	.LBB198
 4205 18d1 0000 0000 		.long	.LBE198
 4206 18d5 01        		.byte	0x1
 4207 18d6 AB        		.byte	0xab
 4208 18d7 E918 0000 		.long	0x18e9
 4209 18db 2D        		.uleb128 0x2d
 4210 18dc 5414 0000 		.long	0x1454
 4211 18e0 06        		.byte	0x6
 4212 18e1 33        		.uleb128 0x33
 4213 18e2 4914 0000 		.long	0x1449
 4214 18e6 4008      		.word	0x840
 4215 18e8 00        		.byte	0
 4216 18e9 2C        		.uleb128 0x2c
 4217 18ea 6114 0000 		.long	0x1461
 4218 18ee 0000 0000 		.long	.LBB200
GAS LISTING /tmp/ccwf6aFs.s 			page 116


 4219 18f2 0000 0000 		.long	.LBE200
 4220 18f6 01        		.byte	0x1
 4221 18f7 AC        		.byte	0xac
 4222 18f8 0A19 0000 		.long	0x190a
 4223 18fc 2D        		.uleb128 0x2d
 4224 18fd 7A14 0000 		.long	0x147a
 4225 1901 01        		.byte	0x1
 4226 1902 33        		.uleb128 0x33
 4227 1903 6F14 0000 		.long	0x146f
 4228 1907 4008      		.word	0x840
 4229 1909 00        		.byte	0
 4230 190a 3C        		.uleb128 0x3c
 4231 190b AE13 0000 		.long	0x13ae
 4232 190f 0000 0000 		.long	.LBB202
 4233 1913 0000 0000 		.long	.Ldebug_ranges0+0
 4234 1917 01        		.byte	0x1
 4235 1918 B4        		.byte	0xb4
 4236 1919 4919 0000 		.long	0x1949
 4237 191d 2D        		.uleb128 0x2d
 4238 191e C013 0000 		.long	0x13c0
 4239 1922 11        		.byte	0x11
 4240 1923 3D        		.uleb128 0x3d
 4241 1924 B512 0000 		.long	0x12b5
 4242 1928 0000 0000 		.long	.LBB203
 4243 192c 0000 0000 		.long	.Ldebug_ranges0+0x18
 4244 1930 12        		.byte	0x12
 4245 1931 1801      		.word	0x118
 4246 1933 3A        		.uleb128 0x3a
 4247 1934 C712 0000 		.long	0x12c7
 4248 1938 0000 0000 		.long	.LLST9
 4249 193c 3E        		.uleb128 0x3e
 4250 193d 0000 0000 		.long	.Ldebug_ranges0+0x30
 4251 1941 30        		.uleb128 0x30
 4252 1942 D312 0000 		.long	0x12d3
 4253 1946 00        		.byte	0
 4254 1947 00        		.byte	0
 4255 1948 00        		.byte	0
 4256 1949 3E        		.uleb128 0x3e
 4257 194a 0000 0000 		.long	.Ldebug_ranges0+0x48
 4258 194e 3F        		.uleb128 0x3f
 4259 194f 6900      		.string	"i"
 4260 1951 01        		.byte	0x1
 4261 1952 B5        		.byte	0xb5
 4262 1953 4500 0000 		.long	0x45
 4263 1957 0000 0000 		.long	.LLST14
 4264 195b 00        		.byte	0
 4265 195c 00        		.byte	0
 4266 195d 40        		.uleb128 0x40
 4267 195e 2C00 0000 		.long	0x2c
 4268 1962 6819 0000 		.long	0x1968
 4269 1966 41        		.uleb128 0x41
 4270 1967 00        		.byte	0
 4271 1968 42        		.uleb128 0x42
 4272 1969 0000 0000 		.long	.LASF288
 4273 196d 13        		.byte	0x13
 4274 196e 52        		.byte	0x52
 4275 196f 5D19 0000 		.long	0x195d
GAS LISTING /tmp/ccwf6aFs.s 			page 117


 4276 1973 01        		.byte	0x1
 4277 1974 01        		.byte	0x1
 4278 1975 40        		.uleb128 0x40
 4279 1976 AB00 0000 		.long	0xab
 4280 197a 8019 0000 		.long	0x1980
 4281 197e 41        		.uleb128 0x41
 4282 197f 00        		.byte	0
 4283 1980 42        		.uleb128 0x42
 4284 1981 0000 0000 		.long	.LASF289
 4285 1985 13        		.byte	0x13
 4286 1986 57        		.byte	0x57
 4287 1987 7519 0000 		.long	0x1975
 4288 198b 01        		.byte	0x1
 4289 198c 01        		.byte	0x1
 4290 198d 40        		.uleb128 0x40
 4291 198e 4500 0000 		.long	0x45
 4292 1992 9D19 0000 		.long	0x199d
 4293 1996 43        		.uleb128 0x43
 4294 1997 5000 0000 		.long	0x50
 4295 199b 06        		.byte	0x6
 4296 199c 00        		.byte	0
 4297 199d 20        		.uleb128 0x20
 4298 199e 0000 0000 		.long	.LASF290
 4299 19a2 07        		.byte	0x7
 4300 19a3 5B        		.byte	0x5b
 4301 19a4 A819 0000 		.long	0x19a8
 4302 19a8 21        		.uleb128 0x21
 4303 19a9 8D19 0000 		.long	0x198d
 4304 19ad 20        		.uleb128 0x20
 4305 19ae 0000 0000 		.long	.LASF291
 4306 19b2 07        		.byte	0x7
 4307 19b3 66        		.byte	0x66
 4308 19b4 B819 0000 		.long	0x19b8
 4309 19b8 21        		.uleb128 0x21
 4310 19b9 8D19 0000 		.long	0x198d
 4311 19bd 42        		.uleb128 0x42
 4312 19be 0000 0000 		.long	.LASF292
 4313 19c2 06        		.byte	0x6
 4314 19c3 4A        		.byte	0x4a
 4315 19c4 CA19 0000 		.long	0x19ca
 4316 19c8 01        		.byte	0x1
 4317 19c9 01        		.byte	0x1
 4318 19ca 06        		.uleb128 0x6
 4319 19cb 8313 0000 		.long	0x1383
 4320 19cf 44        		.uleb128 0x44
 4321 19d0 01        		.byte	0x1
 4322 19d1 3E00 0000 		.long	0x3e
 4323 19d5 E419 0000 		.long	0x19e4
 4324 19d9 45        		.uleb128 0x45
 4325 19da 8313 0000 		.long	0x1383
 4326 19de 45        		.uleb128 0x45
 4327 19df 9A00 0000 		.long	0x9a
 4328 19e3 00        		.byte	0
 4329 19e4 42        		.uleb128 0x42
 4330 19e5 0000 0000 		.long	.LASF293
 4331 19e9 06        		.byte	0x6
 4332 19ea 4C        		.byte	0x4c
GAS LISTING /tmp/ccwf6aFs.s 			page 118


 4333 19eb F119 0000 		.long	0x19f1
 4334 19ef 01        		.byte	0x1
 4335 19f0 01        		.byte	0x1
 4336 19f1 05        		.uleb128 0x5
 4337 19f2 02        		.byte	0x2
 4338 19f3 CF19 0000 		.long	0x19cf
 4339 19f7 46        		.uleb128 0x46
 4340 19f8 01        		.byte	0x1
 4341 19f9 081A 0000 		.long	0x1a08
 4342 19fd 45        		.uleb128 0x45
 4343 19fe 8313 0000 		.long	0x1383
 4344 1a02 45        		.uleb128 0x45
 4345 1a03 9400 0000 		.long	0x94
 4346 1a07 00        		.byte	0
 4347 1a08 42        		.uleb128 0x42
 4348 1a09 0000 0000 		.long	.LASF294
 4349 1a0d 06        		.byte	0x6
 4350 1a0e 4E        		.byte	0x4e
 4351 1a0f 151A 0000 		.long	0x1a15
 4352 1a13 01        		.byte	0x1
 4353 1a14 01        		.byte	0x1
 4354 1a15 05        		.uleb128 0x5
 4355 1a16 02        		.byte	0x2
 4356 1a17 F719 0000 		.long	0x19f7
 4357 1a1b 42        		.uleb128 0x42
 4358 1a1c 0000 0000 		.long	.LASF295
 4359 1a20 14        		.byte	0x14
 4360 1a21 13        		.byte	0x13
 4361 1a22 2C00 0000 		.long	0x2c
 4362 1a26 01        		.byte	0x1
 4363 1a27 01        		.byte	0x1
 4364 1a28 42        		.uleb128 0x42
 4365 1a29 0000 0000 		.long	.LASF296
 4366 1a2d 14        		.byte	0x14
 4367 1a2e 14        		.byte	0x14
 4368 1a2f 2C00 0000 		.long	0x2c
 4369 1a33 01        		.byte	0x1
 4370 1a34 01        		.byte	0x1
 4371 1a35 42        		.uleb128 0x42
 4372 1a36 0000 0000 		.long	.LASF297
 4373 1a3a 14        		.byte	0x14
 4374 1a3b 15        		.byte	0x15
 4375 1a3c 7700 0000 		.long	0x77
 4376 1a40 01        		.byte	0x1
 4377 1a41 01        		.byte	0x1
 4378 1a42 42        		.uleb128 0x42
 4379 1a43 0000 0000 		.long	.LASF298
 4380 1a47 14        		.byte	0x14
 4381 1a48 1A        		.byte	0x1a
 4382 1a49 4500 0000 		.long	0x45
 4383 1a4d 01        		.byte	0x1
 4384 1a4e 01        		.byte	0x1
 4385 1a4f 40        		.uleb128 0x40
 4386 1a50 2C00 0000 		.long	0x2c
 4387 1a54 601A 0000 		.long	0x1a60
 4388 1a58 47        		.uleb128 0x47
 4389 1a59 5000 0000 		.long	0x50
GAS LISTING /tmp/ccwf6aFs.s 			page 119


 4390 1a5d 3F02      		.word	0x23f
 4391 1a5f 00        		.byte	0
 4392 1a60 42        		.uleb128 0x42
 4393 1a61 0000 0000 		.long	.LASF299
 4394 1a65 14        		.byte	0x14
 4395 1a66 1D        		.byte	0x1d
 4396 1a67 4F1A 0000 		.long	0x1a4f
 4397 1a6b 01        		.byte	0x1
 4398 1a6c 01        		.byte	0x1
 4399 1a6d 42        		.uleb128 0x42
 4400 1a6e 0000 0000 		.long	.LASF300
 4401 1a72 14        		.byte	0x14
 4402 1a73 21        		.byte	0x21
 4403 1a74 A100 0000 		.long	0xa1
 4404 1a78 01        		.byte	0x1
 4405 1a79 01        		.byte	0x1
 4406 1a7a 42        		.uleb128 0x42
 4407 1a7b 0000 0000 		.long	.LASF301
 4408 1a7f 14        		.byte	0x14
 4409 1a80 28        		.byte	0x28
 4410 1a81 2C00 0000 		.long	0x2c
 4411 1a85 01        		.byte	0x1
 4412 1a86 01        		.byte	0x1
 4413 1a87 42        		.uleb128 0x42
 4414 1a88 0000 0000 		.long	.LASF302
 4415 1a8c 14        		.byte	0x14
 4416 1a8d 29        		.byte	0x29
 4417 1a8e 2C00 0000 		.long	0x2c
 4418 1a92 01        		.byte	0x1
 4419 1a93 01        		.byte	0x1
 4420 1a94 42        		.uleb128 0x42
 4421 1a95 0000 0000 		.long	.LASF303
 4422 1a99 14        		.byte	0x14
 4423 1a9a 2A        		.byte	0x2a
 4424 1a9b 4500 0000 		.long	0x45
 4425 1a9f 01        		.byte	0x1
 4426 1aa0 01        		.byte	0x1
 4427 1aa1 42        		.uleb128 0x42
 4428 1aa2 0000 0000 		.long	.LASF304
 4429 1aa6 14        		.byte	0x14
 4430 1aa7 2B        		.byte	0x2b
 4431 1aa8 4500 0000 		.long	0x45
 4432 1aac 01        		.byte	0x1
 4433 1aad 01        		.byte	0x1
 4434 1aae 42        		.uleb128 0x42
 4435 1aaf 0000 0000 		.long	.LASF305
 4436 1ab3 01        		.byte	0x1
 4437 1ab4 21        		.byte	0x21
 4438 1ab5 9510 0000 		.long	0x1095
 4439 1ab9 01        		.byte	0x1
 4440 1aba 01        		.byte	0x1
 4441 1abb 42        		.uleb128 0x42
 4442 1abc 0000 0000 		.long	.LASF288
 4443 1ac0 13        		.byte	0x13
 4444 1ac1 52        		.byte	0x52
 4445 1ac2 5D19 0000 		.long	0x195d
 4446 1ac6 01        		.byte	0x1
GAS LISTING /tmp/ccwf6aFs.s 			page 120


 4447 1ac7 01        		.byte	0x1
 4448 1ac8 42        		.uleb128 0x42
 4449 1ac9 0000 0000 		.long	.LASF289
 4450 1acd 13        		.byte	0x13
 4451 1ace 57        		.byte	0x57
 4452 1acf 7519 0000 		.long	0x1975
 4453 1ad3 01        		.byte	0x1
 4454 1ad4 01        		.byte	0x1
 4455 1ad5 42        		.uleb128 0x42
 4456 1ad6 0000 0000 		.long	.LASF292
 4457 1ada 06        		.byte	0x6
 4458 1adb 4A        		.byte	0x4a
 4459 1adc CA19 0000 		.long	0x19ca
 4460 1ae0 01        		.byte	0x1
 4461 1ae1 01        		.byte	0x1
 4462 1ae2 42        		.uleb128 0x42
 4463 1ae3 0000 0000 		.long	.LASF293
 4464 1ae7 06        		.byte	0x6
 4465 1ae8 4C        		.byte	0x4c
 4466 1ae9 F119 0000 		.long	0x19f1
 4467 1aed 01        		.byte	0x1
 4468 1aee 01        		.byte	0x1
 4469 1aef 42        		.uleb128 0x42
 4470 1af0 0000 0000 		.long	.LASF294
 4471 1af4 06        		.byte	0x6
 4472 1af5 4E        		.byte	0x4e
 4473 1af6 151A 0000 		.long	0x1a15
 4474 1afa 01        		.byte	0x1
 4475 1afb 01        		.byte	0x1
 4476 1afc 48        		.uleb128 0x48
 4477 1afd 0000 0000 		.long	.LASF306
 4478 1b01 10        		.byte	0x10
 4479 1b02 0E        		.byte	0xe
 4480 1b03 AB11 0000 		.long	0x11ab
 4481 1b07 01        		.byte	0x1
 4482 1b08 05        		.byte	0x5
 4483 1b09 03        		.byte	0x3
 4484 1b0a 0000 0000 		.long	USB_STATE
 4485 1b0e 42        		.uleb128 0x42
 4486 1b0f 0000 0000 		.long	.LASF295
 4487 1b13 14        		.byte	0x14
 4488 1b14 13        		.byte	0x13
 4489 1b15 2C00 0000 		.long	0x2c
 4490 1b19 01        		.byte	0x1
 4491 1b1a 01        		.byte	0x1
 4492 1b1b 42        		.uleb128 0x42
 4493 1b1c 0000 0000 		.long	.LASF296
 4494 1b20 14        		.byte	0x14
 4495 1b21 14        		.byte	0x14
 4496 1b22 2C00 0000 		.long	0x2c
 4497 1b26 01        		.byte	0x1
 4498 1b27 01        		.byte	0x1
 4499 1b28 42        		.uleb128 0x42
 4500 1b29 0000 0000 		.long	.LASF297
 4501 1b2d 14        		.byte	0x14
 4502 1b2e 15        		.byte	0x15
 4503 1b2f 7700 0000 		.long	0x77
GAS LISTING /tmp/ccwf6aFs.s 			page 121


 4504 1b33 01        		.byte	0x1
 4505 1b34 01        		.byte	0x1
 4506 1b35 42        		.uleb128 0x42
 4507 1b36 0000 0000 		.long	.LASF298
 4508 1b3a 14        		.byte	0x14
 4509 1b3b 1A        		.byte	0x1a
 4510 1b3c 4500 0000 		.long	0x45
 4511 1b40 01        		.byte	0x1
 4512 1b41 01        		.byte	0x1
 4513 1b42 42        		.uleb128 0x42
 4514 1b43 0000 0000 		.long	.LASF299
 4515 1b47 14        		.byte	0x14
 4516 1b48 1D        		.byte	0x1d
 4517 1b49 4F1A 0000 		.long	0x1a4f
 4518 1b4d 01        		.byte	0x1
 4519 1b4e 01        		.byte	0x1
 4520 1b4f 42        		.uleb128 0x42
 4521 1b50 0000 0000 		.long	.LASF300
 4522 1b54 14        		.byte	0x14
 4523 1b55 21        		.byte	0x21
 4524 1b56 A100 0000 		.long	0xa1
 4525 1b5a 01        		.byte	0x1
 4526 1b5b 01        		.byte	0x1
 4527 1b5c 42        		.uleb128 0x42
 4528 1b5d 0000 0000 		.long	.LASF301
 4529 1b61 14        		.byte	0x14
 4530 1b62 28        		.byte	0x28
 4531 1b63 2C00 0000 		.long	0x2c
 4532 1b67 01        		.byte	0x1
 4533 1b68 01        		.byte	0x1
 4534 1b69 42        		.uleb128 0x42
 4535 1b6a 0000 0000 		.long	.LASF302
 4536 1b6e 14        		.byte	0x14
 4537 1b6f 29        		.byte	0x29
 4538 1b70 2C00 0000 		.long	0x2c
 4539 1b74 01        		.byte	0x1
 4540 1b75 01        		.byte	0x1
 4541 1b76 42        		.uleb128 0x42
 4542 1b77 0000 0000 		.long	.LASF303
 4543 1b7b 14        		.byte	0x14
 4544 1b7c 2A        		.byte	0x2a
 4545 1b7d 4500 0000 		.long	0x45
 4546 1b81 01        		.byte	0x1
 4547 1b82 01        		.byte	0x1
 4548 1b83 42        		.uleb128 0x42
 4549 1b84 0000 0000 		.long	.LASF304
 4550 1b88 14        		.byte	0x14
 4551 1b89 2B        		.byte	0x2b
 4552 1b8a 4500 0000 		.long	0x45
 4553 1b8e 01        		.byte	0x1
 4554 1b8f 01        		.byte	0x1
 4555 1b90 48        		.uleb128 0x48
 4556 1b91 0000 0000 		.long	.LASF307
 4557 1b95 11        		.byte	0x11
 4558 1b96 0F        		.byte	0xf
 4559 1b97 D811 0000 		.long	0x11d8
 4560 1b9b 01        		.byte	0x1
GAS LISTING /tmp/ccwf6aFs.s 			page 122


 4561 1b9c 05        		.byte	0x5
 4562 1b9d 03        		.byte	0x3
 4563 1b9e 0000 0000 		.long	COMMAND_TYPE
 4564 1ba2 48        		.uleb128 0x48
 4565 1ba3 0000 0000 		.long	.LASF308
 4566 1ba7 01        		.byte	0x1
 4567 1ba8 1F        		.byte	0x1f
 4568 1ba9 4711 0000 		.long	0x1147
 4569 1bad 01        		.byte	0x1
 4570 1bae 05        		.byte	0x5
 4571 1baf 03        		.byte	0x3
 4572 1bb0 0000 0000 		.long	start_bootloader
 4573 1bb4 48        		.uleb128 0x48
 4574 1bb5 0000 0000 		.long	.LASF305
 4575 1bb9 01        		.byte	0x1
 4576 1bba 21        		.byte	0x21
 4577 1bbb 9510 0000 		.long	0x1095
 4578 1bbf 01        		.byte	0x1
 4579 1bc0 05        		.byte	0x5
 4580 1bc1 03        		.byte	0x3
 4581 1bc2 0000 0000 		.long	dummy_device
 4582 1bc6 00        		.byte	0
 4583               		.section	.debug_abbrev,"",@progbits
 4584               	.Ldebug_abbrev0:
 4585 0000 01        		.uleb128 0x1
 4586 0001 11        		.uleb128 0x11
 4587 0002 01        		.byte	0x1
 4588 0003 25        		.uleb128 0x25
 4589 0004 0E        		.uleb128 0xe
 4590 0005 13        		.uleb128 0x13
 4591 0006 0B        		.uleb128 0xb
 4592 0007 03        		.uleb128 0x3
 4593 0008 0E        		.uleb128 0xe
 4594 0009 1B        		.uleb128 0x1b
 4595 000a 0E        		.uleb128 0xe
 4596 000b 11        		.uleb128 0x11
 4597 000c 01        		.uleb128 0x1
 4598 000d 12        		.uleb128 0x12
 4599 000e 01        		.uleb128 0x1
 4600 000f 10        		.uleb128 0x10
 4601 0010 06        		.uleb128 0x6
 4602 0011 00        		.byte	0
 4603 0012 00        		.byte	0
 4604 0013 02        		.uleb128 0x2
 4605 0014 24        		.uleb128 0x24
 4606 0015 00        		.byte	0
 4607 0016 0B        		.uleb128 0xb
 4608 0017 0B        		.uleb128 0xb
 4609 0018 3E        		.uleb128 0x3e
 4610 0019 0B        		.uleb128 0xb
 4611 001a 03        		.uleb128 0x3
 4612 001b 0E        		.uleb128 0xe
 4613 001c 00        		.byte	0
 4614 001d 00        		.byte	0
 4615 001e 03        		.uleb128 0x3
 4616 001f 16        		.uleb128 0x16
 4617 0020 00        		.byte	0
GAS LISTING /tmp/ccwf6aFs.s 			page 123


 4618 0021 03        		.uleb128 0x3
 4619 0022 0E        		.uleb128 0xe
 4620 0023 3A        		.uleb128 0x3a
 4621 0024 0B        		.uleb128 0xb
 4622 0025 3B        		.uleb128 0x3b
 4623 0026 0B        		.uleb128 0xb
 4624 0027 49        		.uleb128 0x49
 4625 0028 13        		.uleb128 0x13
 4626 0029 00        		.byte	0
 4627 002a 00        		.byte	0
 4628 002b 04        		.uleb128 0x4
 4629 002c 24        		.uleb128 0x24
 4630 002d 00        		.byte	0
 4631 002e 0B        		.uleb128 0xb
 4632 002f 0B        		.uleb128 0xb
 4633 0030 3E        		.uleb128 0x3e
 4634 0031 0B        		.uleb128 0xb
 4635 0032 03        		.uleb128 0x3
 4636 0033 08        		.uleb128 0x8
 4637 0034 00        		.byte	0
 4638 0035 00        		.byte	0
 4639 0036 05        		.uleb128 0x5
 4640 0037 0F        		.uleb128 0xf
 4641 0038 00        		.byte	0
 4642 0039 0B        		.uleb128 0xb
 4643 003a 0B        		.uleb128 0xb
 4644 003b 49        		.uleb128 0x49
 4645 003c 13        		.uleb128 0x13
 4646 003d 00        		.byte	0
 4647 003e 00        		.byte	0
 4648 003f 06        		.uleb128 0x6
 4649 0040 35        		.uleb128 0x35
 4650 0041 00        		.byte	0
 4651 0042 49        		.uleb128 0x49
 4652 0043 13        		.uleb128 0x13
 4653 0044 00        		.byte	0
 4654 0045 00        		.byte	0
 4655 0046 07        		.uleb128 0x7
 4656 0047 04        		.uleb128 0x4
 4657 0048 01        		.byte	0x1
 4658 0049 03        		.uleb128 0x3
 4659 004a 0E        		.uleb128 0xe
 4660 004b 0B        		.uleb128 0xb
 4661 004c 0B        		.uleb128 0xb
 4662 004d 3A        		.uleb128 0x3a
 4663 004e 0B        		.uleb128 0xb
 4664 004f 3B        		.uleb128 0x3b
 4665 0050 05        		.uleb128 0x5
 4666 0051 01        		.uleb128 0x1
 4667 0052 13        		.uleb128 0x13
 4668 0053 00        		.byte	0
 4669 0054 00        		.byte	0
 4670 0055 08        		.uleb128 0x8
 4671 0056 28        		.uleb128 0x28
 4672 0057 00        		.byte	0
 4673 0058 03        		.uleb128 0x3
 4674 0059 0E        		.uleb128 0xe
GAS LISTING /tmp/ccwf6aFs.s 			page 124


 4675 005a 1C        		.uleb128 0x1c
 4676 005b 0D        		.uleb128 0xd
 4677 005c 00        		.byte	0
 4678 005d 00        		.byte	0
 4679 005e 09        		.uleb128 0x9
 4680 005f 13        		.uleb128 0x13
 4681 0060 01        		.byte	0x1
 4682 0061 03        		.uleb128 0x3
 4683 0062 0E        		.uleb128 0xe
 4684 0063 0B        		.uleb128 0xb
 4685 0064 0B        		.uleb128 0xb
 4686 0065 3A        		.uleb128 0x3a
 4687 0066 0B        		.uleb128 0xb
 4688 0067 3B        		.uleb128 0x3b
 4689 0068 05        		.uleb128 0x5
 4690 0069 01        		.uleb128 0x1
 4691 006a 13        		.uleb128 0x13
 4692 006b 00        		.byte	0
 4693 006c 00        		.byte	0
 4694 006d 0A        		.uleb128 0xa
 4695 006e 0D        		.uleb128 0xd
 4696 006f 00        		.byte	0
 4697 0070 03        		.uleb128 0x3
 4698 0071 0E        		.uleb128 0xe
 4699 0072 3A        		.uleb128 0x3a
 4700 0073 0B        		.uleb128 0xb
 4701 0074 3B        		.uleb128 0x3b
 4702 0075 05        		.uleb128 0x5
 4703 0076 49        		.uleb128 0x49
 4704 0077 13        		.uleb128 0x13
 4705 0078 38        		.uleb128 0x38
 4706 0079 0A        		.uleb128 0xa
 4707 007a 00        		.byte	0
 4708 007b 00        		.byte	0
 4709 007c 0B        		.uleb128 0xb
 4710 007d 16        		.uleb128 0x16
 4711 007e 00        		.byte	0
 4712 007f 03        		.uleb128 0x3
 4713 0080 0E        		.uleb128 0xe
 4714 0081 3A        		.uleb128 0x3a
 4715 0082 0B        		.uleb128 0xb
 4716 0083 3B        		.uleb128 0x3b
 4717 0084 05        		.uleb128 0x5
 4718 0085 49        		.uleb128 0x49
 4719 0086 13        		.uleb128 0x13
 4720 0087 00        		.byte	0
 4721 0088 00        		.byte	0
 4722 0089 0C        		.uleb128 0xc
 4723 008a 0D        		.uleb128 0xd
 4724 008b 00        		.byte	0
 4725 008c 03        		.uleb128 0x3
 4726 008d 08        		.uleb128 0x8
 4727 008e 3A        		.uleb128 0x3a
 4728 008f 0B        		.uleb128 0xb
 4729 0090 3B        		.uleb128 0x3b
 4730 0091 05        		.uleb128 0x5
 4731 0092 49        		.uleb128 0x49
GAS LISTING /tmp/ccwf6aFs.s 			page 125


 4732 0093 13        		.uleb128 0x13
 4733 0094 38        		.uleb128 0x38
 4734 0095 0A        		.uleb128 0xa
 4735 0096 00        		.byte	0
 4736 0097 00        		.byte	0
 4737 0098 0D        		.uleb128 0xd
 4738 0099 13        		.uleb128 0x13
 4739 009a 01        		.byte	0x1
 4740 009b 0B        		.uleb128 0xb
 4741 009c 0B        		.uleb128 0xb
 4742 009d 3A        		.uleb128 0x3a
 4743 009e 0B        		.uleb128 0xb
 4744 009f 3B        		.uleb128 0x3b
 4745 00a0 05        		.uleb128 0x5
 4746 00a1 01        		.uleb128 0x1
 4747 00a2 13        		.uleb128 0x13
 4748 00a3 00        		.byte	0
 4749 00a4 00        		.byte	0
 4750 00a5 0E        		.uleb128 0xe
 4751 00a6 17        		.uleb128 0x17
 4752 00a7 01        		.byte	0x1
 4753 00a8 0B        		.uleb128 0xb
 4754 00a9 0B        		.uleb128 0xb
 4755 00aa 3A        		.uleb128 0x3a
 4756 00ab 0B        		.uleb128 0xb
 4757 00ac 3B        		.uleb128 0x3b
 4758 00ad 05        		.uleb128 0x5
 4759 00ae 01        		.uleb128 0x1
 4760 00af 13        		.uleb128 0x13
 4761 00b0 00        		.byte	0
 4762 00b1 00        		.byte	0
 4763 00b2 0F        		.uleb128 0xf
 4764 00b3 0D        		.uleb128 0xd
 4765 00b4 00        		.byte	0
 4766 00b5 03        		.uleb128 0x3
 4767 00b6 08        		.uleb128 0x8
 4768 00b7 3A        		.uleb128 0x3a
 4769 00b8 0B        		.uleb128 0xb
 4770 00b9 3B        		.uleb128 0x3b
 4771 00ba 05        		.uleb128 0x5
 4772 00bb 49        		.uleb128 0x49
 4773 00bc 13        		.uleb128 0x13
 4774 00bd 00        		.byte	0
 4775 00be 00        		.byte	0
 4776 00bf 10        		.uleb128 0x10
 4777 00c0 0D        		.uleb128 0xd
 4778 00c1 00        		.byte	0
 4779 00c2 49        		.uleb128 0x49
 4780 00c3 13        		.uleb128 0x13
 4781 00c4 00        		.byte	0
 4782 00c5 00        		.byte	0
 4783 00c6 11        		.uleb128 0x11
 4784 00c7 0D        		.uleb128 0xd
 4785 00c8 00        		.byte	0
 4786 00c9 03        		.uleb128 0x3
 4787 00ca 0E        		.uleb128 0xe
 4788 00cb 3A        		.uleb128 0x3a
GAS LISTING /tmp/ccwf6aFs.s 			page 126


 4789 00cc 0B        		.uleb128 0xb
 4790 00cd 3B        		.uleb128 0x3b
 4791 00ce 05        		.uleb128 0x5
 4792 00cf 49        		.uleb128 0x49
 4793 00d0 13        		.uleb128 0x13
 4794 00d1 00        		.byte	0
 4795 00d2 00        		.byte	0
 4796 00d3 12        		.uleb128 0x12
 4797 00d4 0D        		.uleb128 0xd
 4798 00d5 00        		.byte	0
 4799 00d6 49        		.uleb128 0x49
 4800 00d7 13        		.uleb128 0x13
 4801 00d8 38        		.uleb128 0x38
 4802 00d9 0A        		.uleb128 0xa
 4803 00da 00        		.byte	0
 4804 00db 00        		.byte	0
 4805 00dc 13        		.uleb128 0x13
 4806 00dd 04        		.uleb128 0x4
 4807 00de 01        		.byte	0x1
 4808 00df 03        		.uleb128 0x3
 4809 00e0 0E        		.uleb128 0xe
 4810 00e1 0B        		.uleb128 0xb
 4811 00e2 0B        		.uleb128 0xb
 4812 00e3 3A        		.uleb128 0x3a
 4813 00e4 0B        		.uleb128 0xb
 4814 00e5 3B        		.uleb128 0x3b
 4815 00e6 0B        		.uleb128 0xb
 4816 00e7 01        		.uleb128 0x1
 4817 00e8 13        		.uleb128 0x13
 4818 00e9 00        		.byte	0
 4819 00ea 00        		.byte	0
 4820 00eb 14        		.uleb128 0x14
 4821 00ec 13        		.uleb128 0x13
 4822 00ed 01        		.byte	0x1
 4823 00ee 03        		.uleb128 0x3
 4824 00ef 0E        		.uleb128 0xe
 4825 00f0 0B        		.uleb128 0xb
 4826 00f1 0B        		.uleb128 0xb
 4827 00f2 3A        		.uleb128 0x3a
 4828 00f3 0B        		.uleb128 0xb
 4829 00f4 3B        		.uleb128 0x3b
 4830 00f5 0B        		.uleb128 0xb
 4831 00f6 01        		.uleb128 0x1
 4832 00f7 13        		.uleb128 0x13
 4833 00f8 00        		.byte	0
 4834 00f9 00        		.byte	0
 4835 00fa 15        		.uleb128 0x15
 4836 00fb 0D        		.uleb128 0xd
 4837 00fc 00        		.byte	0
 4838 00fd 03        		.uleb128 0x3
 4839 00fe 08        		.uleb128 0x8
 4840 00ff 3A        		.uleb128 0x3a
 4841 0100 0B        		.uleb128 0xb
 4842 0101 3B        		.uleb128 0x3b
 4843 0102 0B        		.uleb128 0xb
 4844 0103 49        		.uleb128 0x49
 4845 0104 13        		.uleb128 0x13
GAS LISTING /tmp/ccwf6aFs.s 			page 127


 4846 0105 38        		.uleb128 0x38
 4847 0106 0A        		.uleb128 0xa
 4848 0107 00        		.byte	0
 4849 0108 00        		.byte	0
 4850 0109 16        		.uleb128 0x16
 4851 010a 0D        		.uleb128 0xd
 4852 010b 00        		.byte	0
 4853 010c 03        		.uleb128 0x3
 4854 010d 0E        		.uleb128 0xe
 4855 010e 3A        		.uleb128 0x3a
 4856 010f 0B        		.uleb128 0xb
 4857 0110 3B        		.uleb128 0x3b
 4858 0111 0B        		.uleb128 0xb
 4859 0112 49        		.uleb128 0x49
 4860 0113 13        		.uleb128 0x13
 4861 0114 38        		.uleb128 0x38
 4862 0115 0A        		.uleb128 0xa
 4863 0116 00        		.byte	0
 4864 0117 00        		.byte	0
 4865 0118 17        		.uleb128 0x17
 4866 0119 15        		.uleb128 0x15
 4867 011a 00        		.byte	0
 4868 011b 27        		.uleb128 0x27
 4869 011c 0C        		.uleb128 0xc
 4870 011d 00        		.byte	0
 4871 011e 00        		.byte	0
 4872 011f 18        		.uleb128 0x18
 4873 0120 04        		.uleb128 0x4
 4874 0121 01        		.byte	0x1
 4875 0122 0B        		.uleb128 0xb
 4876 0123 0B        		.uleb128 0xb
 4877 0124 3A        		.uleb128 0x3a
 4878 0125 0B        		.uleb128 0xb
 4879 0126 3B        		.uleb128 0x3b
 4880 0127 0B        		.uleb128 0xb
 4881 0128 01        		.uleb128 0x1
 4882 0129 13        		.uleb128 0x13
 4883 012a 00        		.byte	0
 4884 012b 00        		.byte	0
 4885 012c 19        		.uleb128 0x19
 4886 012d 2E        		.uleb128 0x2e
 4887 012e 01        		.byte	0x1
 4888 012f 03        		.uleb128 0x3
 4889 0130 0E        		.uleb128 0xe
 4890 0131 3A        		.uleb128 0x3a
 4891 0132 0B        		.uleb128 0xb
 4892 0133 3B        		.uleb128 0x3b
 4893 0134 0B        		.uleb128 0xb
 4894 0135 27        		.uleb128 0x27
 4895 0136 0C        		.uleb128 0xc
 4896 0137 49        		.uleb128 0x49
 4897 0138 13        		.uleb128 0x13
 4898 0139 20        		.uleb128 0x20
 4899 013a 0B        		.uleb128 0xb
 4900 013b 01        		.uleb128 0x1
 4901 013c 13        		.uleb128 0x13
 4902 013d 00        		.byte	0
GAS LISTING /tmp/ccwf6aFs.s 			page 128


 4903 013e 00        		.byte	0
 4904 013f 1A        		.uleb128 0x1a
 4905 0140 05        		.uleb128 0x5
 4906 0141 00        		.byte	0
 4907 0142 03        		.uleb128 0x3
 4908 0143 08        		.uleb128 0x8
 4909 0144 3A        		.uleb128 0x3a
 4910 0145 0B        		.uleb128 0xb
 4911 0146 3B        		.uleb128 0x3b
 4912 0147 0B        		.uleb128 0xb
 4913 0148 49        		.uleb128 0x49
 4914 0149 13        		.uleb128 0x13
 4915 014a 00        		.byte	0
 4916 014b 00        		.byte	0
 4917 014c 1B        		.uleb128 0x1b
 4918 014d 05        		.uleb128 0x5
 4919 014e 00        		.byte	0
 4920 014f 03        		.uleb128 0x3
 4921 0150 0E        		.uleb128 0xe
 4922 0151 3A        		.uleb128 0x3a
 4923 0152 0B        		.uleb128 0xb
 4924 0153 3B        		.uleb128 0x3b
 4925 0154 0B        		.uleb128 0xb
 4926 0155 49        		.uleb128 0x49
 4927 0156 13        		.uleb128 0x13
 4928 0157 00        		.byte	0
 4929 0158 00        		.byte	0
 4930 0159 1C        		.uleb128 0x1c
 4931 015a 2E        		.uleb128 0x2e
 4932 015b 01        		.byte	0x1
 4933 015c 03        		.uleb128 0x3
 4934 015d 0E        		.uleb128 0xe
 4935 015e 3A        		.uleb128 0x3a
 4936 015f 0B        		.uleb128 0xb
 4937 0160 3B        		.uleb128 0x3b
 4938 0161 0B        		.uleb128 0xb
 4939 0162 27        		.uleb128 0x27
 4940 0163 0C        		.uleb128 0xc
 4941 0164 20        		.uleb128 0x20
 4942 0165 0B        		.uleb128 0xb
 4943 0166 01        		.uleb128 0x1
 4944 0167 13        		.uleb128 0x13
 4945 0168 00        		.byte	0
 4946 0169 00        		.byte	0
 4947 016a 1D        		.uleb128 0x1d
 4948 016b 34        		.uleb128 0x34
 4949 016c 00        		.byte	0
 4950 016d 03        		.uleb128 0x3
 4951 016e 0E        		.uleb128 0xe
 4952 016f 3A        		.uleb128 0x3a
 4953 0170 0B        		.uleb128 0xb
 4954 0171 3B        		.uleb128 0x3b
 4955 0172 05        		.uleb128 0x5
 4956 0173 49        		.uleb128 0x49
 4957 0174 13        		.uleb128 0x13
 4958 0175 00        		.byte	0
 4959 0176 00        		.byte	0
GAS LISTING /tmp/ccwf6aFs.s 			page 129


 4960 0177 1E        		.uleb128 0x1e
 4961 0178 2E        		.uleb128 0x2e
 4962 0179 01        		.byte	0x1
 4963 017a 03        		.uleb128 0x3
 4964 017b 0E        		.uleb128 0xe
 4965 017c 3A        		.uleb128 0x3a
 4966 017d 0B        		.uleb128 0xb
 4967 017e 3B        		.uleb128 0x3b
 4968 017f 05        		.uleb128 0x5
 4969 0180 27        		.uleb128 0x27
 4970 0181 0C        		.uleb128 0xc
 4971 0182 49        		.uleb128 0x49
 4972 0183 13        		.uleb128 0x13
 4973 0184 20        		.uleb128 0x20
 4974 0185 0B        		.uleb128 0xb
 4975 0186 01        		.uleb128 0x1
 4976 0187 13        		.uleb128 0x13
 4977 0188 00        		.byte	0
 4978 0189 00        		.byte	0
 4979 018a 1F        		.uleb128 0x1f
 4980 018b 05        		.uleb128 0x5
 4981 018c 00        		.byte	0
 4982 018d 03        		.uleb128 0x3
 4983 018e 08        		.uleb128 0x8
 4984 018f 3A        		.uleb128 0x3a
 4985 0190 0B        		.uleb128 0xb
 4986 0191 3B        		.uleb128 0x3b
 4987 0192 05        		.uleb128 0x5
 4988 0193 49        		.uleb128 0x49
 4989 0194 13        		.uleb128 0x13
 4990 0195 00        		.byte	0
 4991 0196 00        		.byte	0
 4992 0197 20        		.uleb128 0x20
 4993 0198 34        		.uleb128 0x34
 4994 0199 00        		.byte	0
 4995 019a 03        		.uleb128 0x3
 4996 019b 0E        		.uleb128 0xe
 4997 019c 3A        		.uleb128 0x3a
 4998 019d 0B        		.uleb128 0xb
 4999 019e 3B        		.uleb128 0x3b
 5000 019f 0B        		.uleb128 0xb
 5001 01a0 49        		.uleb128 0x49
 5002 01a1 13        		.uleb128 0x13
 5003 01a2 00        		.byte	0
 5004 01a3 00        		.byte	0
 5005 01a4 21        		.uleb128 0x21
 5006 01a5 26        		.uleb128 0x26
 5007 01a6 00        		.byte	0
 5008 01a7 49        		.uleb128 0x49
 5009 01a8 13        		.uleb128 0x13
 5010 01a9 00        		.byte	0
 5011 01aa 00        		.byte	0
 5012 01ab 22        		.uleb128 0x22
 5013 01ac 2E        		.uleb128 0x2e
 5014 01ad 00        		.byte	0
 5015 01ae 03        		.uleb128 0x3
 5016 01af 0E        		.uleb128 0xe
GAS LISTING /tmp/ccwf6aFs.s 			page 130


 5017 01b0 3A        		.uleb128 0x3a
 5018 01b1 0B        		.uleb128 0xb
 5019 01b2 3B        		.uleb128 0x3b
 5020 01b3 0B        		.uleb128 0xb
 5021 01b4 27        		.uleb128 0x27
 5022 01b5 0C        		.uleb128 0xc
 5023 01b6 20        		.uleb128 0x20
 5024 01b7 0B        		.uleb128 0xb
 5025 01b8 00        		.byte	0
 5026 01b9 00        		.byte	0
 5027 01ba 23        		.uleb128 0x23
 5028 01bb 35        		.uleb128 0x35
 5029 01bc 00        		.byte	0
 5030 01bd 00        		.byte	0
 5031 01be 00        		.byte	0
 5032 01bf 24        		.uleb128 0x24
 5033 01c0 2E        		.uleb128 0x2e
 5034 01c1 01        		.byte	0x1
 5035 01c2 03        		.uleb128 0x3
 5036 01c3 0E        		.uleb128 0xe
 5037 01c4 3A        		.uleb128 0x3a
 5038 01c5 0B        		.uleb128 0xb
 5039 01c6 3B        		.uleb128 0x3b
 5040 01c7 05        		.uleb128 0x5
 5041 01c8 27        		.uleb128 0x27
 5042 01c9 0C        		.uleb128 0xc
 5043 01ca 20        		.uleb128 0x20
 5044 01cb 0B        		.uleb128 0xb
 5045 01cc 01        		.uleb128 0x1
 5046 01cd 13        		.uleb128 0x13
 5047 01ce 00        		.byte	0
 5048 01cf 00        		.byte	0
 5049 01d0 25        		.uleb128 0x25
 5050 01d1 05        		.uleb128 0x5
 5051 01d2 00        		.byte	0
 5052 01d3 03        		.uleb128 0x3
 5053 01d4 0E        		.uleb128 0xe
 5054 01d5 3A        		.uleb128 0x3a
 5055 01d6 0B        		.uleb128 0xb
 5056 01d7 3B        		.uleb128 0x3b
 5057 01d8 05        		.uleb128 0x5
 5058 01d9 49        		.uleb128 0x49
 5059 01da 13        		.uleb128 0x13
 5060 01db 00        		.byte	0
 5061 01dc 00        		.byte	0
 5062 01dd 26        		.uleb128 0x26
 5063 01de 2E        		.uleb128 0x2e
 5064 01df 00        		.byte	0
 5065 01e0 03        		.uleb128 0x3
 5066 01e1 0E        		.uleb128 0xe
 5067 01e2 3A        		.uleb128 0x3a
 5068 01e3 0B        		.uleb128 0xb
 5069 01e4 3B        		.uleb128 0x3b
 5070 01e5 0B        		.uleb128 0xb
 5071 01e6 27        		.uleb128 0x27
 5072 01e7 0C        		.uleb128 0xc
 5073 01e8 11        		.uleb128 0x11
GAS LISTING /tmp/ccwf6aFs.s 			page 131


 5074 01e9 01        		.uleb128 0x1
 5075 01ea 12        		.uleb128 0x12
 5076 01eb 01        		.uleb128 0x1
 5077 01ec 40        		.uleb128 0x40
 5078 01ed 0A        		.uleb128 0xa
 5079 01ee 00        		.byte	0
 5080 01ef 00        		.byte	0
 5081 01f0 27        		.uleb128 0x27
 5082 01f1 2E        		.uleb128 0x2e
 5083 01f2 01        		.byte	0x1
 5084 01f3 03        		.uleb128 0x3
 5085 01f4 0E        		.uleb128 0xe
 5086 01f5 3A        		.uleb128 0x3a
 5087 01f6 0B        		.uleb128 0xb
 5088 01f7 3B        		.uleb128 0x3b
 5089 01f8 0B        		.uleb128 0xb
 5090 01f9 27        		.uleb128 0x27
 5091 01fa 0C        		.uleb128 0xc
 5092 01fb 11        		.uleb128 0x11
 5093 01fc 01        		.uleb128 0x1
 5094 01fd 12        		.uleb128 0x12
 5095 01fe 01        		.uleb128 0x1
 5096 01ff 40        		.uleb128 0x40
 5097 0200 06        		.uleb128 0x6
 5098 0201 01        		.uleb128 0x1
 5099 0202 13        		.uleb128 0x13
 5100 0203 00        		.byte	0
 5101 0204 00        		.byte	0
 5102 0205 28        		.uleb128 0x28
 5103 0206 05        		.uleb128 0x5
 5104 0207 00        		.byte	0
 5105 0208 03        		.uleb128 0x3
 5106 0209 0E        		.uleb128 0xe
 5107 020a 3A        		.uleb128 0x3a
 5108 020b 0B        		.uleb128 0xb
 5109 020c 3B        		.uleb128 0x3b
 5110 020d 0B        		.uleb128 0xb
 5111 020e 49        		.uleb128 0x49
 5112 020f 13        		.uleb128 0x13
 5113 0210 02        		.uleb128 0x2
 5114 0211 06        		.uleb128 0x6
 5115 0212 00        		.byte	0
 5116 0213 00        		.byte	0
 5117 0214 29        		.uleb128 0x29
 5118 0215 2E        		.uleb128 0x2e
 5119 0216 01        		.byte	0x1
 5120 0217 03        		.uleb128 0x3
 5121 0218 0E        		.uleb128 0xe
 5122 0219 3A        		.uleb128 0x3a
 5123 021a 0B        		.uleb128 0xb
 5124 021b 3B        		.uleb128 0x3b
 5125 021c 0B        		.uleb128 0xb
 5126 021d 27        		.uleb128 0x27
 5127 021e 0C        		.uleb128 0xc
 5128 021f 49        		.uleb128 0x49
 5129 0220 13        		.uleb128 0x13
 5130 0221 11        		.uleb128 0x11
GAS LISTING /tmp/ccwf6aFs.s 			page 132


 5131 0222 01        		.uleb128 0x1
 5132 0223 12        		.uleb128 0x12
 5133 0224 01        		.uleb128 0x1
 5134 0225 40        		.uleb128 0x40
 5135 0226 0A        		.uleb128 0xa
 5136 0227 01        		.uleb128 0x1
 5137 0228 13        		.uleb128 0x13
 5138 0229 00        		.byte	0
 5139 022a 00        		.byte	0
 5140 022b 2A        		.uleb128 0x2a
 5141 022c 05        		.uleb128 0x5
 5142 022d 00        		.byte	0
 5143 022e 03        		.uleb128 0x3
 5144 022f 08        		.uleb128 0x8
 5145 0230 3A        		.uleb128 0x3a
 5146 0231 0B        		.uleb128 0xb
 5147 0232 3B        		.uleb128 0x3b
 5148 0233 0B        		.uleb128 0xb
 5149 0234 49        		.uleb128 0x49
 5150 0235 13        		.uleb128 0x13
 5151 0236 02        		.uleb128 0x2
 5152 0237 06        		.uleb128 0x6
 5153 0238 00        		.byte	0
 5154 0239 00        		.byte	0
 5155 023a 2B        		.uleb128 0x2b
 5156 023b 2E        		.uleb128 0x2e
 5157 023c 01        		.byte	0x1
 5158 023d 3F        		.uleb128 0x3f
 5159 023e 0C        		.uleb128 0xc
 5160 023f 03        		.uleb128 0x3
 5161 0240 0E        		.uleb128 0xe
 5162 0241 3A        		.uleb128 0x3a
 5163 0242 0B        		.uleb128 0xb
 5164 0243 3B        		.uleb128 0x3b
 5165 0244 0B        		.uleb128 0xb
 5166 0245 27        		.uleb128 0x27
 5167 0246 0C        		.uleb128 0xc
 5168 0247 11        		.uleb128 0x11
 5169 0248 01        		.uleb128 0x1
 5170 0249 12        		.uleb128 0x12
 5171 024a 01        		.uleb128 0x1
 5172 024b 40        		.uleb128 0x40
 5173 024c 06        		.uleb128 0x6
 5174 024d 01        		.uleb128 0x1
 5175 024e 13        		.uleb128 0x13
 5176 024f 00        		.byte	0
 5177 0250 00        		.byte	0
 5178 0251 2C        		.uleb128 0x2c
 5179 0252 1D        		.uleb128 0x1d
 5180 0253 01        		.byte	0x1
 5181 0254 31        		.uleb128 0x31
 5182 0255 13        		.uleb128 0x13
 5183 0256 11        		.uleb128 0x11
 5184 0257 01        		.uleb128 0x1
 5185 0258 12        		.uleb128 0x12
 5186 0259 01        		.uleb128 0x1
 5187 025a 58        		.uleb128 0x58
GAS LISTING /tmp/ccwf6aFs.s 			page 133


 5188 025b 0B        		.uleb128 0xb
 5189 025c 59        		.uleb128 0x59
 5190 025d 0B        		.uleb128 0xb
 5191 025e 01        		.uleb128 0x1
 5192 025f 13        		.uleb128 0x13
 5193 0260 00        		.byte	0
 5194 0261 00        		.byte	0
 5195 0262 2D        		.uleb128 0x2d
 5196 0263 05        		.uleb128 0x5
 5197 0264 00        		.byte	0
 5198 0265 31        		.uleb128 0x31
 5199 0266 13        		.uleb128 0x13
 5200 0267 1C        		.uleb128 0x1c
 5201 0268 0B        		.uleb128 0xb
 5202 0269 00        		.byte	0
 5203 026a 00        		.byte	0
 5204 026b 2E        		.uleb128 0x2e
 5205 026c 1D        		.uleb128 0x1d
 5206 026d 01        		.byte	0x1
 5207 026e 31        		.uleb128 0x31
 5208 026f 13        		.uleb128 0x13
 5209 0270 11        		.uleb128 0x11
 5210 0271 01        		.uleb128 0x1
 5211 0272 12        		.uleb128 0x12
 5212 0273 01        		.uleb128 0x1
 5213 0274 58        		.uleb128 0x58
 5214 0275 0B        		.uleb128 0xb
 5215 0276 59        		.uleb128 0x59
 5216 0277 0B        		.uleb128 0xb
 5217 0278 00        		.byte	0
 5218 0279 00        		.byte	0
 5219 027a 2F        		.uleb128 0x2f
 5220 027b 0B        		.uleb128 0xb
 5221 027c 01        		.byte	0x1
 5222 027d 11        		.uleb128 0x11
 5223 027e 01        		.uleb128 0x1
 5224 027f 12        		.uleb128 0x12
 5225 0280 01        		.uleb128 0x1
 5226 0281 00        		.byte	0
 5227 0282 00        		.byte	0
 5228 0283 30        		.uleb128 0x30
 5229 0284 34        		.uleb128 0x34
 5230 0285 00        		.byte	0
 5231 0286 31        		.uleb128 0x31
 5232 0287 13        		.uleb128 0x13
 5233 0288 00        		.byte	0
 5234 0289 00        		.byte	0
 5235 028a 31        		.uleb128 0x31
 5236 028b 2E        		.uleb128 0x2e
 5237 028c 00        		.byte	0
 5238 028d 3F        		.uleb128 0x3f
 5239 028e 0C        		.uleb128 0xc
 5240 028f 03        		.uleb128 0x3
 5241 0290 0E        		.uleb128 0xe
 5242 0291 3A        		.uleb128 0x3a
 5243 0292 0B        		.uleb128 0xb
 5244 0293 3B        		.uleb128 0x3b
GAS LISTING /tmp/ccwf6aFs.s 			page 134


 5245 0294 0B        		.uleb128 0xb
 5246 0295 27        		.uleb128 0x27
 5247 0296 0C        		.uleb128 0xc
 5248 0297 11        		.uleb128 0x11
 5249 0298 01        		.uleb128 0x1
 5250 0299 12        		.uleb128 0x12
 5251 029a 01        		.uleb128 0x1
 5252 029b 40        		.uleb128 0x40
 5253 029c 06        		.uleb128 0x6
 5254 029d 00        		.byte	0
 5255 029e 00        		.byte	0
 5256 029f 32        		.uleb128 0x32
 5257 02a0 2E        		.uleb128 0x2e
 5258 02a1 00        		.byte	0
 5259 02a2 3F        		.uleb128 0x3f
 5260 02a3 0C        		.uleb128 0xc
 5261 02a4 03        		.uleb128 0x3
 5262 02a5 0E        		.uleb128 0xe
 5263 02a6 3A        		.uleb128 0x3a
 5264 02a7 0B        		.uleb128 0xb
 5265 02a8 3B        		.uleb128 0x3b
 5266 02a9 0B        		.uleb128 0xb
 5267 02aa 27        		.uleb128 0x27
 5268 02ab 0C        		.uleb128 0xc
 5269 02ac 11        		.uleb128 0x11
 5270 02ad 01        		.uleb128 0x1
 5271 02ae 12        		.uleb128 0x12
 5272 02af 01        		.uleb128 0x1
 5273 02b0 40        		.uleb128 0x40
 5274 02b1 0A        		.uleb128 0xa
 5275 02b2 00        		.byte	0
 5276 02b3 00        		.byte	0
 5277 02b4 33        		.uleb128 0x33
 5278 02b5 05        		.uleb128 0x5
 5279 02b6 00        		.byte	0
 5280 02b7 31        		.uleb128 0x31
 5281 02b8 13        		.uleb128 0x13
 5282 02b9 1C        		.uleb128 0x1c
 5283 02ba 05        		.uleb128 0x5
 5284 02bb 00        		.byte	0
 5285 02bc 00        		.byte	0
 5286 02bd 34        		.uleb128 0x34
 5287 02be 2E        		.uleb128 0x2e
 5288 02bf 01        		.byte	0x1
 5289 02c0 3F        		.uleb128 0x3f
 5290 02c1 0C        		.uleb128 0xc
 5291 02c2 03        		.uleb128 0x3
 5292 02c3 0E        		.uleb128 0xe
 5293 02c4 3A        		.uleb128 0x3a
 5294 02c5 0B        		.uleb128 0xb
 5295 02c6 3B        		.uleb128 0x3b
 5296 02c7 0B        		.uleb128 0xb
 5297 02c8 27        		.uleb128 0x27
 5298 02c9 0C        		.uleb128 0xc
 5299 02ca 49        		.uleb128 0x49
 5300 02cb 13        		.uleb128 0x13
 5301 02cc 11        		.uleb128 0x11
GAS LISTING /tmp/ccwf6aFs.s 			page 135


 5302 02cd 01        		.uleb128 0x1
 5303 02ce 12        		.uleb128 0x12
 5304 02cf 01        		.uleb128 0x1
 5305 02d0 40        		.uleb128 0x40
 5306 02d1 06        		.uleb128 0x6
 5307 02d2 01        		.uleb128 0x1
 5308 02d3 13        		.uleb128 0x13
 5309 02d4 00        		.byte	0
 5310 02d5 00        		.byte	0
 5311 02d6 35        		.uleb128 0x35
 5312 02d7 34        		.uleb128 0x34
 5313 02d8 00        		.byte	0
 5314 02d9 03        		.uleb128 0x3
 5315 02da 0E        		.uleb128 0xe
 5316 02db 3A        		.uleb128 0x3a
 5317 02dc 0B        		.uleb128 0xb
 5318 02dd 3B        		.uleb128 0x3b
 5319 02de 0B        		.uleb128 0xb
 5320 02df 49        		.uleb128 0x49
 5321 02e0 13        		.uleb128 0x13
 5322 02e1 02        		.uleb128 0x2
 5323 02e2 0A        		.uleb128 0xa
 5324 02e3 00        		.byte	0
 5325 02e4 00        		.byte	0
 5326 02e5 36        		.uleb128 0x36
 5327 02e6 1D        		.uleb128 0x1d
 5328 02e7 00        		.byte	0
 5329 02e8 31        		.uleb128 0x31
 5330 02e9 13        		.uleb128 0x13
 5331 02ea 11        		.uleb128 0x11
 5332 02eb 01        		.uleb128 0x1
 5333 02ec 12        		.uleb128 0x12
 5334 02ed 01        		.uleb128 0x1
 5335 02ee 58        		.uleb128 0x58
 5336 02ef 0B        		.uleb128 0xb
 5337 02f0 59        		.uleb128 0x59
 5338 02f1 0B        		.uleb128 0xb
 5339 02f2 00        		.byte	0
 5340 02f3 00        		.byte	0
 5341 02f4 37        		.uleb128 0x37
 5342 02f5 05        		.uleb128 0x5
 5343 02f6 00        		.byte	0
 5344 02f7 31        		.uleb128 0x31
 5345 02f8 13        		.uleb128 0x13
 5346 02f9 02        		.uleb128 0x2
 5347 02fa 0A        		.uleb128 0xa
 5348 02fb 00        		.byte	0
 5349 02fc 00        		.byte	0
 5350 02fd 38        		.uleb128 0x38
 5351 02fe 34        		.uleb128 0x34
 5352 02ff 00        		.byte	0
 5353 0300 31        		.uleb128 0x31
 5354 0301 13        		.uleb128 0x13
 5355 0302 02        		.uleb128 0x2
 5356 0303 0A        		.uleb128 0xa
 5357 0304 00        		.byte	0
 5358 0305 00        		.byte	0
GAS LISTING /tmp/ccwf6aFs.s 			page 136


 5359 0306 39        		.uleb128 0x39
 5360 0307 1D        		.uleb128 0x1d
 5361 0308 01        		.byte	0x1
 5362 0309 31        		.uleb128 0x31
 5363 030a 13        		.uleb128 0x13
 5364 030b 11        		.uleb128 0x11
 5365 030c 01        		.uleb128 0x1
 5366 030d 12        		.uleb128 0x12
 5367 030e 01        		.uleb128 0x1
 5368 030f 58        		.uleb128 0x58
 5369 0310 0B        		.uleb128 0xb
 5370 0311 59        		.uleb128 0x59
 5371 0312 05        		.uleb128 0x5
 5372 0313 00        		.byte	0
 5373 0314 00        		.byte	0
 5374 0315 3A        		.uleb128 0x3a
 5375 0316 05        		.uleb128 0x5
 5376 0317 00        		.byte	0
 5377 0318 31        		.uleb128 0x31
 5378 0319 13        		.uleb128 0x13
 5379 031a 02        		.uleb128 0x2
 5380 031b 06        		.uleb128 0x6
 5381 031c 00        		.byte	0
 5382 031d 00        		.byte	0
 5383 031e 3B        		.uleb128 0x3b
 5384 031f 05        		.uleb128 0x5
 5385 0320 00        		.byte	0
 5386 0321 31        		.uleb128 0x31
 5387 0322 13        		.uleb128 0x13
 5388 0323 1C        		.uleb128 0x1c
 5389 0324 0D        		.uleb128 0xd
 5390 0325 00        		.byte	0
 5391 0326 00        		.byte	0
 5392 0327 3C        		.uleb128 0x3c
 5393 0328 1D        		.uleb128 0x1d
 5394 0329 01        		.byte	0x1
 5395 032a 31        		.uleb128 0x31
 5396 032b 13        		.uleb128 0x13
 5397 032c 52        		.uleb128 0x52
 5398 032d 01        		.uleb128 0x1
 5399 032e 55        		.uleb128 0x55
 5400 032f 06        		.uleb128 0x6
 5401 0330 58        		.uleb128 0x58
 5402 0331 0B        		.uleb128 0xb
 5403 0332 59        		.uleb128 0x59
 5404 0333 0B        		.uleb128 0xb
 5405 0334 01        		.uleb128 0x1
 5406 0335 13        		.uleb128 0x13
 5407 0336 00        		.byte	0
 5408 0337 00        		.byte	0
 5409 0338 3D        		.uleb128 0x3d
 5410 0339 1D        		.uleb128 0x1d
 5411 033a 01        		.byte	0x1
 5412 033b 31        		.uleb128 0x31
 5413 033c 13        		.uleb128 0x13
 5414 033d 52        		.uleb128 0x52
 5415 033e 01        		.uleb128 0x1
GAS LISTING /tmp/ccwf6aFs.s 			page 137


 5416 033f 55        		.uleb128 0x55
 5417 0340 06        		.uleb128 0x6
 5418 0341 58        		.uleb128 0x58
 5419 0342 0B        		.uleb128 0xb
 5420 0343 59        		.uleb128 0x59
 5421 0344 05        		.uleb128 0x5
 5422 0345 00        		.byte	0
 5423 0346 00        		.byte	0
 5424 0347 3E        		.uleb128 0x3e
 5425 0348 0B        		.uleb128 0xb
 5426 0349 01        		.byte	0x1
 5427 034a 55        		.uleb128 0x55
 5428 034b 06        		.uleb128 0x6
 5429 034c 00        		.byte	0
 5430 034d 00        		.byte	0
 5431 034e 3F        		.uleb128 0x3f
 5432 034f 34        		.uleb128 0x34
 5433 0350 00        		.byte	0
 5434 0351 03        		.uleb128 0x3
 5435 0352 08        		.uleb128 0x8
 5436 0353 3A        		.uleb128 0x3a
 5437 0354 0B        		.uleb128 0xb
 5438 0355 3B        		.uleb128 0x3b
 5439 0356 0B        		.uleb128 0xb
 5440 0357 49        		.uleb128 0x49
 5441 0358 13        		.uleb128 0x13
 5442 0359 02        		.uleb128 0x2
 5443 035a 06        		.uleb128 0x6
 5444 035b 00        		.byte	0
 5445 035c 00        		.byte	0
 5446 035d 40        		.uleb128 0x40
 5447 035e 01        		.uleb128 0x1
 5448 035f 01        		.byte	0x1
 5449 0360 49        		.uleb128 0x49
 5450 0361 13        		.uleb128 0x13
 5451 0362 01        		.uleb128 0x1
 5452 0363 13        		.uleb128 0x13
 5453 0364 00        		.byte	0
 5454 0365 00        		.byte	0
 5455 0366 41        		.uleb128 0x41
 5456 0367 21        		.uleb128 0x21
 5457 0368 00        		.byte	0
 5458 0369 00        		.byte	0
 5459 036a 00        		.byte	0
 5460 036b 42        		.uleb128 0x42
 5461 036c 34        		.uleb128 0x34
 5462 036d 00        		.byte	0
 5463 036e 03        		.uleb128 0x3
 5464 036f 0E        		.uleb128 0xe
 5465 0370 3A        		.uleb128 0x3a
 5466 0371 0B        		.uleb128 0xb
 5467 0372 3B        		.uleb128 0x3b
 5468 0373 0B        		.uleb128 0xb
 5469 0374 49        		.uleb128 0x49
 5470 0375 13        		.uleb128 0x13
 5471 0376 3F        		.uleb128 0x3f
 5472 0377 0C        		.uleb128 0xc
GAS LISTING /tmp/ccwf6aFs.s 			page 138


 5473 0378 3C        		.uleb128 0x3c
 5474 0379 0C        		.uleb128 0xc
 5475 037a 00        		.byte	0
 5476 037b 00        		.byte	0
 5477 037c 43        		.uleb128 0x43
 5478 037d 21        		.uleb128 0x21
 5479 037e 00        		.byte	0
 5480 037f 49        		.uleb128 0x49
 5481 0380 13        		.uleb128 0x13
 5482 0381 2F        		.uleb128 0x2f
 5483 0382 0B        		.uleb128 0xb
 5484 0383 00        		.byte	0
 5485 0384 00        		.byte	0
 5486 0385 44        		.uleb128 0x44
 5487 0386 15        		.uleb128 0x15
 5488 0387 01        		.byte	0x1
 5489 0388 27        		.uleb128 0x27
 5490 0389 0C        		.uleb128 0xc
 5491 038a 49        		.uleb128 0x49
 5492 038b 13        		.uleb128 0x13
 5493 038c 01        		.uleb128 0x1
 5494 038d 13        		.uleb128 0x13
 5495 038e 00        		.byte	0
 5496 038f 00        		.byte	0
 5497 0390 45        		.uleb128 0x45
 5498 0391 05        		.uleb128 0x5
 5499 0392 00        		.byte	0
 5500 0393 49        		.uleb128 0x49
 5501 0394 13        		.uleb128 0x13
 5502 0395 00        		.byte	0
 5503 0396 00        		.byte	0
 5504 0397 46        		.uleb128 0x46
 5505 0398 15        		.uleb128 0x15
 5506 0399 01        		.byte	0x1
 5507 039a 27        		.uleb128 0x27
 5508 039b 0C        		.uleb128 0xc
 5509 039c 01        		.uleb128 0x1
 5510 039d 13        		.uleb128 0x13
 5511 039e 00        		.byte	0
 5512 039f 00        		.byte	0
 5513 03a0 47        		.uleb128 0x47
 5514 03a1 21        		.uleb128 0x21
 5515 03a2 00        		.byte	0
 5516 03a3 49        		.uleb128 0x49
 5517 03a4 13        		.uleb128 0x13
 5518 03a5 2F        		.uleb128 0x2f
 5519 03a6 05        		.uleb128 0x5
 5520 03a7 00        		.byte	0
 5521 03a8 00        		.byte	0
 5522 03a9 48        		.uleb128 0x48
 5523 03aa 34        		.uleb128 0x34
 5524 03ab 00        		.byte	0
 5525 03ac 03        		.uleb128 0x3
 5526 03ad 0E        		.uleb128 0xe
 5527 03ae 3A        		.uleb128 0x3a
 5528 03af 0B        		.uleb128 0xb
 5529 03b0 3B        		.uleb128 0x3b
GAS LISTING /tmp/ccwf6aFs.s 			page 139


 5530 03b1 0B        		.uleb128 0xb
 5531 03b2 49        		.uleb128 0x49
 5532 03b3 13        		.uleb128 0x13
 5533 03b4 3F        		.uleb128 0x3f
 5534 03b5 0C        		.uleb128 0xc
 5535 03b6 02        		.uleb128 0x2
 5536 03b7 0A        		.uleb128 0xa
 5537 03b8 00        		.byte	0
 5538 03b9 00        		.byte	0
 5539 03ba 00        		.byte	0
 5540               		.section	.debug_loc,"",@progbits
 5541               	.Ldebug_loc0:
 5542               	.LLST0:
 5543 0000 FE00 0000 		.long	.LFB177-.Ltext0
 5544 0004 0001 0000 		.long	.LCFI0-.Ltext0
 5545 0008 0300      		.word	0x3
 5546 000a 92        		.byte	0x92
 5547 000b 20        		.uleb128 0x20
 5548 000c 02        		.sleb128 2
 5549 000d 0001 0000 		.long	.LCFI0-.Ltext0
 5550 0011 0201 0000 		.long	.LCFI1-.Ltext0
 5551 0015 0300      		.word	0x3
 5552 0017 92        		.byte	0x92
 5553 0018 20        		.uleb128 0x20
 5554 0019 03        		.sleb128 3
 5555 001a 0201 0000 		.long	.LCFI1-.Ltext0
 5556 001e 1001 0000 		.long	.LFE177-.Ltext0
 5557 0022 0300      		.word	0x3
 5558 0024 92        		.byte	0x92
 5559 0025 20        		.uleb128 0x20
 5560 0026 04        		.sleb128 4
 5561 0027 0000 0000 		.long	0
 5562 002b 0000 0000 		.long	0
 5563               	.LLST1:
 5564 002f FE00 0000 		.long	.LVL0-.Ltext0
 5565 0033 0701 0000 		.long	.LVL1-1-.Ltext0
 5566 0037 0600      		.word	0x6
 5567 0039 68        		.byte	0x68
 5568 003a 93        		.byte	0x93
 5569 003b 01        		.uleb128 0x1
 5570 003c 69        		.byte	0x69
 5571 003d 93        		.byte	0x93
 5572 003e 01        		.uleb128 0x1
 5573 003f 0000 0000 		.long	0
 5574 0043 0000 0000 		.long	0
 5575               	.LLST2:
 5576 0047 FE00 0000 		.long	.LVL0-.Ltext0
 5577 004b 0701 0000 		.long	.LVL1-1-.Ltext0
 5578 004f 0600      		.word	0x6
 5579 0051 66        		.byte	0x66
 5580 0052 93        		.byte	0x93
 5581 0053 01        		.uleb128 0x1
 5582 0054 67        		.byte	0x67
 5583 0055 93        		.byte	0x93
 5584 0056 01        		.uleb128 0x1
 5585 0057 0701 0000 		.long	.LVL1-1-.Ltext0
 5586 005b 0E01 0000 		.long	.LVL2-.Ltext0
GAS LISTING /tmp/ccwf6aFs.s 			page 140


 5587 005f 0600      		.word	0x6
 5588 0061 6C        		.byte	0x6c
 5589 0062 93        		.byte	0x93
 5590 0063 01        		.uleb128 0x1
 5591 0064 6D        		.byte	0x6d
 5592 0065 93        		.byte	0x93
 5593 0066 01        		.uleb128 0x1
 5594 0067 0000 0000 		.long	0
 5595 006b 0000 0000 		.long	0
 5596               	.LLST3:
 5597 006f 1001 0000 		.long	.LVL3-.Ltext0
 5598 0073 1301 0000 		.long	.LVL4-1-.Ltext0
 5599 0077 0600      		.word	0x6
 5600 0079 68        		.byte	0x68
 5601 007a 93        		.byte	0x93
 5602 007b 01        		.uleb128 0x1
 5603 007c 69        		.byte	0x69
 5604 007d 93        		.byte	0x93
 5605 007e 01        		.uleb128 0x1
 5606 007f 0000 0000 		.long	0
 5607 0083 0000 0000 		.long	0
 5608               	.LLST4:
 5609 0087 1001 0000 		.long	.LVL3-.Ltext0
 5610 008b 1301 0000 		.long	.LVL4-1-.Ltext0
 5611 008f 0100      		.word	0x1
 5612 0091 66        		.byte	0x66
 5613 0092 0000 0000 		.long	0
 5614 0096 0000 0000 		.long	0
 5615               	.LLST5:
 5616 009a 1601 0000 		.long	.LFB262-.Ltext0
 5617 009e 1801 0000 		.long	.LCFI2-.Ltext0
 5618 00a2 0300      		.word	0x3
 5619 00a4 92        		.byte	0x92
 5620 00a5 20        		.uleb128 0x20
 5621 00a6 02        		.sleb128 2
 5622 00a7 1801 0000 		.long	.LCFI2-.Ltext0
 5623 00ab 1A01 0000 		.long	.LCFI3-.Ltext0
 5624 00af 0300      		.word	0x3
 5625 00b1 92        		.byte	0x92
 5626 00b2 20        		.uleb128 0x20
 5627 00b3 03        		.sleb128 3
 5628 00b4 1A01 0000 		.long	.LCFI3-.Ltext0
 5629 00b8 2201 0000 		.long	.LCFI4-.Ltext0
 5630 00bc 0300      		.word	0x3
 5631 00be 92        		.byte	0x92
 5632 00bf 20        		.uleb128 0x20
 5633 00c0 04        		.sleb128 4
 5634 00c1 2201 0000 		.long	.LCFI4-.Ltext0
 5635 00c5 2401 0000 		.long	.LCFI5-.Ltext0
 5636 00c9 0300      		.word	0x3
 5637 00cb 92        		.byte	0x92
 5638 00cc 20        		.uleb128 0x20
 5639 00cd 05        		.sleb128 5
 5640 00ce 2401 0000 		.long	.LCFI5-.Ltext0
 5641 00d2 2601 0000 		.long	.LCFI6-.Ltext0
 5642 00d6 0300      		.word	0x3
 5643 00d8 92        		.byte	0x92
GAS LISTING /tmp/ccwf6aFs.s 			page 141


 5644 00d9 20        		.uleb128 0x20
 5645 00da 06        		.sleb128 6
 5646 00db 2601 0000 		.long	.LCFI6-.Ltext0
 5647 00df 4201 0000 		.long	.LFE262-.Ltext0
 5648 00e3 0300      		.word	0x3
 5649 00e5 92        		.byte	0x92
 5650 00e6 20        		.uleb128 0x20
 5651 00e7 07        		.sleb128 7
 5652 00e8 0000 0000 		.long	0
 5653 00ec 0000 0000 		.long	0
 5654               	.LLST6:
 5655 00f0 4201 0000 		.long	.LFB263-.Ltext0
 5656 00f4 4401 0000 		.long	.LCFI7-.Ltext0
 5657 00f8 0300      		.word	0x3
 5658 00fa 92        		.byte	0x92
 5659 00fb 20        		.uleb128 0x20
 5660 00fc 02        		.sleb128 2
 5661 00fd 4401 0000 		.long	.LCFI7-.Ltext0
 5662 0101 4601 0000 		.long	.LCFI8-.Ltext0
 5663 0105 0300      		.word	0x3
 5664 0107 92        		.byte	0x92
 5665 0108 20        		.uleb128 0x20
 5666 0109 03        		.sleb128 3
 5667 010a 4601 0000 		.long	.LCFI8-.Ltext0
 5668 010e 4E01 0000 		.long	.LCFI9-.Ltext0
 5669 0112 0300      		.word	0x3
 5670 0114 92        		.byte	0x92
 5671 0115 20        		.uleb128 0x20
 5672 0116 04        		.sleb128 4
 5673 0117 4E01 0000 		.long	.LCFI9-.Ltext0
 5674 011b 5001 0000 		.long	.LCFI10-.Ltext0
 5675 011f 0300      		.word	0x3
 5676 0121 92        		.byte	0x92
 5677 0122 20        		.uleb128 0x20
 5678 0123 05        		.sleb128 5
 5679 0124 5001 0000 		.long	.LCFI10-.Ltext0
 5680 0128 5201 0000 		.long	.LCFI11-.Ltext0
 5681 012c 0300      		.word	0x3
 5682 012e 92        		.byte	0x92
 5683 012f 20        		.uleb128 0x20
 5684 0130 06        		.sleb128 6
 5685 0131 5201 0000 		.long	.LCFI11-.Ltext0
 5686 0135 5401 0000 		.long	.LCFI12-.Ltext0
 5687 0139 0300      		.word	0x3
 5688 013b 92        		.byte	0x92
 5689 013c 20        		.uleb128 0x20
 5690 013d 07        		.sleb128 7
 5691 013e 5401 0000 		.long	.LCFI12-.Ltext0
 5692 0142 5601 0000 		.long	.LCFI13-.Ltext0
 5693 0146 0300      		.word	0x3
 5694 0148 92        		.byte	0x92
 5695 0149 20        		.uleb128 0x20
 5696 014a 08        		.sleb128 8
 5697 014b 5601 0000 		.long	.LCFI13-.Ltext0
 5698 014f 5801 0000 		.long	.LCFI14-.Ltext0
 5699 0153 0300      		.word	0x3
 5700 0155 92        		.byte	0x92
GAS LISTING /tmp/ccwf6aFs.s 			page 142


 5701 0156 20        		.uleb128 0x20
 5702 0157 09        		.sleb128 9
 5703 0158 5801 0000 		.long	.LCFI14-.Ltext0
 5704 015c 5A01 0000 		.long	.LCFI15-.Ltext0
 5705 0160 0300      		.word	0x3
 5706 0162 92        		.byte	0x92
 5707 0163 20        		.uleb128 0x20
 5708 0164 0A        		.sleb128 10
 5709 0165 5A01 0000 		.long	.LCFI15-.Ltext0
 5710 0169 5C01 0000 		.long	.LCFI16-.Ltext0
 5711 016d 0300      		.word	0x3
 5712 016f 92        		.byte	0x92
 5713 0170 20        		.uleb128 0x20
 5714 0171 0B        		.sleb128 11
 5715 0172 5C01 0000 		.long	.LCFI16-.Ltext0
 5716 0176 5E01 0000 		.long	.LCFI17-.Ltext0
 5717 017a 0300      		.word	0x3
 5718 017c 92        		.byte	0x92
 5719 017d 20        		.uleb128 0x20
 5720 017e 0C        		.sleb128 12
 5721 017f 5E01 0000 		.long	.LCFI17-.Ltext0
 5722 0183 6001 0000 		.long	.LCFI18-.Ltext0
 5723 0187 0300      		.word	0x3
 5724 0189 92        		.byte	0x92
 5725 018a 20        		.uleb128 0x20
 5726 018b 0D        		.sleb128 13
 5727 018c 6001 0000 		.long	.LCFI18-.Ltext0
 5728 0190 6201 0000 		.long	.LCFI19-.Ltext0
 5729 0194 0300      		.word	0x3
 5730 0196 92        		.byte	0x92
 5731 0197 20        		.uleb128 0x20
 5732 0198 0E        		.sleb128 14
 5733 0199 6201 0000 		.long	.LCFI19-.Ltext0
 5734 019d 6401 0000 		.long	.LCFI20-.Ltext0
 5735 01a1 0300      		.word	0x3
 5736 01a3 92        		.byte	0x92
 5737 01a4 20        		.uleb128 0x20
 5738 01a5 0F        		.sleb128 15
 5739 01a6 6401 0000 		.long	.LCFI20-.Ltext0
 5740 01aa 9C01 0000 		.long	.LFE263-.Ltext0
 5741 01ae 0300      		.word	0x3
 5742 01b0 92        		.byte	0x92
 5743 01b1 20        		.uleb128 0x20
 5744 01b2 10        		.sleb128 16
 5745 01b3 0000 0000 		.long	0
 5746 01b7 0000 0000 		.long	0
 5747               	.LLST7:
 5748 01bb AE01 0000 		.long	.LFB265-.Ltext0
 5749 01bf B001 0000 		.long	.LCFI21-.Ltext0
 5750 01c3 0300      		.word	0x3
 5751 01c5 92        		.byte	0x92
 5752 01c6 20        		.uleb128 0x20
 5753 01c7 02        		.sleb128 2
 5754 01c8 B001 0000 		.long	.LCFI21-.Ltext0
 5755 01cc B201 0000 		.long	.LCFI22-.Ltext0
 5756 01d0 0300      		.word	0x3
 5757 01d2 92        		.byte	0x92
GAS LISTING /tmp/ccwf6aFs.s 			page 143


 5758 01d3 20        		.uleb128 0x20
 5759 01d4 03        		.sleb128 3
 5760 01d5 B201 0000 		.long	.LCFI22-.Ltext0
 5761 01d9 B401 0000 		.long	.LCFI23-.Ltext0
 5762 01dd 0300      		.word	0x3
 5763 01df 92        		.byte	0x92
 5764 01e0 20        		.uleb128 0x20
 5765 01e1 04        		.sleb128 4
 5766 01e2 B401 0000 		.long	.LCFI23-.Ltext0
 5767 01e6 B601 0000 		.long	.LCFI24-.Ltext0
 5768 01ea 0300      		.word	0x3
 5769 01ec 92        		.byte	0x92
 5770 01ed 20        		.uleb128 0x20
 5771 01ee 05        		.sleb128 5
 5772 01ef B601 0000 		.long	.LCFI24-.Ltext0
 5773 01f3 B801 0000 		.long	.LCFI25-.Ltext0
 5774 01f7 0300      		.word	0x3
 5775 01f9 92        		.byte	0x92
 5776 01fa 20        		.uleb128 0x20
 5777 01fb 06        		.sleb128 6
 5778 01fc B801 0000 		.long	.LCFI25-.Ltext0
 5779 0200 BA01 0000 		.long	.LCFI26-.Ltext0
 5780 0204 0300      		.word	0x3
 5781 0206 92        		.byte	0x92
 5782 0207 20        		.uleb128 0x20
 5783 0208 07        		.sleb128 7
 5784 0209 BA01 0000 		.long	.LCFI26-.Ltext0
 5785 020d F601 0000 		.long	.LFE265-.Ltext0
 5786 0211 0300      		.word	0x3
 5787 0213 92        		.byte	0x92
 5788 0214 20        		.uleb128 0x20
 5789 0215 08        		.sleb128 8
 5790 0216 0000 0000 		.long	0
 5791 021a 0000 0000 		.long	0
 5792               	.LLST8:
 5793 021e F601 0000 		.long	.LFB266-.Ltext0
 5794 0222 F801 0000 		.long	.LCFI27-.Ltext0
 5795 0226 0300      		.word	0x3
 5796 0228 92        		.byte	0x92
 5797 0229 20        		.uleb128 0x20
 5798 022a 02        		.sleb128 2
 5799 022b F801 0000 		.long	.LCFI27-.Ltext0
 5800 022f FA01 0000 		.long	.LCFI28-.Ltext0
 5801 0233 0300      		.word	0x3
 5802 0235 92        		.byte	0x92
 5803 0236 20        		.uleb128 0x20
 5804 0237 03        		.sleb128 3
 5805 0238 FA01 0000 		.long	.LCFI28-.Ltext0
 5806 023c 0002 0000 		.long	.LCFI29-.Ltext0
 5807 0240 0300      		.word	0x3
 5808 0242 92        		.byte	0x92
 5809 0243 20        		.uleb128 0x20
 5810 0244 04        		.sleb128 4
 5811 0245 0002 0000 		.long	.LCFI29-.Ltext0
 5812 0249 3804 0000 		.long	.LFE266-.Ltext0
 5813 024d 0200      		.word	0x2
 5814 024f 8C        		.byte	0x8c
GAS LISTING /tmp/ccwf6aFs.s 			page 144


 5815 0250 12        		.sleb128 18
 5816 0251 0000 0000 		.long	0
 5817 0255 0000 0000 		.long	0
 5818               	.LLST9:
 5819 0259 C002 0000 		.long	.LVL13-.Ltext0
 5820 025d D002 0000 		.long	.LVL15-.Ltext0
 5821 0261 0200      		.word	0x2
 5822 0263 38        		.byte	0x38
 5823 0264 9F        		.byte	0x9f
 5824 0265 D002 0000 		.long	.LVL15-.Ltext0
 5825 0269 E402 0000 		.long	.LVL17-.Ltext0
 5826 026d 0200      		.word	0x2
 5827 026f 39        		.byte	0x39
 5828 0270 9F        		.byte	0x9f
 5829 0271 E402 0000 		.long	.LVL17-.Ltext0
 5830 0275 F802 0000 		.long	.LVL19-.Ltext0
 5831 0279 0200      		.word	0x2
 5832 027b 3A        		.byte	0x3a
 5833 027c 9F        		.byte	0x9f
 5834 027d F802 0000 		.long	.LVL19-.Ltext0
 5835 0281 F203 0000 		.long	.LVL30-.Ltext0
 5836 0285 0200      		.word	0x2
 5837 0287 3B        		.byte	0x3b
 5838 0288 9F        		.byte	0x9f
 5839 0289 F203 0000 		.long	.LVL30-.Ltext0
 5840 028d 3804 0000 		.long	.LFE266-.Ltext0
 5841 0291 0200      		.word	0x2
 5842 0293 41        		.byte	0x41
 5843 0294 9F        		.byte	0x9f
 5844 0295 0000 0000 		.long	0
 5845 0299 0000 0000 		.long	0
 5846               	.LLST14:
 5847 029d FA03 0000 		.long	.LVL32-.Ltext0
 5848 02a1 1604 0000 		.long	.LVL33-.Ltext0
 5849 02a5 0200      		.word	0x2
 5850 02a7 30        		.byte	0x30
 5851 02a8 9F        		.byte	0x9f
 5852 02a9 1C04 0000 		.long	.LVL34-.Ltext0
 5853 02ad 2204 0000 		.long	.LVL35-.Ltext0
 5854 02b1 0600      		.word	0x6
 5855 02b3 62        		.byte	0x62
 5856 02b4 93        		.byte	0x93
 5857 02b5 01        		.uleb128 0x1
 5858 02b6 63        		.byte	0x63
 5859 02b7 93        		.byte	0x93
 5860 02b8 01        		.uleb128 0x1
 5861 02b9 0000 0000 		.long	0
 5862 02bd 0000 0000 		.long	0
 5863               		.section	.debug_aranges,"",@progbits
 5864 0000 1C00 0000 		.long	0x1c
 5865 0004 0200      		.word	0x2
 5866 0006 0000 0000 		.long	.Ldebug_info0
 5867 000a 04        		.byte	0x4
 5868 000b 00        		.byte	0
 5869 000c 0000      		.word	0
 5870 000e 0000      		.word	0
 5871 0010 0000 0000 		.long	.Ltext0
GAS LISTING /tmp/ccwf6aFs.s 			page 145


 5872 0014 3804 0000 		.long	.Letext0-.Ltext0
 5873 0018 0000 0000 		.long	0
 5874 001c 0000 0000 		.long	0
 5875               		.section	.debug_ranges,"",@progbits
 5876               	.Ldebug_ranges0:
 5877 0000 D603 0000 		.long	.LBB202-.Ltext0
 5878 0004 E203 0000 		.long	.LBE202-.Ltext0
 5879 0008 F203 0000 		.long	.LBB208-.Ltext0
 5880 000c F603 0000 		.long	.LBE208-.Ltext0
 5881 0010 0000 0000 		.long	0
 5882 0014 0000 0000 		.long	0
 5883 0018 D603 0000 		.long	.LBB203-.Ltext0
 5884 001c E203 0000 		.long	.LBE203-.Ltext0
 5885 0020 F203 0000 		.long	.LBB206-.Ltext0
 5886 0024 F603 0000 		.long	.LBE206-.Ltext0
 5887 0028 0000 0000 		.long	0
 5888 002c 0000 0000 		.long	0
 5889 0030 D603 0000 		.long	.LBB204-.Ltext0
 5890 0034 E203 0000 		.long	.LBE204-.Ltext0
 5891 0038 F203 0000 		.long	.LBB205-.Ltext0
 5892 003c F603 0000 		.long	.LBE205-.Ltext0
 5893 0040 0000 0000 		.long	0
 5894 0044 0000 0000 		.long	0
 5895 0048 E403 0000 		.long	.LBB207-.Ltext0
 5896 004c F203 0000 		.long	.LBE207-.Ltext0
 5897 0050 FA03 0000 		.long	.LBB209-.Ltext0
 5898 0054 2204 0000 		.long	.LBE209-.Ltext0
 5899 0058 0000 0000 		.long	0
 5900 005c 0000 0000 		.long	0
 5901               		.section	.debug_line,"",@progbits
 5902               	.Ldebug_line0:
 5903 0000 9304 0000 		.section	.debug_str,"MS",@progbits,1
 5903      0200 4903 
 5903      0000 0201 
 5903      FB0E 0A00 
 5903      0101 0101 
 5904               	.LASF154:
 5905 0000 5443 5F57 		.string	"TC_WGMODE_DSTOP_gc"
 5905      474D 4F44 
 5905      455F 4453 
 5905      544F 505F 
 5905      6763 00
 5906               	.LASF15:
 5907 0013 534C 4545 		.string	"SLEEP_SMODE_PSAVE_gc"
 5907      505F 534D 
 5907      4F44 455F 
 5907      5053 4156 
 5907      455F 6763 
 5908               	.LASF310:
 5909 0028 7372 632F 		.string	"src/main.c"
 5909      6D61 696E 
 5909      2E63 00
 5910               	.LASF58:
 5911 0033 5045 524C 		.string	"PERL"
 5911      00
 5912               	.LASF213:
 5913 0038 4552 525F 		.string	"ERR_BAD_FORMAT"
GAS LISTING /tmp/ccwf6aFs.s 			page 146


 5913      4241 445F 
 5913      464F 524D 
 5913      4154 00
 5914               	.LASF114:
 5915 0047 7265 7365 		.string	"reserved_0x22"
 5915      7276 6564 
 5915      5F30 7832 
 5915      3200 
 5916               	.LASF115:
 5917 0055 7265 7365 		.string	"reserved_0x23"
 5917      7276 6564 
 5917      5F30 7832 
 5917      3300 
 5918               	.LASF116:
 5919 0063 7265 7365 		.string	"reserved_0x24"
 5919      7276 6564 
 5919      5F30 7832 
 5919      3400 
 5920               	.LASF117:
 5921 0071 7265 7365 		.string	"reserved_0x25"
 5921      7276 6564 
 5921      5F30 7832 
 5921      3500 
 5922               	.LASF32:
 5923 007f 494E 5431 		.string	"INT1MASK"
 5923      4D41 534B 
 5923      00
 5924               	.LASF296:
 5925 0088 675F 7573 		.string	"g_usartData"
 5925      6172 7444 
 5925      6174 6100 
 5926               	.LASF73:
 5927 0094 4343 4142 		.string	"CCABUF"
 5927      5546 00
 5928               	.LASF126:
 5929 009b 7265 7365 		.string	"reserved_0x2C"
 5929      7276 6564 
 5929      5F30 7832 
 5929      4300 
 5930               	.LASF127:
 5931 00a9 7265 7365 		.string	"reserved_0x2D"
 5931      7276 6564 
 5931      5F30 7832 
 5931      4400 
 5932               	.LASF128:
 5933 00b7 7265 7365 		.string	"reserved_0x2E"
 5933      7276 6564 
 5933      5F30 7832 
 5933      4500 
 5934               	.LASF129:
 5935 00c5 7265 7365 		.string	"reserved_0x2F"
 5935      7276 6564 
 5935      5F30 7832 
 5935      4600 
 5936               	.LASF167:
 5937 00d3 5553 4152 		.string	"USART_CHSIZE_5BIT_gc"
 5937      545F 4348 
GAS LISTING /tmp/ccwf6aFs.s 			page 147


 5937      5349 5A45 
 5937      5F35 4249 
 5937      545F 6763 
 5938               	.LASF130:
 5939 00e8 5443 315F 		.string	"TC1_t"
 5939      7400 
 5940               	.LASF217:
 5941 00ee 6261 7564 		.string	"baudrate"
 5941      7261 7465 
 5941      00
 5942               	.LASF203:
 5943 00f7 4552 525F 		.string	"ERR_IO_ERROR"
 5943      494F 5F45 
 5943      5252 4F52 
 5943      00
 5944               	.LASF90:
 5945 0104 494E 5443 		.string	"INTCTRLA"
 5945      5452 4C41 
 5945      00
 5946               	.LASF34:
 5947 010d 7265 7365 		.string	"reserved_0x0D"
 5947      7276 6564 
 5947      5F30 7830 
 5947      4400 
 5948               	.LASF246:
 5949 011b 5354 4154 		.string	"STATE_CHECKSUM"
 5949      455F 4348 
 5949      4543 4B53 
 5949      554D 00
 5950               	.LASF35:
 5951 012a 5245 4D41 		.string	"REMAP"
 5951      5000 
 5952               	.LASF36:
 5953 0130 7265 7365 		.string	"reserved_0x0F"
 5953      7276 6564 
 5953      5F30 7830 
 5953      4600 
 5954               	.LASF4:
 5955 013e 756E 7369 		.string	"unsigned int"
 5955      676E 6564 
 5955      2069 6E74 
 5955      00
 5956               	.LASF288:
 5957 014b 736C 6565 		.string	"sleepmgr_locks"
 5957      706D 6772 
 5957      5F6C 6F63 
 5957      6B73 00
 5958               	.LASF175:
 5959 015a 5553 4152 		.string	"USART_PMODE_EVEN_gc"
 5959      545F 504D 
 5959      4F44 455F 
 5959      4556 454E 
 5959      5F67 6300 
 5960               	.LASF153:
 5961 016e 5443 5F57 		.string	"TC_WGMODE_SS_gc"
 5961      474D 4F44 
 5961      455F 5353 
GAS LISTING /tmp/ccwf6aFs.s 			page 148


 5961      5F67 6300 
 5962               	.LASF160:
 5963 017e 5553 4152 		.string	"USART_struct"
 5963      545F 7374 
 5963      7275 6374 
 5963      00
 5964               	.LASF174:
 5965 018b 5553 4152 		.string	"USART_PMODE_DISABLED_gc"
 5965      545F 504D 
 5965      4F44 455F 
 5965      4449 5341 
 5965      424C 4544 
 5966               	.LASF186:
 5967 01a3 5359 5343 		.string	"SYSCLK_PORT_A"
 5967      4C4B 5F50 
 5967      4F52 545F 
 5967      4100 
 5968               	.LASF118:
 5969 01b1 7265 7365 		.string	"reserved_0x30"
 5969      7276 6564 
 5969      5F30 7833 
 5969      3000 
 5970               	.LASF119:
 5971 01bf 7265 7365 		.string	"reserved_0x31"
 5971      7276 6564 
 5971      5F30 7833 
 5971      3100 
 5972               	.LASF120:
 5973 01cd 7265 7365 		.string	"reserved_0x32"
 5973      7276 6564 
 5973      5F30 7833 
 5973      3200 
 5974               	.LASF196:
 5975 01db 706D 6963 		.string	"pmic_level"
 5975      5F6C 6576 
 5975      656C 00
 5976               	.LASF43:
 5977 01e6 5049 4E36 		.string	"PIN6CTRL"
 5977      4354 524C 
 5977      00
 5978               	.LASF123:
 5979 01ef 7265 7365 		.string	"reserved_0x35"
 5979      7276 6564 
 5979      5F30 7833 
 5979      3500 
 5980               	.LASF269:
 5981 01fd 7374 6469 		.string	"stdio_serial_init"
 5981      6F5F 7365 
 5981      7269 616C 
 5981      5F69 6E69 
 5981      7400 
 5982               	.LASF172:
 5983 020f 5553 4152 		.string	"USART_CHSIZE_t"
 5983      545F 4348 
 5983      5349 5A45 
 5983      5F74 00
 5984               	.LASF228:
GAS LISTING /tmp/ccwf6aFs.s 			page 149


 5985 021e 7573 6172 		.string	"usart_serial_options_t"
 5985      745F 7365 
 5985      7269 616C 
 5985      5F6F 7074 
 5985      696F 6E73 
 5986               	.LASF40:
 5987 0235 5049 4E33 		.string	"PIN3CTRL"
 5987      4354 524C 
 5987      00
 5988               	.LASF260:
 5989 023e 6C65 7665 		.string	"level"
 5989      6C00 
 5990               	.LASF146:
 5991 0244 5443 5F43 		.string	"TC_CLKSEL_EVCH6_gc"
 5991      4C4B 5345 
 5991      4C5F 4556 
 5991      4348 365F 
 5991      6763 00
 5992               	.LASF227:
 5993 0257 5553 4152 		.string	"USART_INT_LVL_HI"
 5993      545F 494E 
 5993      545F 4C56 
 5993      4C5F 4849 
 5993      00
 5994               	.LASF61:
 5995 0268 4343 4148 		.string	"CCAH"
 5995      00
 5996               	.LASF60:
 5997 026d 4343 414C 		.string	"CCAL"
 5997      00
 5998               	.LASF137:
 5999 0272 5443 5F43 		.string	"TC_CLKSEL_DIV64_gc"
 5999      4C4B 5345 
 5999      4C5F 4449 
 5999      5636 345F 
 5999      6763 00
 6000               	.LASF19:
 6001 0285 494E 5450 		.string	"INTPRI"
 6001      5249 00
 6002               	.LASF51:
 6003 028c 504F 5254 		.string	"PORT_OPC_PULLUP_gc"
 6003      5F4F 5043 
 6003      5F50 554C 
 6003      4C55 505F 
 6003      6763 00
 6004               	.LASF212:
 6005 029f 4552 525F 		.string	"ERR_BUSY"
 6005      4255 5359 
 6005      00
 6006               	.LASF249:
 6007 02a8 424C 4143 		.string	"BLACKOUT"
 6007      4B4F 5554 
 6007      00
 6008               	.LASF152:
 6009 02b1 5443 5F57 		.string	"TC_WGMODE_SINGLESLOPE_gc"
 6009      474D 4F44 
 6009      455F 5349 
GAS LISTING /tmp/ccwf6aFs.s 			page 150


 6009      4E47 4C45 
 6009      534C 4F50 
 6010               	.LASF47:
 6011 02ca 504F 5254 		.string	"PORT_OPC_enum"
 6011      5F4F 5043 
 6011      5F65 6E75 
 6011      6D00 
 6012               	.LASF125:
 6013 02d8 5443 315F 		.string	"TC1_struct"
 6013      7374 7275 
 6013      6374 00
 6014               	.LASF37:
 6015 02e3 5049 4E30 		.string	"PIN0CTRL"
 6015      4354 524C 
 6015      00
 6016               	.LASF169:
 6017 02ec 5553 4152 		.string	"USART_CHSIZE_7BIT_gc"
 6017      545F 4348 
 6017      5349 5A45 
 6017      5F37 4249 
 6017      545F 6763 
 6018               	.LASF286:
 6019 0301 7370 695F 		.string	"spi_init_module"
 6019      696E 6974 
 6019      5F6D 6F64 
 6019      756C 6500 
 6020               	.LASF81:
 6021 0311 4343 4442 		.string	"CCDBUFH"
 6021      5546 4800 
 6022               	.LASF284:
 6023 0319 7370 695F 		.string	"spi_init_pins"
 6023      696E 6974 
 6023      5F70 696E 
 6023      7300 
 6024               	.LASF29:
 6025 0327 4F55 5454 		.string	"OUTTGL"
 6025      474C 00
 6026               	.LASF80:
 6027 032e 4343 4442 		.string	"CCDBUFL"
 6027      5546 4C00 
 6028               	.LASF79:
 6029 0336 4343 4342 		.string	"CCCBUF"
 6029      5546 00
 6030               	.LASF289:
 6031 033d 736C 6565 		.string	"sleepmgr_configs"
 6031      706D 6772 
 6031      5F63 6F6E 
 6031      6669 6773 
 6031      00
 6032               	.LASF171:
 6033 034e 5553 4152 		.string	"USART_CHSIZE_9BIT_gc"
 6033      545F 4348 
 6033      5349 5A45 
 6033      5F39 4249 
 6033      545F 6763 
 6034               	.LASF63:
 6035 0363 4343 4248 		.string	"CCBH"
GAS LISTING /tmp/ccwf6aFs.s 			page 151


 6035      00
 6036               	.LASF112:
 6037 0368 7265 7365 		.string	"reserved_0x1E"
 6037      7276 6564 
 6037      5F30 7831 
 6037      4500 
 6038               	.LASF222:
 6039 0376 7573 6172 		.string	"usart_rs232_options_t"
 6039      745F 7273 
 6039      3233 325F 
 6039      6F70 7469 
 6039      6F6E 735F 
 6040               	.LASF25:
 6041 038c 4449 5243 		.string	"DIRCLR"
 6041      4C52 00
 6042               	.LASF151:
 6043 0393 5443 5F57 		.string	"TC_WGMODE_FRQ_gc"
 6043      474D 4F44 
 6043      455F 4652 
 6043      515F 6763 
 6043      00
 6044               	.LASF182:
 6045 03a4 666C 6F61 		.string	"float"
 6045      7400 
 6046               	.LASF262:
 6047 03aa 6261 7365 		.string	"base"
 6047      00
 6048               	.LASF205:
 6049 03af 4552 525F 		.string	"ERR_TIMEOUT"
 6049      5449 4D45 
 6049      4F55 5400 
 6050               	.LASF197:
 6051 03bb 504D 4943 		.string	"PMIC_LVL_LOW"
 6051      5F4C 564C 
 6051      5F4C 4F57 
 6051      00
 6052               	.LASF72:
 6053 03c8 4343 4142 		.string	"CCABUFH"
 6053      5546 4800 
 6054               	.LASF71:
 6055 03d0 4343 4142 		.string	"CCABUFL"
 6055      5546 4C00 
 6056               	.LASF141:
 6057 03d8 5443 5F43 		.string	"TC_CLKSEL_EVCH1_gc"
 6057      4C4B 5345 
 6057      4C5F 4556 
 6057      4348 315F 
 6057      6763 00
 6058               	.LASF230:
 6059 03eb 7463 5F77 		.string	"tc_wg_mode_t"
 6059      675F 6D6F 
 6059      6465 5F74 
 6059      00
 6060               	.LASF10:
 6061 03f8 6C6F 6E67 		.string	"long long unsigned int"
 6061      206C 6F6E 
 6061      6720 756E 
GAS LISTING /tmp/ccwf6aFs.s 			page 152


 6061      7369 676E 
 6061      6564 2069 
 6062               	.LASF211:
 6063 040f 4552 525F 		.string	"ERR_BAD_ADDRESS"
 6063      4241 445F 
 6063      4144 4452 
 6063      4553 5300 
 6064               	.LASF311:
 6065 041f 2F68 6F6D 		.ascii	"/home/jevans/Dropbox/projects/openlights/hardware/1"
 6065      652F 6A65 
 6065      7661 6E73 
 6065      2F44 726F 
 6065      7062 6F78 
 6066 0452 3230 3039 		.string	"2009_Strip_Controller/firmware/strandcontroller/StrandController"
 6066      5F53 7472 
 6066      6970 5F43 
 6066      6F6E 7472 
 6066      6F6C 6C65 
 6067               	.LASF161:
 6068 0493 4441 5441 		.string	"DATA"
 6068      00
 6069               	.LASF65:
 6070 0498 4343 4348 		.string	"CCCH"
 6070      00
 6071               	.LASF64:
 6072 049d 4343 434C 		.string	"CCCL"
 6072      00
 6073               	.LASF187:
 6074 04a2 5359 5343 		.string	"SYSCLK_PORT_B"
 6074      4C4B 5F50 
 6074      4F52 545F 
 6074      4200 
 6075               	.LASF266:
 6076 04b0 6172 6368 		.string	"arch_ioport_set_pin_level"
 6076      5F69 6F70 
 6076      6F72 745F 
 6076      7365 745F 
 6076      7069 6E5F 
 6077               	.LASF231:
 6078 04ca 5443 5F57 		.string	"TC_WG_NORMAL"
 6078      475F 4E4F 
 6078      524D 414C 
 6078      00
 6079               	.LASF133:
 6080 04d7 5443 5F43 		.string	"TC_CLKSEL_DIV1_gc"
 6080      4C4B 5345 
 6080      4C5F 4449 
 6080      5631 5F67 
 6080      6300 
 6081               	.LASF242:
 6082 04e9 5354 4154 		.string	"STATE_IDLE"
 6082      455F 4944 
 6082      4C45 00
 6083               	.LASF21:
 6084 04f4 504D 4943 		.string	"PMIC_t"
 6084      5F74 00
 6085               	.LASF31:
GAS LISTING /tmp/ccwf6aFs.s 			page 153


 6086 04fb 494E 5430 		.string	"INT0MASK"
 6086      4D41 534B 
 6086      00
 6087               	.LASF255:
 6088 0504 6172 6368 		.string	"arch_ioport_pin_to_port_id"
 6088      5F69 6F70 
 6088      6F72 745F 
 6088      7069 6E5F 
 6088      746F 5F70 
 6089               	.LASF199:
 6090 051f 504D 4943 		.string	"PMIC_LVL_HIGH"
 6090      5F4C 564C 
 6090      5F48 4947 
 6090      4800 
 6091               	.LASF237:
 6092 052d 5443 5F49 		.string	"TC_INT_LEVEL_t"
 6092      4E54 5F4C 
 6092      4556 454C 
 6092      5F74 00
 6093               	.LASF256:
 6094 053c 6172 6368 		.string	"arch_ioport_port_to_base"
 6094      5F69 6F70 
 6094      6F72 745F 
 6094      706F 7274 
 6094      5F74 6F5F 
 6095               	.LASF243:
 6096 0555 5354 4154 		.string	"STATE_START"
 6096      455F 5354 
 6096      4152 5400 
 6097               	.LASF192:
 6098 0561 696F 706F 		.string	"ioport_pin_t"
 6098      7274 5F70 
 6098      696E 5F74 
 6098      00
 6099               	.LASF283:
 6100 056e 5F5F 7665 		.string	"__vector_25"
 6100      6374 6F72 
 6100      5F32 3500 
 6101               	.LASF285:
 6102 057a 5F5F 7665 		.string	"__vector_26"
 6102      6374 6F72 
 6102      5F32 3600 
 6103               	.LASF254:
 6104 0586 4745 545F 		.string	"GET_NUM_LEDS"
 6104      4E55 4D5F 
 6104      4C45 4453 
 6104      00
 6105               	.LASF155:
 6106 0593 5443 5F57 		.string	"TC_WGMODE_DS_T_gc"
 6106      474D 4F44 
 6106      455F 4453 
 6106      5F54 5F67 
 6106      6300 
 6107               	.LASF67:
 6108 05a5 4343 4448 		.string	"CCDH"
 6108      00
 6109               	.LASF302:
GAS LISTING /tmp/ccwf6aFs.s 			page 154


 6110 05aa 675F 7573 		.string	"g_usbCommand"
 6110      6243 6F6D 
 6110      6D61 6E64 
 6110      00
 6111               	.LASF66:
 6112 05b7 4343 444C 		.string	"CCDL"
 6112      00
 6113               	.LASF221:
 6114 05bc 5F42 6F6F 		.string	"_Bool"
 6114      6C00 
 6115               	.LASF272:
 6116 05c2 706D 6963 		.string	"pmic_init"
 6116      5F69 6E69 
 6116      7400 
 6117               	.LASF261:
 6118 05cc 6172 6368 		.string	"arch_ioport_get_pin_level"
 6118      5F69 6F70 
 6118      6F72 745F 
 6118      6765 745F 
 6118      7069 6E5F 
 6119               	.LASF95:
 6120 05e6 4354 524C 		.string	"CTRLGSET"
 6120      4753 4554 
 6120      00
 6121               	.LASF24:
 6122 05ef 4449 5253 		.string	"DIRSET"
 6122      4554 00
 6123               	.LASF178:
 6124 05f6 5350 495F 		.string	"SPI_struct"
 6124      7374 7275 
 6124      6374 00
 6125               	.LASF33:
 6126 0601 494E 5446 		.string	"INTFLAGS"
 6126      4C41 4753 
 6126      00
 6127               	.LASF70:
 6128 060a 5045 5242 		.string	"PERBUF"
 6128      5546 00
 6129               	.LASF210:
 6130 0611 4552 525F 		.string	"ERR_INVALID_ARG"
 6130      494E 5641 
 6130      4C49 445F 
 6130      4152 4700 
 6131               	.LASF49:
 6132 0621 504F 5254 		.string	"PORT_OPC_BUSKEEPER_gc"
 6132      5F4F 5043 
 6132      5F42 5553 
 6132      4B45 4550 
 6132      4552 5F67 
 6133               	.LASF295:
 6134 0637 675F 6164 		.string	"g_address"
 6134      6472 6573 
 6134      7300 
 6135               	.LASF45:
 6136 0641 504F 5254 		.string	"PORT_t"
 6136      5F74 00
 6137               	.LASF224:
GAS LISTING /tmp/ccwf6aFs.s 			page 155


 6138 0648 5553 4152 		.string	"USART_INT_LVL_OFF"
 6138      545F 494E 
 6138      545F 4C56 
 6138      4C5F 4F46 
 6138      4600 
 6139               	.LASF46:
 6140 065a 534C 4545 		.string	"SLEEP_SMODE_enum"
 6140      505F 534D 
 6140      4F44 455F 
 6140      656E 756D 
 6140      00
 6141               	.LASF232:
 6142 066b 5443 5F57 		.string	"TC_WG_FRQ"
 6142      475F 4652 
 6142      5100 
 6143               	.LASF143:
 6144 0675 5443 5F43 		.string	"TC_CLKSEL_EVCH3_gc"
 6144      4C4B 5345 
 6144      4C5F 4556 
 6144      4348 335F 
 6144      6763 00
 6145               	.LASF225:
 6146 0688 5553 4152 		.string	"USART_INT_LVL_LO"
 6146      545F 494E 
 6146      545F 4C56 
 6146      4C5F 4C4F 
 6146      00
 6147               	.LASF297:
 6148 0699 7469 636B 		.string	"ticks"
 6148      7300 
 6149               	.LASF303:
 6150 069f 675F 7573 		.string	"g_usbDataLength"
 6150      6244 6174 
 6150      614C 656E 
 6150      6774 6800 
 6151               	.LASF209:
 6152 06af 4552 525F 		.string	"ERR_NO_MEMORY"
 6152      4E4F 5F4D 
 6152      454D 4F52 
 6152      5900 
 6153               	.LASF275:
 6154 06bd 7463 5F73 		.string	"tc_set_wgm"
 6154      6574 5F77 
 6154      676D 00
 6155               	.LASF48:
 6156 06c8 504F 5254 		.string	"PORT_OPC_TOTEM_gc"
 6156      5F4F 5043 
 6156      5F54 4F54 
 6156      454D 5F67 
 6156      6300 
 6157               	.LASF12:
 6158 06da 6368 6172 		.string	"char"
 6158      00
 6159               	.LASF150:
 6160 06df 5443 5F57 		.string	"TC_WGMODE_NORMAL_gc"
 6160      474D 4F44 
 6160      455F 4E4F 
GAS LISTING /tmp/ccwf6aFs.s 			page 156


 6160      524D 414C 
 6160      5F67 6300 
 6161               	.LASF215:
 6162 06f3 7370 695F 		.string	"spi_device"
 6162      6465 7669 
 6162      6365 00
 6163               	.LASF301:
 6164 06fe 675F 636D 		.string	"g_cmdState"
 6164      6453 7461 
 6164      7465 00
 6165               	.LASF42:
 6166 0709 5049 4E35 		.string	"PIN5CTRL"
 6166      4354 524C 
 6166      00
 6167               	.LASF277:
 6168 0712 7065 725F 		.string	"per_value"
 6168      7661 6C75 
 6168      6500 
 6169               	.LASF28:
 6170 071c 4F55 5443 		.string	"OUTCLR"
 6170      4C52 00
 6171               	.LASF121:
 6172 0723 7265 7365 		.string	"reserved_0x33"
 6172      7276 6564 
 6172      5F30 7833 
 6172      3300 
 6173               	.LASF122:
 6174 0731 7265 7365 		.string	"reserved_0x34"
 6174      7276 6564 
 6174      5F30 7833 
 6174      3400 
 6175               	.LASF156:
 6176 073f 5443 5F57 		.string	"TC_WGMODE_DSBOTH_gc"
 6176      474D 4F44 
 6176      455F 4453 
 6176      424F 5448 
 6176      5F67 6300 
 6177               	.LASF282:
 6178 0753 6461 7461 		.string	"data"
 6178      00
 6179               	.LASF134:
 6180 0758 5443 5F43 		.string	"TC_CLKSEL_DIV2_gc"
 6180      4C4B 5345 
 6180      4C5F 4449 
 6180      5632 5F67 
 6180      6300 
 6181               	.LASF291:
 6182 076a 6261 7564 		.string	"baudctrl_32mhz"
 6182      6374 726C 
 6182      5F33 326D 
 6182      687A 00
 6183               	.LASF2:
 6184 0779 7569 6E74 		.string	"uint8_t"
 6184      385F 7400 
 6185               	.LASF292:
 6186 0781 7374 6469 		.string	"stdio_base"
 6186      6F5F 6261 
GAS LISTING /tmp/ccwf6aFs.s 			page 157


 6186      7365 00
 6187               	.LASF94:
 6188 078c 4354 524C 		.string	"CTRLGCLR"
 6188      4743 4C52 
 6188      00
 6189               	.LASF304:
 6190 0795 675F 7573 		.string	"g_usbDataCount"
 6190      6244 6174 
 6190      6143 6F75 
 6190      6E74 00
 6191               	.LASF39:
 6192 07a4 5049 4E32 		.string	"PIN2CTRL"
 6192      4354 524C 
 6192      00
 6193               	.LASF166:
 6194 07ad 5553 4152 		.string	"USART_CHSIZE_enum"
 6194      545F 4348 
 6194      5349 5A45 
 6194      5F65 6E75 
 6194      6D00 
 6195               	.LASF313:
 6196 07bf 7573 6172 		.string	"usart_serial_putchar"
 6196      745F 7365 
 6196      7269 616C 
 6196      5F70 7574 
 6196      6368 6172 
 6197               	.LASF267:
 6198 07d4 696F 706F 		.string	"ioport_set_pin_low"
 6198      7274 5F73 
 6198      6574 5F70 
 6198      696E 5F6C 
 6198      6F77 00
 6199               	.LASF142:
 6200 07e7 5443 5F43 		.string	"TC_CLKSEL_EVCH2_gc"
 6200      4C4B 5345 
 6200      4C5F 4556 
 6200      4348 325F 
 6200      6763 00
 6201               	.LASF132:
 6202 07fa 5443 5F43 		.string	"TC_CLKSEL_OFF_gc"
 6202      4C4B 5345 
 6202      4C5F 4F46 
 6202      465F 6763 
 6202      00
 6203               	.LASF264:
 6204 080b 7573 6172 		.string	"usart"
 6204      7400 
 6205               	.LASF131:
 6206 0811 5443 5F43 		.string	"TC_CLKSEL_enum"
 6206      4C4B 5345 
 6206      4C5F 656E 
 6206      756D 00
 6207               	.LASF179:
 6208 0820 5350 495F 		.string	"SPI_t"
 6208      7400 
 6209               	.LASF165:
 6210 0826 5553 4152 		.string	"USART_t"
GAS LISTING /tmp/ccwf6aFs.s 			page 158


 6210      545F 7400 
 6211               	.LASF293:
 6212 082e 7074 725F 		.string	"ptr_put"
 6212      7075 7400 
 6213               	.LASF52:
 6214 0836 504F 5254 		.string	"PORT_OPC_WIREDOR_gc"
 6214      5F4F 5043 
 6214      5F57 4952 
 6214      4544 4F52 
 6214      5F67 6300 
 6215               	.LASF8:
 6216 084a 6C6F 6E67 		.string	"long long int"
 6216      206C 6F6E 
 6216      6720 696E 
 6216      7400 
 6217               	.LASF158:
 6218 0858 5443 5F57 		.string	"TC_WGMODE_DSBOTTOM_gc"
 6218      474D 4F44 
 6218      455F 4453 
 6218      424F 5454 
 6218      4F4D 5F67 
 6219               	.LASF159:
 6220 086e 5443 5F57 		.string	"TC_WGMODE_DS_B_gc"
 6220      474D 4F44 
 6220      455F 4453 
 6220      5F42 5F67 
 6220      6300 
 6221               	.LASF97:
 6222 0880 5445 4D50 		.string	"TEMP"
 6222      00
 6223               	.LASF78:
 6224 0885 4343 4342 		.string	"CCCBUFH"
 6224      5546 4800 
 6225               	.LASF77:
 6226 088d 4343 4342 		.string	"CCCBUFL"
 6226      5546 4C00 
 6227               	.LASF59:
 6228 0895 5045 5248 		.string	"PERH"
 6228      00
 6229               	.LASF294:
 6230 089a 7074 725F 		.string	"ptr_get"
 6230      6765 7400 
 6231               	.LASF145:
 6232 08a2 5443 5F43 		.string	"TC_CLKSEL_EVCH5_gc"
 6232      4C4B 5345 
 6232      4C5F 4556 
 6232      4348 355F 
 6232      6763 00
 6233               	.LASF258:
 6234 08b5 6172 6368 		.string	"arch_ioport_pin_to_base"
 6234      5F69 6F70 
 6234      6F72 745F 
 6234      7069 6E5F 
 6234      746F 5F62 
 6235               	.LASF96:
 6236 08cd 7265 7365 		.string	"reserved_0x0E"
 6236      7276 6564 
GAS LISTING /tmp/ccwf6aFs.s 			page 159


 6236      5F30 7830 
 6236      4500 
 6237               	.LASF226:
 6238 08db 5553 4152 		.string	"USART_INT_LVL_MED"
 6238      545F 494E 
 6238      545F 4C56 
 6238      4C5F 4D45 
 6238      4400 
 6239               	.LASF241:
 6240 08ed 5443 5F49 		.string	"TC_INT_LVL_HI"
 6240      4E54 5F4C 
 6240      564C 5F48 
 6240      4900 
 6241               	.LASF208:
 6242 08fb 4552 525F 		.string	"ERR_UNSUPPORTED_DEV"
 6242      554E 5355 
 6242      5050 4F52 
 6242      5445 445F 
 6242      4445 5600 
 6243               	.LASF245:
 6244 090f 5354 4154 		.string	"STATE_RECEIVE"
 6244      455F 5245 
 6244      4345 4956 
 6244      4500 
 6245               	.LASF30:
 6246 091d 494E 5443 		.string	"INTCTRL"
 6246      5452 4C00 
 6247               	.LASF287:
 6248 0925 7573 6172 		.string	"usart_params"
 6248      745F 7061 
 6248      7261 6D73 
 6248      00
 6249               	.LASF298:
 6250 0932 6E75 6D5F 		.string	"num_leds"
 6250      6C65 6473 
 6250      00
 6251               	.LASF274:
 6252 093b 7573 6172 		.string	"usart_rx_enable"
 6252      745F 7278 
 6252      5F65 6E61 
 6252      626C 6500 
 6253               	.LASF251:
 6254 094b 5345 545F 		.string	"SET_ALL_RGB"
 6254      414C 4C5F 
 6254      5247 4200 
 6255               	.LASF184:
 6256 0957 7379 7363 		.string	"sysclk_port_id"
 6256      6C6B 5F70 
 6256      6F72 745F 
 6256      6964 00
 6257               	.LASF139:
 6258 0966 5443 5F43 		.string	"TC_CLKSEL_DIV1024_gc"
 6258      4C4B 5345 
 6258      4C5F 4449 
 6258      5631 3032 
 6258      345F 6763 
 6259               	.LASF308:
GAS LISTING /tmp/ccwf6aFs.s 			page 160


 6260 097b 7374 6172 		.string	"start_bootloader"
 6260      745F 626F 
 6260      6F74 6C6F 
 6260      6164 6572 
 6260      00
 6261               	.LASF149:
 6262 098c 5443 5F57 		.string	"TC_WGMODE_enum"
 6262      474D 4F44 
 6262      455F 656E 
 6262      756D 00
 6263               	.LASF299:
 6264 099b 6461 7461 		.string	"data_buffer"
 6264      5F62 7566 
 6264      6665 7200 
 6265               	.LASF218:
 6266 09a7 6368 6172 		.string	"charlength"
 6266      6C65 6E67 
 6266      7468 00
 6267               	.LASF252:
 6268 09b2 4944 454E 		.string	"IDENTIFY"
 6268      5449 4659 
 6268      00
 6269               	.LASF173:
 6270 09bb 5553 4152 		.string	"USART_PMODE_enum"
 6270      545F 504D 
 6270      4F44 455F 
 6270      656E 756D 
 6270      00
 6271               	.LASF135:
 6272 09cc 5443 5F43 		.string	"TC_CLKSEL_DIV4_gc"
 6272      4C4B 5345 
 6272      4C5F 4449 
 6272      5634 5F67 
 6272      6300 
 6273               	.LASF276:
 6274 09de 7463 5F77 		.string	"tc_write_period"
 6274      7269 7465 
 6274      5F70 6572 
 6274      696F 6400 
 6275               	.LASF168:
 6276 09ee 5553 4152 		.string	"USART_CHSIZE_6BIT_gc"
 6276      545F 4348 
 6276      5349 5A45 
 6276      5F36 4249 
 6276      545F 6763 
 6277               	.LASF76:
 6278 0a03 4343 4242 		.string	"CCBBUF"
 6278      5546 00
 6279               	.LASF268:
 6280 0a0a 7370 695F 		.string	"spi_enable"
 6280      656E 6162 
 6280      6C65 00
 6281               	.LASF290:
 6282 0a15 6261 7564 		.string	"baudctrl_2mhz"
 6282      6374 726C 
 6282      5F32 6D68 
 6282      7A00 
GAS LISTING /tmp/ccwf6aFs.s 			page 161


 6283               	.LASF26:
 6284 0a23 4449 5254 		.string	"DIRTGL"
 6284      474C 00
 6285               	.LASF238:
 6286 0a2a 5443 5F49 		.string	"TC_INT_LVL_OFF"
 6286      4E54 5F4C 
 6286      564C 5F4F 
 6286      4646 00
 6287               	.LASF181:
 6288 0a39 7368 6F72 		.string	"short unsigned int"
 6288      7420 756E 
 6288      7369 676E 
 6288      6564 2069 
 6288      6E74 00
 6289               	.LASF235:
 6290 0a4c 5443 5F57 		.string	"TC_WG_DS_TB"
 6290      475F 4453 
 6290      5F54 4200 
 6291               	.LASF300:
 6292 0a58 6469 7274 		.string	"dirty"
 6292      7900 
 6293               	.LASF3:
 6294 0a5e 7569 6E74 		.string	"uint16_t"
 6294      3136 5F74 
 6294      00
 6295               	.LASF170:
 6296 0a67 5553 4152 		.string	"USART_CHSIZE_8BIT_gc"
 6296      545F 4348 
 6296      5349 5A45 
 6296      5F38 4249 
 6296      545F 6763 
 6297               	.LASF84:
 6298 0a7c 4354 524C 		.string	"CTRLA"
 6298      4100 
 6299               	.LASF85:
 6300 0a82 4354 524C 		.string	"CTRLB"
 6300      4200 
 6301               	.LASF86:
 6302 0a88 4354 524C 		.string	"CTRLC"
 6302      4300 
 6303               	.LASF229:
 6304 0a8e 7573 6172 		.string	"usart_if"
 6304      745F 6966 
 6304      00
 6305               	.LASF88:
 6306 0a97 4354 524C 		.string	"CTRLE"
 6306      4500 
 6307               	.LASF270:
 6308 0a9d 7573 6172 		.string	"usart_set_rx_interrupt_level"
 6308      745F 7365 
 6308      745F 7278 
 6308      5F69 6E74 
 6308      6572 7275 
 6309               	.LASF50:
 6310 0aba 504F 5254 		.string	"PORT_OPC_PULLDOWN_gc"
 6310      5F4F 5043 
 6310      5F50 554C 
GAS LISTING /tmp/ccwf6aFs.s 			page 162


 6310      4C44 4F57 
 6310      4E5F 6763 
 6311               	.LASF202:
 6312 0acf 5354 4154 		.string	"STATUS_OK"
 6312      5553 5F4F 
 6312      4B00 
 6313               	.LASF140:
 6314 0ad9 5443 5F43 		.string	"TC_CLKSEL_EVCH0_gc"
 6314      4C4B 5345 
 6314      4C5F 4556 
 6314      4348 305F 
 6314      6763 00
 6315               	.LASF27:
 6316 0aec 4F55 5453 		.string	"OUTSET"
 6316      4554 00
 6317               	.LASF207:
 6318 0af3 4552 525F 		.string	"ERR_PROTOCOL"
 6318      5052 4F54 
 6318      4F43 4F4C 
 6318      00
 6319               	.LASF253:
 6320 0b00 5345 545F 		.string	"SET_NUM_LEDS"
 6320      4E55 4D5F 
 6320      4C45 4453 
 6320      00
 6321               	.LASF22:
 6322 0b0d 504D 4943 		.string	"PMIC_struct"
 6322      5F73 7472 
 6322      7563 7400 
 6323               	.LASF5:
 6324 0b19 6C6F 6E67 		.string	"long int"
 6324      2069 6E74 
 6324      00
 6325               	.LASF190:
 6326 0b22 5359 5343 		.string	"SYSCLK_PORT_E"
 6326      4C4B 5F50 
 6326      4F52 545F 
 6326      4500 
 6327               	.LASF265:
 6328 0b30 6F70 7469 		.string	"options"
 6328      6F6E 7300 
 6329               	.LASF191:
 6330 0b38 5359 5343 		.string	"SYSCLK_PORT_F"
 6330      4C4B 5F50 
 6330      4F52 545F 
 6330      4600 
 6331               	.LASF307:
 6332 0b46 434F 4D4D 		.string	"COMMAND_TYPE"
 6332      414E 445F 
 6332      5459 5045 
 6332      00
 6333               	.LASF147:
 6334 0b53 5443 5F43 		.string	"TC_CLKSEL_EVCH7_gc"
 6334      4C4B 5345 
 6334      4C5F 4556 
 6334      4348 375F 
 6334      6763 00
GAS LISTING /tmp/ccwf6aFs.s 			page 163


 6335               	.LASF198:
 6336 0b66 504D 4943 		.string	"PMIC_LVL_MEDIUM"
 6336      5F4C 564C 
 6336      5F4D 4544 
 6336      4955 4D00 
 6337               	.LASF305:
 6338 0b76 6475 6D6D 		.string	"dummy_device"
 6338      795F 6465 
 6338      7669 6365 
 6338      00
 6339               	.LASF124:
 6340 0b83 5443 305F 		.string	"TC0_t"
 6340      7400 
 6341               	.LASF44:
 6342 0b89 5049 4E37 		.string	"PIN7CTRL"
 6342      4354 524C 
 6342      00
 6343               	.LASF138:
 6344 0b92 5443 5F43 		.string	"TC_CLKSEL_DIV256_gc"
 6344      4C4B 5345 
 6344      4C5F 4449 
 6344      5632 3536 
 6344      5F67 6300 
 6345               	.LASF87:
 6346 0ba6 4354 524C 		.string	"CTRLD"
 6346      4400 
 6347               	.LASF57:
 6348 0bac 434E 5448 		.string	"CNTH"
 6348      00
 6349               	.LASF236:
 6350 0bb1 5443 5F57 		.string	"TC_WG_DS_B"
 6350      475F 4453 
 6350      5F42 00
 6351               	.LASF56:
 6352 0bbc 434E 544C 		.string	"CNTL"
 6352      00
 6353               	.LASF23:
 6354 0bc1 504F 5254 		.string	"PORT_struct"
 6354      5F73 7472 
 6354      7563 7400 
 6355               	.LASF233:
 6356 0bcd 5443 5F57 		.string	"TC_WG_SS"
 6356      475F 5353 
 6356      00
 6357               	.LASF279:
 6358 0bd6 7463 5F73 		.string	"tc_set_overflow_interrupt_level"
 6358      6574 5F6F 
 6358      7665 7266 
 6358      6C6F 775F 
 6358      696E 7465 
 6359               	.LASF240:
 6360 0bf6 5443 5F49 		.string	"TC_INT_LVL_MED"
 6360      4E54 5F4C 
 6360      564C 5F4D 
 6360      4544 00
 6361               	.LASF234:
 6362 0c05 5443 5F57 		.string	"TC_WG_DS_T"
GAS LISTING /tmp/ccwf6aFs.s 			page 164


 6362      475F 4453 
 6362      5F54 00
 6363               	.LASF41:
 6364 0c10 5049 4E34 		.string	"PIN4CTRL"
 6364      4354 524C 
 6364      00
 6365               	.LASF82:
 6366 0c19 4343 4442 		.string	"CCDBUF"
 6366      5546 00
 6367               	.LASF223:
 6368 0c20 7573 6172 		.string	"usart_int_level_t"
 6368      745F 696E 
 6368      745F 6C65 
 6368      7665 6C5F 
 6368      7400 
 6369               	.LASF93:
 6370 0c32 4354 524C 		.string	"CTRLFSET"
 6370      4653 4554 
 6370      00
 6371               	.LASF195:
 6372 0c3b 706F 7274 		.string	"port_pin_t"
 6372      5F70 696E 
 6372      5F74 00
 6373               	.LASF11:
 6374 0c46 7569 6E74 		.string	"uintptr_t"
 6374      7074 725F 
 6374      7400 
 6375               	.LASF281:
 6376 0c50 7374 7261 		.string	"strand_output_isr"
 6376      6E64 5F6F 
 6376      7574 7075 
 6376      745F 6973 
 6376      7200 
 6377               	.LASF53:
 6378 0c62 504F 5254 		.string	"PORT_OPC_WIREDAND_gc"
 6378      5F4F 5043 
 6378      5F57 4952 
 6378      4544 414E 
 6378      445F 6763 
 6379               	.LASF206:
 6380 0c77 4552 525F 		.string	"ERR_BAD_DATA"
 6380      4241 445F 
 6380      4441 5441 
 6380      00
 6381               	.LASF83:
 6382 0c84 5443 305F 		.string	"TC0_struct"
 6382      7374 7275 
 6382      6374 00
 6383               	.LASF7:
 6384 0c8f 6C6F 6E67 		.string	"long unsigned int"
 6384      2075 6E73 
 6384      6967 6E65 
 6384      6420 696E 
 6384      7400 
 6385               	.LASF248:
 6386 0ca1 5345 545F 		.string	"SET_ARRAY"
 6386      4152 5241 
GAS LISTING /tmp/ccwf6aFs.s 			page 165


 6386      5900 
 6387               	.LASF62:
 6388 0cab 4343 424C 		.string	"CCBL"
 6388      00
 6389               	.LASF263:
 6390 0cb0 7573 6172 		.string	"usart_serial_init"
 6390      745F 7365 
 6390      7269 616C 
 6390      5F69 6E69 
 6390      7400 
 6391               	.LASF257:
 6392 0cc2 706F 7274 		.string	"port"
 6392      00
 6393               	.LASF17:
 6394 0cc7 534C 4545 		.string	"SLEEP_SMODE_ESTDBY_gc"
 6394      505F 534D 
 6394      4F44 455F 
 6394      4553 5444 
 6394      4259 5F67 
 6395               	.LASF69:
 6396 0cdd 5045 5242 		.string	"PERBUFH"
 6396      5546 4800 
 6397               	.LASF312:
 6398 0ce5 7573 6172 		.string	"usart_serial_getchar"
 6398      745F 7365 
 6398      7269 616C 
 6398      5F67 6574 
 6398      6368 6172 
 6399               	.LASF68:
 6400 0cfa 5045 5242 		.string	"PERBUFL"
 6400      5546 4C00 
 6401               	.LASF244:
 6402 0d02 5354 4154 		.string	"STATE_ADDRESS"
 6402      455F 4144 
 6402      4452 4553 
 6402      5300 
 6403               	.LASF306:
 6404 0d10 5553 425F 		.string	"USB_STATE"
 6404      5354 4154 
 6404      4500 
 6405               	.LASF239:
 6406 0d1a 5443 5F49 		.string	"TC_INT_LVL_LO"
 6406      4E54 5F4C 
 6406      564C 5F4C 
 6406      4F00 
 6407               	.LASF1:
 6408 0d28 756E 7369 		.string	"unsigned char"
 6408      676E 6564 
 6408      2063 6861 
 6408      7200 
 6409               	.LASF309:
 6410 0d36 474E 5520 		.string	"GNU C 4.6.2"
 6410      4320 342E 
 6410      362E 3200 
 6411               	.LASF163:
 6412 0d42 4241 5544 		.string	"BAUDCTRLA"
 6412      4354 524C 
GAS LISTING /tmp/ccwf6aFs.s 			page 166


 6412      4100 
 6413               	.LASF164:
 6414 0d4c 4241 5544 		.string	"BAUDCTRLB"
 6414      4354 524C 
 6414      4200 
 6415               	.LASF204:
 6416 0d56 4552 525F 		.string	"ERR_FLUSHED"
 6416      464C 5553 
 6416      4845 4400 
 6417               	.LASF54:
 6418 0d62 504F 5254 		.string	"PORT_OPC_WIREDORPULL_gc"
 6418      5F4F 5043 
 6418      5F57 4952 
 6418      4544 4F52 
 6418      5055 4C4C 
 6419               	.LASF176:
 6420 0d7a 5553 4152 		.string	"USART_PMODE_ODD_gc"
 6420      545F 504D 
 6420      4F44 455F 
 6420      4F44 445F 
 6420      6763 00
 6421               	.LASF280:
 6422 0d8d 7469 636B 		.string	"tick_isr"
 6422      5F69 7372 
 6422      00
 6423               	.LASF91:
 6424 0d96 494E 5443 		.string	"INTCTRLB"
 6424      5452 4C42 
 6424      00
 6425               	.LASF193:
 6426 0d9f 696F 706F 		.string	"ioport_port_t"
 6426      7274 5F70 
 6426      6F72 745F 
 6426      7400 
 6427               	.LASF200:
 6428 0dad 504D 4943 		.string	"PMIC_LVL_NMI"
 6428      5F4C 564C 
 6428      5F4E 4D49 
 6428      00
 6429               	.LASF92:
 6430 0dba 4354 524C 		.string	"CTRLFCLR"
 6430      4643 4C52 
 6430      00
 6431               	.LASF9:
 6432 0dc3 7569 6E74 		.string	"uint64_t"
 6432      3634 5F74 
 6432      00
 6433               	.LASF75:
 6434 0dcc 4343 4242 		.string	"CCBBUFH"
 6434      5546 4800 
 6435               	.LASF188:
 6436 0dd4 5359 5343 		.string	"SYSCLK_PORT_C"
 6436      4C4B 5F50 
 6436      4F52 545F 
 6436      4300 
 6437               	.LASF189:
 6438 0de2 5359 5343 		.string	"SYSCLK_PORT_D"
GAS LISTING /tmp/ccwf6aFs.s 			page 167


 6438      4C4B 5F50 
 6438      4F52 545F 
 6438      4400 
 6439               	.LASF74:
 6440 0df0 4343 4242 		.string	"CCBBUFL"
 6440      5546 4C00 
 6441               	.LASF157:
 6442 0df8 5443 5F57 		.string	"TC_WGMODE_DS_TB_gc"
 6442      474D 4F44 
 6442      455F 4453 
 6442      5F54 425F 
 6442      6763 00
 6443               	.LASF38:
 6444 0e0b 5049 4E31 		.string	"PIN1CTRL"
 6444      4354 524C 
 6444      00
 6445               	.LASF162:
 6446 0e14 7265 7365 		.string	"reserved_0x02"
 6446      7276 6564 
 6446      5F30 7830 
 6446      3200 
 6447               	.LASF250:
 6448 0e22 5345 545F 		.string	"SET_ALL"
 6448      414C 4C00 
 6449               	.LASF89:
 6450 0e2a 7265 7365 		.string	"reserved_0x05"
 6450      7276 6564 
 6450      5F30 7830 
 6450      3500 
 6451               	.LASF247:
 6452 0e38 5354 4154 		.string	"STATE_DONE"
 6452      455F 444F 
 6452      4E45 00
 6453               	.LASF259:
 6454 0e43 6172 6368 		.string	"arch_ioport_pin_to_mask"
 6454      5F69 6F70 
 6454      6F72 745F 
 6454      7069 6E5F 
 6454      746F 5F6D 
 6455               	.LASF14:
 6456 0e5b 534C 4545 		.string	"SLEEP_SMODE_PDOWN_gc"
 6456      505F 534D 
 6456      4F44 455F 
 6456      5044 4F57 
 6456      4E5F 6763 
 6457               	.LASF201:
 6458 0e70 7374 6174 		.string	"status_code"
 6458      7573 5F63 
 6458      6F64 6500 
 6459               	.LASF16:
 6460 0e7c 534C 4545 		.string	"SLEEP_SMODE_STDBY_gc"
 6460      505F 534D 
 6460      4F44 455F 
 6460      5354 4442 
 6460      595F 6763 
 6461               	.LASF0:
 6462 0e91 7369 676E 		.string	"signed char"
GAS LISTING /tmp/ccwf6aFs.s 			page 168


 6462      6564 2063 
 6462      6861 7200 
 6463               	.LASF136:
 6464 0e9d 5443 5F43 		.string	"TC_CLKSEL_DIV8_gc"
 6464      4C4B 5345 
 6464      4C5F 4449 
 6464      5638 5F67 
 6464      6300 
 6465               	.LASF273:
 6466 0eaf 7564 635F 		.string	"udc_attach"
 6466      6174 7461 
 6466      6368 00
 6467               	.LASF314:
 6468 0eba 6D61 696E 		.string	"main"
 6468      00
 6469               	.LASF180:
 6470 0ebf 7368 6F72 		.string	"short int"
 6470      7420 696E 
 6470      7400 
 6471               	.LASF216:
 6472 0ec9 7573 6172 		.string	"usart_rs232_options"
 6472      745F 7273 
 6472      3233 325F 
 6472      6F70 7469 
 6472      6F6E 7300 
 6473               	.LASF278:
 6474 0edd 7463 5F77 		.string	"tc_write_clock_source"
 6474      7269 7465 
 6474      5F63 6C6F 
 6474      636B 5F73 
 6474      6F75 7263 
 6475               	.LASF144:
 6476 0ef3 5443 5F43 		.string	"TC_CLKSEL_EVCH4_gc"
 6476      4C4B 5345 
 6476      4C5F 4556 
 6476      4348 345F 
 6476      6763 00
 6477               	.LASF185:
 6478 0f06 5359 5343 		.string	"SYSCLK_PORT_GEN"
 6478      4C4B 5F50 
 6478      4F52 545F 
 6478      4745 4E00 
 6479               	.LASF183:
 6480 0f16 646F 7562 		.string	"double"
 6480      6C65 00
 6481               	.LASF148:
 6482 0f1d 5443 5F43 		.string	"TC_CLKSEL_t"
 6482      4C4B 5345 
 6482      4C5F 7400 
 6483               	.LASF18:
 6484 0f29 5354 4154 		.string	"STATUS"
 6484      5553 00
 6485               	.LASF194:
 6486 0f30 696F 706F 		.string	"ioport_port_mask_t"
 6486      7274 5F70 
 6486      6F72 745F 
 6486      6D61 736B 
GAS LISTING /tmp/ccwf6aFs.s 			page 169


 6486      5F74 00
 6487               	.LASF98:
 6488 0f43 7265 7365 		.string	"reserved_0x10"
 6488      7276 6564 
 6488      5F30 7831 
 6488      3000 
 6489               	.LASF99:
 6490 0f51 7265 7365 		.string	"reserved_0x11"
 6490      7276 6564 
 6490      5F30 7831 
 6490      3100 
 6491               	.LASF100:
 6492 0f5f 7265 7365 		.string	"reserved_0x12"
 6492      7276 6564 
 6492      5F30 7831 
 6492      3200 
 6493               	.LASF101:
 6494 0f6d 7265 7365 		.string	"reserved_0x13"
 6494      7276 6564 
 6494      5F30 7831 
 6494      3300 
 6495               	.LASF102:
 6496 0f7b 7265 7365 		.string	"reserved_0x14"
 6496      7276 6564 
 6496      5F30 7831 
 6496      3400 
 6497               	.LASF103:
 6498 0f89 7265 7365 		.string	"reserved_0x15"
 6498      7276 6564 
 6498      5F30 7831 
 6498      3500 
 6499               	.LASF104:
 6500 0f97 7265 7365 		.string	"reserved_0x16"
 6500      7276 6564 
 6500      5F30 7831 
 6500      3600 
 6501               	.LASF105:
 6502 0fa5 7265 7365 		.string	"reserved_0x17"
 6502      7276 6564 
 6502      5F30 7831 
 6502      3700 
 6503               	.LASF106:
 6504 0fb3 7265 7365 		.string	"reserved_0x18"
 6504      7276 6564 
 6504      5F30 7831 
 6504      3800 
 6505               	.LASF107:
 6506 0fc1 7265 7365 		.string	"reserved_0x19"
 6506      7276 6564 
 6506      5F30 7831 
 6506      3900 
 6507               	.LASF6:
 6508 0fcf 7569 6E74 		.string	"uint32_t"
 6508      3332 5F74 
 6508      00
 6509               	.LASF271:
 6510 0fd8 696F 706F 		.string	"ioport_get_pin_level"
GAS LISTING /tmp/ccwf6aFs.s 			page 170


 6510      7274 5F67 
 6510      6574 5F70 
 6510      696E 5F6C 
 6510      6576 656C 
 6511               	.LASF108:
 6512 0fed 7265 7365 		.string	"reserved_0x1A"
 6512      7276 6564 
 6512      5F30 7831 
 6512      4100 
 6513               	.LASF109:
 6514 0ffb 7265 7365 		.string	"reserved_0x1B"
 6514      7276 6564 
 6514      5F30 7831 
 6514      4200 
 6515               	.LASF110:
 6516 1009 7265 7365 		.string	"reserved_0x1C"
 6516      7276 6564 
 6516      5F30 7831 
 6516      4300 
 6517               	.LASF111:
 6518 1017 7265 7365 		.string	"reserved_0x1D"
 6518      7276 6564 
 6518      5F30 7831 
 6518      4400 
 6519               	.LASF55:
 6520 1025 504F 5254 		.string	"PORT_OPC_WIREDANDPULL_gc"
 6520      5F4F 5043 
 6520      5F57 4952 
 6520      4544 414E 
 6520      4450 554C 
 6521               	.LASF113:
 6522 103e 7265 7365 		.string	"reserved_0x1F"
 6522      7276 6564 
 6522      5F30 7831 
 6522      4600 
 6523               	.LASF214:
 6524 104c 4F50 4552 		.string	"OPERATION_IN_PROGRESS"
 6524      4154 494F 
 6524      4E5F 494E 
 6524      5F50 524F 
 6524      4752 4553 
 6525               	.LASF177:
 6526 1062 5553 4152 		.string	"USART_PMODE_t"
 6526      545F 504D 
 6526      4F44 455F 
 6526      7400 
 6527               	.LASF220:
 6528 1070 7374 6F70 		.string	"stopbits"
 6528      6269 7473 
 6528      00
 6529               	.LASF20:
 6530 1079 4354 524C 		.string	"CTRL"
 6530      00
 6531               	.LASF219:
 6532 107e 7061 7269 		.string	"paritytype"
 6532      7479 7479 
 6532      7065 00
GAS LISTING /tmp/ccwf6aFs.s 			page 171


 6533               	.LASF13:
 6534 1089 534C 4545 		.string	"SLEEP_SMODE_IDLE_gc"
 6534      505F 534D 
 6534      4F44 455F 
 6534      4944 4C45 
 6534      5F67 6300 
GAS LISTING /tmp/ccwf6aFs.s 			page 172


DEFINED SYMBOLS
                            *ABS*:0000000000000000 main.c
     /tmp/ccwf6aFs.s:2      *ABS*:000000000000003f __SREG__
     /tmp/ccwf6aFs.s:3      *ABS*:000000000000003e __SP_H__
     /tmp/ccwf6aFs.s:4      *ABS*:000000000000003d __SP_L__
     /tmp/ccwf6aFs.s:5      *ABS*:0000000000000034 __CCP__
     /tmp/ccwf6aFs.s:6      *ABS*:0000000000000000 __tmp_reg__
     /tmp/ccwf6aFs.s:7      *ABS*:0000000000000001 __zero_reg__
     /tmp/ccwf6aFs.s:14     .text:0000000000000000 tick_isr
     /tmp/ccwf6aFs.s:123    .text:00000000000000ca strand_output_isr
     /tmp/ccwf6aFs.s:161    .text:00000000000000fe usart_serial_getchar
     /tmp/ccwf6aFs.s:194    .text:0000000000000110 usart_serial_putchar
     /tmp/ccwf6aFs.s:214    .text:0000000000000116 __vector_26
     /tmp/ccwf6aFs.s:282    .text:0000000000000142 __vector_25
     /tmp/ccwf6aFs.s:386    .text:000000000000019c spi_init_pins
     /tmp/ccwf6aFs.s:414    .text:00000000000001ae spi_init_module
     /tmp/ccwf6aFs.s:981    .data:0000000000000000 dummy_device
     /tmp/ccwf6aFs.s:490    .text:00000000000001f6 main
     /tmp/ccwf6aFs.s:986    .data:0000000000000001 start_bootloader
                            *COM*:0000000000000001 COMMAND_TYPE
                            *COM*:0000000000000001 USB_STATE

UNDEFINED SYMBOLS
__do_copy_data
__do_clear_bss
ticks
g_cmdState
dirty
num_leds
data_buffer
spi_write_packet
usart_getchar
usart_putchar
g_usartData
process_usb
spi_master_init
spi_master_setup_device
sysclk_init
stdio_base
ptr_put
ptr_get
sysclk_enable_module
usart_init_rs232
_write
_read
fdevopen
board_init
g_address
g_usbDataLength
g_usbDataCount
udc_start
udd_attach
tc_enable
tc_set_overflow_interrupt_callback
g_usbCommand
process_command
udi_cdc_is_tx_ready
GAS LISTING /tmp/ccwf6aFs.s 			page 173


