GAS LISTING /tmp/ccUM190a.s 			page 1


   1               		.file	"usb.c"
   2               	__SREG__ = 0x3f
   3               	__SP_H__ = 0x3e
   4               	__SP_L__ = 0x3d
   5               	__CCP__ = 0x34
   6               	__tmp_reg__ = 0
   7               	__zero_reg__ = 1
   8               		.global __do_copy_data
   9               		.global __do_clear_bss
  10               		.text
  11               	.Ltext0:
  12               		.cfi_sections	.debug_frame
  13               	.global	usb_checksum
  14               		.type	usb_checksum, @function
  15               	usb_checksum:
  16               	.LFB255:
  17               		.file 1 "src/usb.c"
   1:src/usb.c     **** /*
   2:src/usb.c     ****  * usb.c
   3:src/usb.c     ****  *
   4:src/usb.c     ****  * Created: 11/3/2012 3:53:12 PM
   5:src/usb.c     ****  *  Author: Jon
   6:src/usb.c     ****  */ 
   7:src/usb.c     **** 
   8:src/usb.c     **** #include <asf.h>
   9:src/usb.c     **** 
  10:src/usb.c     **** #include "globals.h"
  11:src/usb.c     **** #include "usb.h"
  12:src/usb.c     **** #include "commands.h"
  13:src/usb.c     **** #include "pins.h"
  14:src/usb.c     **** 
  15:src/usb.c     **** 
  16:src/usb.c     **** void process_usb(bool from_isr)
  17:src/usb.c     **** {
  18:src/usb.c     **** 	uint8_t inbyte, checksum, usb_ready;
  19:src/usb.c     **** 
  20:src/usb.c     **** 	usb_ready = udi_cdc_is_rx_ready();
  21:src/usb.c     **** 
  22:src/usb.c     **** 	if (usb_ready || from_isr) {
  23:src/usb.c     **** 		
  24:src/usb.c     **** 		PORTA.OUTSET = (1<<7);
  25:src/usb.c     **** 
  26:src/usb.c     **** 		if (usb_ready) {
  27:src/usb.c     **** 			inbyte = udi_cdc_getc();
  28:src/usb.c     **** 			//ioport_set_pin_high(RS485_REn);
  29:src/usb.c     **** 			ioport_set_pin_high(RS485_DE);
  30:src/usb.c     **** 			usart_putchar(&USARTC0, inbyte);
  31:src/usb.c     **** 		} else {
  32:src/usb.c     **** 			inbyte = g_usartData;
  33:src/usb.c     **** 		}			
  34:src/usb.c     **** 
  35:src/usb.c     **** 		switch (g_cmdState) {
  36:src/usb.c     **** 			case STATE_IDLE:
  37:src/usb.c     **** 				// Wait for start sequence
  38:src/usb.c     **** 				if (inbyte == USB_START_BYTE) {
  39:src/usb.c     **** 					g_cmdState = STATE_ADDRESS;					
  40:src/usb.c     **** 				}
GAS LISTING /tmp/ccUM190a.s 			page 2


  41:src/usb.c     **** 				udi_cdc_putc(0x01);
  42:src/usb.c     **** 				break;
  43:src/usb.c     **** 
  44:src/usb.c     **** 			case STATE_ADDRESS:
  45:src/usb.c     **** 				if ((inbyte == 0x00) || inbyte == g_address) {
  46:src/usb.c     **** 					g_usbDataCount = 0;
  47:src/usb.c     **** 					g_cmdState = STATE_START;
  48:src/usb.c     **** 				} else {
  49:src/usb.c     **** 					g_cmdState = STATE_IDLE;
  50:src/usb.c     **** 					// TODO: It might be better to read in the data length and know
  51:src/usb.c     **** 					// to ignore the next N bytes
  52:src/usb.c     **** 				}
  53:src/usb.c     **** 				udi_cdc_putc(0x01);
  54:src/usb.c     **** 				break;
  55:src/usb.c     **** 
  56:src/usb.c     **** 			case STATE_START:
  57:src/usb.c     **** 				if (g_usbDataCount == 0) {
  58:src/usb.c     **** 					g_usbCommand = inbyte;
  59:src/usb.c     **** 					g_usbDataCount++;
  60:src/usb.c     **** 					//udi_cdc_putc(0x02);
  61:src/usb.c     **** 				} else if (g_usbDataCount == 1) {
  62:src/usb.c     **** 					g_usbDataLength = inbyte;
  63:src/usb.c     **** 					g_usbDataCount++;
  64:src/usb.c     **** 					//udi_cdc_putc(0x03);
  65:src/usb.c     **** 				} else {
  66:src/usb.c     **** 					g_usbDataLength += (inbyte << 8);
  67:src/usb.c     **** 					udi_cdc_putc(0x01);
  68:src/usb.c     **** 					if (g_usbDataLength > (USB_BUFFER_SIZE - 1)) {
  69:src/usb.c     **** 						g_usbDataLength = USB_BUFFER_SIZE - 1;
  70:src/usb.c     **** 					}
  71:src/usb.c     **** 					
  72:src/usb.c     **** 					g_usbDataCount = 0;
  73:src/usb.c     **** 					g_cmdState = STATE_RECEIVE;
  74:src/usb.c     **** 					//udi_cdc_putc(0x04);
  75:src/usb.c     **** 					PORTA.OUTSET = (1<<6);
  76:src/usb.c     **** 				}
  77:src/usb.c     **** 				break;
  78:src/usb.c     **** 
  79:src/usb.c     **** 			case STATE_RECEIVE:
  80:src/usb.c     **** 				if (g_usbDataCount < g_usbDataLength) {
  81:src/usb.c     **** 					g_usbDataBuffer[g_usbDataCount] = inbyte;
  82:src/usb.c     **** 					//udi_cdc_putc(inbyte);
  83:src/usb.c     **** 					g_usbDataCount++;
  84:src/usb.c     **** 				} else {
  85:src/usb.c     **** 					g_cmdState = STATE_CHECKSUM;
  86:src/usb.c     **** 					
  87:src/usb.c     **** 					if (usb_checksum(inbyte, &checksum)) {
  88:src/usb.c     **** 						//udi_cdc_putc(0x06);
  89:src/usb.c     **** 						process_command();
  90:src/usb.c     **** 					} else {
  91:src/usb.c     **** 						//udi_cdc_putc(0xFF);
  92:src/usb.c     **** 						//udi_cdc_putc(checksum);
  93:src/usb.c     **** 					}
  94:src/usb.c     **** 					g_cmdState = STATE_IDLE;
  95:src/usb.c     **** 				}
  96:src/usb.c     **** 				
  97:src/usb.c     **** 				break;
GAS LISTING /tmp/ccUM190a.s 			page 3


  98:src/usb.c     **** 
  99:src/usb.c     **** 			case STATE_CHECKSUM:
 100:src/usb.c     **** 				if (usb_checksum(inbyte, &checksum)) {
 101:src/usb.c     **** 					//udi_cdc_putc(0x06);
 102:src/usb.c     **** 					process_command();
 103:src/usb.c     **** 				} else {
 104:src/usb.c     **** 					//udi_cdc_putc(0xFF);
 105:src/usb.c     **** 					//udi_cdc_putc(checksum);
 106:src/usb.c     **** 				}
 107:src/usb.c     **** 				
 108:src/usb.c     **** 				PORTA.OUTCLR = (1<<6);
 109:src/usb.c     **** 				g_cmdState = STATE_IDLE;
 110:src/usb.c     **** 				break;
 111:src/usb.c     **** 		}
 112:src/usb.c     **** 		
 113:src/usb.c     **** 		PORTA.OUTCLR = (1<<7);
 114:src/usb.c     **** 	}	
 115:src/usb.c     **** }
 116:src/usb.c     **** 
 117:src/usb.c     **** 
 118:src/usb.c     **** bool usb_checksum(uint8_t input, uint8_t *output)
 119:src/usb.c     **** {
  18               		.loc 1 119 0
  19               		.cfi_startproc
  20               	.LVL0:
  21               	/* prologue: function */
  22               	/* frame size = 0 */
  23               	/* stack size = 0 */
  24               	.L__stack_usage = 0
 120:src/usb.c     **** 	uint8_t calc = 0;
 121:src/usb.c     **** 	uint16_t i;
 122:src/usb.c     **** 	
 123:src/usb.c     **** 	if (g_usbDataLength == 1) {
  25               		.loc 1 123 0
  26 0000 2091 0000 		lds r18,g_usbDataLength
  27 0004 3091 0000 		lds r19,g_usbDataLength+1
  28 0008 2130      		cpi r18,1
  29 000a 3105      		cpc r19,__zero_reg__
  30 000c 01F0      		breq .L2
  31               	.LVL1:
 124:src/usb.c     **** 		return (input == g_usbDataBuffer[0]);
 125:src/usb.c     **** 	}
 126:src/usb.c     **** 	
 127:src/usb.c     **** 	for (i = 0; i < g_usbDataLength; i++) {
  32               		.loc 1 127 0 discriminator 1
  33 000e 2115      		cp r18,__zero_reg__
  34 0010 3105      		cpc r19,__zero_reg__
  35 0012 01F4      		brne .L3
  36               		.loc 1 127 0 is_stmt 0
  37 0014 90E0      		ldi r25,lo8(0)
  38 0016 00C0      		rjmp .L4
  39               	.LVL2:
  40               	.L2:
 124:src/usb.c     **** 		return (input == g_usbDataBuffer[0]);
  41               		.loc 1 124 0 is_stmt 1
  42 0018 21E0      		ldi r18,lo8(1)
  43 001a 9091 0000 		lds r25,g_usbDataBuffer
GAS LISTING /tmp/ccUM190a.s 			page 4


  44 001e 9817      		cp r25,r24
  45 0020 01F0      		breq .L6
  46 0022 20E0      		ldi r18,lo8(0)
  47 0024 00C0      		rjmp .L6
  48               	.LVL3:
  49               	.L3:
  50 0026 E0E0      		ldi r30,lo8(g_usbDataBuffer)
  51 0028 F0E0      		ldi r31,hi8(g_usbDataBuffer)
 118:src/usb.c     **** bool usb_checksum(uint8_t input, uint8_t *output)
  52               		.loc 1 118 0
  53 002a 2E0F      		add r18,r30
  54 002c 3F1F      		adc r19,r31
  55 002e 90E0      		ldi r25,lo8(0)
  56               	.LVL4:
  57               	.L7:
 128:src/usb.c     **** 		calc ^= g_usbDataBuffer[i];
  58               		.loc 1 128 0 discriminator 2
  59 0030 4191      		ld r20,Z+
  60 0032 9427      		eor r25,r20
  61               	.LVL5:
 127:src/usb.c     **** 	for (i = 0; i < g_usbDataLength; i++) {
  62               		.loc 1 127 0 discriminator 2
  63 0034 E217      		cp r30,r18
  64 0036 F307      		cpc r31,r19
  65 0038 01F4      		brne .L7
  66               	.LVL6:
  67               	.L4:
 129:src/usb.c     **** 	}
 130:src/usb.c     **** 	
 131:src/usb.c     **** 	*output = calc;
  68               		.loc 1 131 0
  69 003a FB01      		movw r30,r22
  70 003c 9083      		st Z,r25
 132:src/usb.c     **** 	
 133:src/usb.c     **** 	return (input == calc);
  71               		.loc 1 133 0
  72 003e 21E0      		ldi r18,lo8(1)
  73 0040 8913      		cpse r24,r25
  74 0042 20E0      		ldi r18,lo8(0)
  75               	.L6:
 134:src/usb.c     **** }...
  76               		.loc 1 134 0
  77 0044 822F      		mov r24,r18
  78               	.LVL7:
  79               	/* epilogue start */
  80 0046 0895      		ret
  81               		.cfi_endproc
  82               	.LFE255:
  83               		.size	usb_checksum, .-usb_checksum
  84               	.global	process_usb
  85               		.type	process_usb, @function
  86               	process_usb:
  87               	.LFB254:
  17:src/usb.c     **** {
  88               		.loc 1 17 0
  89               		.cfi_startproc
  90               	.LVL8:
GAS LISTING /tmp/ccUM190a.s 			page 5


  91 0048 1F93      		push r17
  92               	.LCFI0:
  93               		.cfi_def_cfa_offset 3
  94               		.cfi_offset 17, -2
  95 004a CF93      		push r28
  96               	.LCFI1:
  97               		.cfi_def_cfa_offset 4
  98               		.cfi_offset 28, -3
  99 004c DF93      		push r29
 100               	.LCFI2:
 101               		.cfi_def_cfa_offset 5
 102               		.cfi_offset 29, -4
 103 004e 0F92      		push __tmp_reg__
 104               	.LCFI3:
 105               		.cfi_def_cfa_offset 6
 106 0050 CDB7      		in r28,__SP_L__
 107 0052 DEB7      		in r29,__SP_H__
 108               	.LCFI4:
 109               		.cfi_def_cfa_register 28
 110               	/* prologue: function */
 111               	/* frame size = 1 */
 112               	/* stack size = 4 */
 113               	.L__stack_usage = 4
 114 0054 182F      		mov r17,r24
  20:src/usb.c     **** 	usb_ready = udi_cdc_is_rx_ready();
 115               		.loc 1 20 0
 116 0056 0E94 0000 		call udi_cdc_is_rx_ready
 117               	.LVL9:
  22:src/usb.c     **** 	if (usb_ready || from_isr) {
 118               		.loc 1 22 0
 119 005a 8823      		tst r24
 120 005c 01F4      		brne .L11
  22:src/usb.c     **** 	if (usb_ready || from_isr) {
 121               		.loc 1 22 0 is_stmt 0 discriminator 1
 122 005e 1123      		tst r17
 123 0060 01F0      		breq .+2
 124 0062 00C0      		rjmp .L12
 125 0064 00C0      		rjmp .L10
 126               	.L11:
  24:src/usb.c     **** 		PORTA.OUTSET = (1<<7);
 127               		.loc 1 24 0 is_stmt 1
 128 0066 80E8      		ldi r24,lo8(-128)
 129               	.LVL10:
 130 0068 E0E0      		ldi r30,lo8(1536)
 131 006a F6E0      		ldi r31,hi8(1536)
 132 006c 8583      		std Z+5,r24
  27:src/usb.c     **** 			inbyte = udi_cdc_getc();
 133               		.loc 1 27 0
 134 006e 0E94 0000 		call udi_cdc_getc
 135 0072 182F      		mov r17,r24
 136               	.LVL11:
 137               	.LBB38:
 138               	.LBB39:
 139               	.LBB40:
 140               		.file 2 "./src/asf/common/services/ioport/xmega/ioport.h"
   1:./src/asf/common/services/ioport/xmega/ioport.h **** /**
   2:./src/asf/common/services/ioport/xmega/ioport.h ****  * \file
GAS LISTING /tmp/ccUM190a.s 			page 6


   3:./src/asf/common/services/ioport/xmega/ioport.h ****  *
   4:./src/asf/common/services/ioport/xmega/ioport.h ****  * \brief XMEGA architecture specific IOPORT service implementation header file.
   5:./src/asf/common/services/ioport/xmega/ioport.h ****  *
   6:./src/asf/common/services/ioport/xmega/ioport.h ****  * Copyright (c) 2012 Atmel Corporation. All rights reserved.
   7:./src/asf/common/services/ioport/xmega/ioport.h ****  *
   8:./src/asf/common/services/ioport/xmega/ioport.h ****  * \asf_license_start
   9:./src/asf/common/services/ioport/xmega/ioport.h ****  *
  10:./src/asf/common/services/ioport/xmega/ioport.h ****  * \page License
  11:./src/asf/common/services/ioport/xmega/ioport.h ****  *
  12:./src/asf/common/services/ioport/xmega/ioport.h ****  * Redistribution and use in source and binary forms, with or without
  13:./src/asf/common/services/ioport/xmega/ioport.h ****  * modification, are permitted provided that the following conditions are met:
  14:./src/asf/common/services/ioport/xmega/ioport.h ****  *
  15:./src/asf/common/services/ioport/xmega/ioport.h ****  * 1. Redistributions of source code must retain the above copyright notice,
  16:./src/asf/common/services/ioport/xmega/ioport.h ****  *    this list of conditions and the following disclaimer.
  17:./src/asf/common/services/ioport/xmega/ioport.h ****  *
  18:./src/asf/common/services/ioport/xmega/ioport.h ****  * 2. Redistributions in binary form must reproduce the above copyright notice,
  19:./src/asf/common/services/ioport/xmega/ioport.h ****  *    this list of conditions and the following disclaimer in the documentation
  20:./src/asf/common/services/ioport/xmega/ioport.h ****  *    and/or other materials provided with the distribution.
  21:./src/asf/common/services/ioport/xmega/ioport.h ****  *
  22:./src/asf/common/services/ioport/xmega/ioport.h ****  * 3. The name of Atmel may not be used to endorse or promote products derived
  23:./src/asf/common/services/ioport/xmega/ioport.h ****  *    from this software without specific prior written permission.
  24:./src/asf/common/services/ioport/xmega/ioport.h ****  *
  25:./src/asf/common/services/ioport/xmega/ioport.h ****  * 4. This software may only be redistributed and used in connection with an
  26:./src/asf/common/services/ioport/xmega/ioport.h ****  *    Atmel microcontroller product.
  27:./src/asf/common/services/ioport/xmega/ioport.h ****  *
  28:./src/asf/common/services/ioport/xmega/ioport.h ****  * THIS SOFTWARE IS PROVIDED BY ATMEL "AS IS" AND ANY EXPRESS OR IMPLIED
  29:./src/asf/common/services/ioport/xmega/ioport.h ****  * WARRANTIES, INCLUDING, BUT NOT LIMITED TO, THE IMPLIED WARRANTIES OF
  30:./src/asf/common/services/ioport/xmega/ioport.h ****  * MERCHANTABILITY, FITNESS FOR A PARTICULAR PURPOSE AND NON-INFRINGEMENT ARE
  31:./src/asf/common/services/ioport/xmega/ioport.h ****  * EXPRESSLY AND SPECIFICALLY DISCLAIMED. IN NO EVENT SHALL ATMEL BE LIABLE FOR
  32:./src/asf/common/services/ioport/xmega/ioport.h ****  * ANY DIRECT, INDIRECT, INCIDENTAL, SPECIAL, EXEMPLARY, OR CONSEQUENTIAL
  33:./src/asf/common/services/ioport/xmega/ioport.h ****  * DAMAGES (INCLUDING, BUT NOT LIMITED TO, PROCUREMENT OF SUBSTITUTE GOODS
  34:./src/asf/common/services/ioport/xmega/ioport.h ****  * OR SERVICES; LOSS OF USE, DATA, OR PROFITS; OR BUSINESS INTERRUPTION)
  35:./src/asf/common/services/ioport/xmega/ioport.h ****  * HOWEVER CAUSED AND ON ANY THEORY OF LIABILITY, WHETHER IN CONTRACT,
  36:./src/asf/common/services/ioport/xmega/ioport.h ****  * STRICT LIABILITY, OR TORT (INCLUDING NEGLIGENCE OR OTHERWISE) ARISING IN
  37:./src/asf/common/services/ioport/xmega/ioport.h ****  * ANY WAY OUT OF THE USE OF THIS SOFTWARE, EVEN IF ADVISED OF THE
  38:./src/asf/common/services/ioport/xmega/ioport.h ****  * POSSIBILITY OF SUCH DAMAGE.
  39:./src/asf/common/services/ioport/xmega/ioport.h ****  *
  40:./src/asf/common/services/ioport/xmega/ioport.h ****  * \asf_license_stop
  41:./src/asf/common/services/ioport/xmega/ioport.h ****  *
  42:./src/asf/common/services/ioport/xmega/ioport.h ****  */
  43:./src/asf/common/services/ioport/xmega/ioport.h **** #ifndef IOPORT_XMEGA_H
  44:./src/asf/common/services/ioport/xmega/ioport.h **** #define IOPORT_XMEGA_H
  45:./src/asf/common/services/ioport/xmega/ioport.h **** 
  46:./src/asf/common/services/ioport/xmega/ioport.h **** #define IOPORT_CREATE_PIN(port, pin) ((IOPORT_ ## port) * 8 + (pin))
  47:./src/asf/common/services/ioport/xmega/ioport.h **** #define IOPORT_BASE_ADDRESS 0x600
  48:./src/asf/common/services/ioport/xmega/ioport.h **** #define IOPORT_PORT_OFFSET  0x20
  49:./src/asf/common/services/ioport/xmega/ioport.h **** 
  50:./src/asf/common/services/ioport/xmega/ioport.h **** /** \name IOPORT port numbers */
  51:./src/asf/common/services/ioport/xmega/ioport.h **** /** @{ */
  52:./src/asf/common/services/ioport/xmega/ioport.h **** #if !XMEGA_B3
  53:./src/asf/common/services/ioport/xmega/ioport.h **** #  define IOPORT_PORTA  0
  54:./src/asf/common/services/ioport/xmega/ioport.h **** #endif
  55:./src/asf/common/services/ioport/xmega/ioport.h **** 
  56:./src/asf/common/services/ioport/xmega/ioport.h **** #define IOPORT_PORTB    1
  57:./src/asf/common/services/ioport/xmega/ioport.h **** #define IOPORT_PORTC    2
  58:./src/asf/common/services/ioport/xmega/ioport.h **** #define IOPORT_PORTD    3
  59:./src/asf/common/services/ioport/xmega/ioport.h **** 
GAS LISTING /tmp/ccUM190a.s 			page 7


  60:./src/asf/common/services/ioport/xmega/ioport.h **** #if !XMEGA_B3
  61:./src/asf/common/services/ioport/xmega/ioport.h **** #  define IOPORT_PORTE  4
  62:./src/asf/common/services/ioport/xmega/ioport.h **** #endif
  63:./src/asf/common/services/ioport/xmega/ioport.h **** 
  64:./src/asf/common/services/ioport/xmega/ioport.h **** #if XMEGA_A1 || XMEGA_A1U || XMEGA_A3 || XMEGA_A3U || XMEGA_A3B || XMEGA_A3BU ||\
  65:./src/asf/common/services/ioport/xmega/ioport.h **** 	XMEGA_C3 || XMEGA_D3
  66:./src/asf/common/services/ioport/xmega/ioport.h **** #  define IOPORT_PORTF  5
  67:./src/asf/common/services/ioport/xmega/ioport.h **** #endif
  68:./src/asf/common/services/ioport/xmega/ioport.h **** 
  69:./src/asf/common/services/ioport/xmega/ioport.h **** #if XMEGA_B1 || XMEGA_B3
  70:./src/asf/common/services/ioport/xmega/ioport.h **** #  define IOPORT_PORTG  6
  71:./src/asf/common/services/ioport/xmega/ioport.h **** #endif
  72:./src/asf/common/services/ioport/xmega/ioport.h **** 
  73:./src/asf/common/services/ioport/xmega/ioport.h **** #if XMEGA_A1 || XMEGA_A1U
  74:./src/asf/common/services/ioport/xmega/ioport.h **** #  define IOPORT_PORTH  7
  75:./src/asf/common/services/ioport/xmega/ioport.h **** #  define IOPORT_PORTJ  8
  76:./src/asf/common/services/ioport/xmega/ioport.h **** #  define IOPORT_PORTK  9
  77:./src/asf/common/services/ioport/xmega/ioport.h **** #endif
  78:./src/asf/common/services/ioport/xmega/ioport.h **** 
  79:./src/asf/common/services/ioport/xmega/ioport.h **** #if XMEGA_B1 || XMEGA_B3
  80:./src/asf/common/services/ioport/xmega/ioport.h **** #  define IOPORT_PORTM  11
  81:./src/asf/common/services/ioport/xmega/ioport.h **** #endif
  82:./src/asf/common/services/ioport/xmega/ioport.h **** 
  83:./src/asf/common/services/ioport/xmega/ioport.h **** #if XMEGA_A1 || XMEGA_A1U
  84:./src/asf/common/services/ioport/xmega/ioport.h **** #  define IOPORT_PORTQ  14
  85:./src/asf/common/services/ioport/xmega/ioport.h **** #endif
  86:./src/asf/common/services/ioport/xmega/ioport.h **** 
  87:./src/asf/common/services/ioport/xmega/ioport.h **** #define IOPORT_PORTR    15
  88:./src/asf/common/services/ioport/xmega/ioport.h **** /** @} */
  89:./src/asf/common/services/ioport/xmega/ioport.h **** 
  90:./src/asf/common/services/ioport/xmega/ioport.h **** /**
  91:./src/asf/common/services/ioport/xmega/ioport.h ****  * \weakgroup ioport_group
  92:./src/asf/common/services/ioport/xmega/ioport.h ****  * \section ioport_modes IOPORT Modes
  93:./src/asf/common/services/ioport/xmega/ioport.h ****  *
  94:./src/asf/common/services/ioport/xmega/ioport.h ****  * For details on these please see the XMEGA Manual.
  95:./src/asf/common/services/ioport/xmega/ioport.h ****  *
  96:./src/asf/common/services/ioport/xmega/ioport.h ****  * @{
  97:./src/asf/common/services/ioport/xmega/ioport.h ****  */
  98:./src/asf/common/services/ioport/xmega/ioport.h **** 
  99:./src/asf/common/services/ioport/xmega/ioport.h **** /** \name IOPORT Mode bit definitions */
 100:./src/asf/common/services/ioport/xmega/ioport.h **** /** @{ */
 101:./src/asf/common/services/ioport/xmega/ioport.h **** #define IOPORT_MODE_TOTEM           (0x00 << 3) /*!< Totem-pole */
 102:./src/asf/common/services/ioport/xmega/ioport.h **** #define IOPORT_MODE_BUSKEEPER       (0x01 << 3) /*!< Buskeeper */
 103:./src/asf/common/services/ioport/xmega/ioport.h **** #define IOPORT_MODE_PULLDOWN        (0x02 << 3) /*!< Pull-down */
 104:./src/asf/common/services/ioport/xmega/ioport.h **** #define IOPORT_MODE_PULLUP          (0x03 << 3) /*!< Pull-up */
 105:./src/asf/common/services/ioport/xmega/ioport.h **** #define IOPORT_MODE_WIREDOR         (0x04 << 3) /*!< Wired OR */
 106:./src/asf/common/services/ioport/xmega/ioport.h **** #define IOPORT_MODE_WIREDAND        (0x05 << 3) /*!< Wired AND */
 107:./src/asf/common/services/ioport/xmega/ioport.h **** #define IOPORT_MODE_WIREDORPULL     (0x06 << 3) /*!< Wired OR with pull-down */
 108:./src/asf/common/services/ioport/xmega/ioport.h **** #define IOPORT_MODE_WIREDANDPULL    (0x07 << 3) /*!< Wired AND with pull-up */
 109:./src/asf/common/services/ioport/xmega/ioport.h **** #define IOPORT_MODE_INVERT_PIN      (0x01 << 6) /*!< Invert output and input */
 110:./src/asf/common/services/ioport/xmega/ioport.h **** #define IOPORT_MODE_SLEW_RATE_LIMIT (0x01 << 7) /*!< Slew rate limiting */
 111:./src/asf/common/services/ioport/xmega/ioport.h **** /** @} */
 112:./src/asf/common/services/ioport/xmega/ioport.h **** 
 113:./src/asf/common/services/ioport/xmega/ioport.h **** /** @} */
 114:./src/asf/common/services/ioport/xmega/ioport.h **** 
 115:./src/asf/common/services/ioport/xmega/ioport.h **** typedef uint8_t ioport_mode_t;
 116:./src/asf/common/services/ioport/xmega/ioport.h **** typedef uint8_t ioport_pin_t;
GAS LISTING /tmp/ccUM190a.s 			page 8


 117:./src/asf/common/services/ioport/xmega/ioport.h **** typedef uint8_t ioport_port_t;
 118:./src/asf/common/services/ioport/xmega/ioport.h **** typedef uint8_t ioport_port_mask_t;
 119:./src/asf/common/services/ioport/xmega/ioport.h **** 
 120:./src/asf/common/services/ioport/xmega/ioport.h **** __always_inline static ioport_port_t arch_ioport_pin_to_port_id(ioport_pin_t pin)
 121:./src/asf/common/services/ioport/xmega/ioport.h **** {
 122:./src/asf/common/services/ioport/xmega/ioport.h **** 	return pin >> 3;
 123:./src/asf/common/services/ioport/xmega/ioport.h **** }
 124:./src/asf/common/services/ioport/xmega/ioport.h **** 
 125:./src/asf/common/services/ioport/xmega/ioport.h **** __always_inline static PORT_t *arch_ioport_port_to_base(ioport_port_t port)
 126:./src/asf/common/services/ioport/xmega/ioport.h **** {
 127:./src/asf/common/services/ioport/xmega/ioport.h **** 	return (PORT_t *)((uintptr_t)IOPORT_BASE_ADDRESS +
 128:./src/asf/common/services/ioport/xmega/ioport.h **** 	       (port * IOPORT_PORT_OFFSET));
 129:./src/asf/common/services/ioport/xmega/ioport.h **** }
 130:./src/asf/common/services/ioport/xmega/ioport.h **** 
 131:./src/asf/common/services/ioport/xmega/ioport.h **** __always_inline static PORT_t *arch_ioport_pin_to_base(ioport_pin_t pin)
 132:./src/asf/common/services/ioport/xmega/ioport.h **** {
 133:./src/asf/common/services/ioport/xmega/ioport.h **** 	return arch_ioport_port_to_base(arch_ioport_pin_to_port_id(pin));
 134:./src/asf/common/services/ioport/xmega/ioport.h **** }
 135:./src/asf/common/services/ioport/xmega/ioport.h **** 
 136:./src/asf/common/services/ioport/xmega/ioport.h **** __always_inline static ioport_port_mask_t arch_ioport_pin_to_mask(ioport_pin_t pin)
 137:./src/asf/common/services/ioport/xmega/ioport.h **** {
 138:./src/asf/common/services/ioport/xmega/ioport.h **** 	return 1U << (pin & 0x07);
 139:./src/asf/common/services/ioport/xmega/ioport.h **** }
 140:./src/asf/common/services/ioport/xmega/ioport.h **** 
 141:./src/asf/common/services/ioport/xmega/ioport.h **** __always_inline static ioport_port_mask_t arch_ioport_pin_to_index(ioport_pin_t pin)
 142:./src/asf/common/services/ioport/xmega/ioport.h **** {
 143:./src/asf/common/services/ioport/xmega/ioport.h **** 	return (pin & 0x07);
 144:./src/asf/common/services/ioport/xmega/ioport.h **** }
 145:./src/asf/common/services/ioport/xmega/ioport.h **** 
 146:./src/asf/common/services/ioport/xmega/ioport.h **** __always_inline static void arch_ioport_init(void)
 147:./src/asf/common/services/ioport/xmega/ioport.h **** {
 148:./src/asf/common/services/ioport/xmega/ioport.h **** 	
 149:./src/asf/common/services/ioport/xmega/ioport.h **** }
 150:./src/asf/common/services/ioport/xmega/ioport.h **** 
 151:./src/asf/common/services/ioport/xmega/ioport.h **** __always_inline static void arch_ioport_enable_port(ioport_port_t port,
 152:./src/asf/common/services/ioport/xmega/ioport.h **** 		ioport_port_mask_t mask)
 153:./src/asf/common/services/ioport/xmega/ioport.h **** {
 154:./src/asf/common/services/ioport/xmega/ioport.h **** 	PORT_t *base = arch_ioport_port_to_base(port);
 155:./src/asf/common/services/ioport/xmega/ioport.h **** 	volatile uint8_t *pin_ctrl = &base->PIN0CTRL;
 156:./src/asf/common/services/ioport/xmega/ioport.h **** 
 157:./src/asf/common/services/ioport/xmega/ioport.h **** 	uint8_t flags = cpu_irq_save();
 158:./src/asf/common/services/ioport/xmega/ioport.h **** 
 159:./src/asf/common/services/ioport/xmega/ioport.h **** 	for (uint8_t i = 0; i < 8; i++) {
 160:./src/asf/common/services/ioport/xmega/ioport.h **** 		if (mask & arch_ioport_pin_to_mask(i)) {
 161:./src/asf/common/services/ioport/xmega/ioport.h **** 			pin_ctrl[i] &= ~PORT_ISC_gm;
 162:./src/asf/common/services/ioport/xmega/ioport.h **** 		}
 163:./src/asf/common/services/ioport/xmega/ioport.h **** 	}
 164:./src/asf/common/services/ioport/xmega/ioport.h **** 	
 165:./src/asf/common/services/ioport/xmega/ioport.h **** 	cpu_irq_restore(flags);	
 166:./src/asf/common/services/ioport/xmega/ioport.h **** }
 167:./src/asf/common/services/ioport/xmega/ioport.h **** 
 168:./src/asf/common/services/ioport/xmega/ioport.h **** __always_inline static void arch_ioport_enable_pin(ioport_pin_t pin)
 169:./src/asf/common/services/ioport/xmega/ioport.h **** {
 170:./src/asf/common/services/ioport/xmega/ioport.h **** 	PORT_t *base = arch_ioport_pin_to_base(pin);
 171:./src/asf/common/services/ioport/xmega/ioport.h **** 	volatile uint8_t *pin_ctrl =
 172:./src/asf/common/services/ioport/xmega/ioport.h **** 			(&base->PIN0CTRL + arch_ioport_pin_to_index(pin));
 173:./src/asf/common/services/ioport/xmega/ioport.h **** 
GAS LISTING /tmp/ccUM190a.s 			page 9


 174:./src/asf/common/services/ioport/xmega/ioport.h **** 	uint8_t flags = cpu_irq_save();
 175:./src/asf/common/services/ioport/xmega/ioport.h **** 	
 176:./src/asf/common/services/ioport/xmega/ioport.h **** 	*pin_ctrl &= ~PORT_ISC_gm;
 177:./src/asf/common/services/ioport/xmega/ioport.h **** 	
 178:./src/asf/common/services/ioport/xmega/ioport.h **** 	cpu_irq_restore(flags);
 179:./src/asf/common/services/ioport/xmega/ioport.h **** }
 180:./src/asf/common/services/ioport/xmega/ioport.h **** 
 181:./src/asf/common/services/ioport/xmega/ioport.h **** __always_inline static void arch_ioport_disable_port(ioport_port_t port,
 182:./src/asf/common/services/ioport/xmega/ioport.h **** 		ioport_port_mask_t mask)
 183:./src/asf/common/services/ioport/xmega/ioport.h **** {
 184:./src/asf/common/services/ioport/xmega/ioport.h **** 	PORT_t *base = arch_ioport_port_to_base(port);
 185:./src/asf/common/services/ioport/xmega/ioport.h **** 	volatile uint8_t *pin_ctrl = &base->PIN0CTRL;
 186:./src/asf/common/services/ioport/xmega/ioport.h **** 
 187:./src/asf/common/services/ioport/xmega/ioport.h **** 	uint8_t flags = cpu_irq_save();
 188:./src/asf/common/services/ioport/xmega/ioport.h **** 
 189:./src/asf/common/services/ioport/xmega/ioport.h **** 	for (uint8_t i = 0; i < 8; i++) {
 190:./src/asf/common/services/ioport/xmega/ioport.h **** 		if (mask & arch_ioport_pin_to_mask(i)) {
 191:./src/asf/common/services/ioport/xmega/ioport.h **** 			pin_ctrl[i] |= PORT_ISC_INPUT_DISABLE_gc;
 192:./src/asf/common/services/ioport/xmega/ioport.h **** 		}
 193:./src/asf/common/services/ioport/xmega/ioport.h **** 	}
 194:./src/asf/common/services/ioport/xmega/ioport.h **** 	
 195:./src/asf/common/services/ioport/xmega/ioport.h **** 	cpu_irq_restore(flags);
 196:./src/asf/common/services/ioport/xmega/ioport.h **** }
 197:./src/asf/common/services/ioport/xmega/ioport.h **** 
 198:./src/asf/common/services/ioport/xmega/ioport.h **** __always_inline static void arch_ioport_disable_pin(ioport_pin_t pin)
 199:./src/asf/common/services/ioport/xmega/ioport.h **** {
 200:./src/asf/common/services/ioport/xmega/ioport.h **** 	PORT_t *base = arch_ioport_pin_to_base(pin);
 201:./src/asf/common/services/ioport/xmega/ioport.h **** 	volatile uint8_t *pin_ctrl =
 202:./src/asf/common/services/ioport/xmega/ioport.h **** 			(&base->PIN0CTRL + arch_ioport_pin_to_index(pin));
 203:./src/asf/common/services/ioport/xmega/ioport.h **** 
 204:./src/asf/common/services/ioport/xmega/ioport.h **** 	uint8_t flags = cpu_irq_save();
 205:./src/asf/common/services/ioport/xmega/ioport.h **** 	
 206:./src/asf/common/services/ioport/xmega/ioport.h **** 	*pin_ctrl |= PORT_ISC_INPUT_DISABLE_gc;
 207:./src/asf/common/services/ioport/xmega/ioport.h **** 	
 208:./src/asf/common/services/ioport/xmega/ioport.h **** 	cpu_irq_restore(flags);
 209:./src/asf/common/services/ioport/xmega/ioport.h **** }
 210:./src/asf/common/services/ioport/xmega/ioport.h **** 
 211:./src/asf/common/services/ioport/xmega/ioport.h **** __always_inline static void arch_ioport_set_port_mode(ioport_port_t port,
 212:./src/asf/common/services/ioport/xmega/ioport.h **** 		ioport_port_mask_t mask, ioport_mode_t mode)
 213:./src/asf/common/services/ioport/xmega/ioport.h **** {
 214:./src/asf/common/services/ioport/xmega/ioport.h **** 	PORT_t *base = arch_ioport_port_to_base(port);
 215:./src/asf/common/services/ioport/xmega/ioport.h **** 
 216:./src/asf/common/services/ioport/xmega/ioport.h **** 	PORTCFG.MPCMASK = mask;
 217:./src/asf/common/services/ioport/xmega/ioport.h **** 	base->PIN0CTRL = mode;
 218:./src/asf/common/services/ioport/xmega/ioport.h **** }
 219:./src/asf/common/services/ioport/xmega/ioport.h **** 
 220:./src/asf/common/services/ioport/xmega/ioport.h **** __always_inline static void arch_ioport_set_pin_mode(ioport_pin_t pin,
 221:./src/asf/common/services/ioport/xmega/ioport.h **** 		ioport_mode_t mode)
 222:./src/asf/common/services/ioport/xmega/ioport.h **** {
 223:./src/asf/common/services/ioport/xmega/ioport.h **** 	PORT_t *base = arch_ioport_pin_to_base(pin);
 224:./src/asf/common/services/ioport/xmega/ioport.h **** 
 225:./src/asf/common/services/ioport/xmega/ioport.h **** 	PORTCFG.MPCMASK = arch_ioport_pin_to_mask(pin);
 226:./src/asf/common/services/ioport/xmega/ioport.h **** 	base->PIN0CTRL = mode;
 227:./src/asf/common/services/ioport/xmega/ioport.h **** }
 228:./src/asf/common/services/ioport/xmega/ioport.h **** 
 229:./src/asf/common/services/ioport/xmega/ioport.h **** __always_inline static void arch_ioport_set_port_dir(ioport_port_t port,
 230:./src/asf/common/services/ioport/xmega/ioport.h **** 		ioport_port_mask_t mask, enum ioport_direction dir)
GAS LISTING /tmp/ccUM190a.s 			page 10


 231:./src/asf/common/services/ioport/xmega/ioport.h **** {
 232:./src/asf/common/services/ioport/xmega/ioport.h **** 	PORT_t *base = arch_ioport_port_to_base(port);
 233:./src/asf/common/services/ioport/xmega/ioport.h **** 
 234:./src/asf/common/services/ioport/xmega/ioport.h **** 	if (dir == IOPORT_DIR_OUTPUT) {
 235:./src/asf/common/services/ioport/xmega/ioport.h **** 		base->DIRSET = mask;
 236:./src/asf/common/services/ioport/xmega/ioport.h **** 	} else if (dir == IOPORT_DIR_INPUT) {
 237:./src/asf/common/services/ioport/xmega/ioport.h **** 		base->DIRCLR = mask;
 238:./src/asf/common/services/ioport/xmega/ioport.h **** 	}
 239:./src/asf/common/services/ioport/xmega/ioport.h **** }
 240:./src/asf/common/services/ioport/xmega/ioport.h **** 
 241:./src/asf/common/services/ioport/xmega/ioport.h **** __always_inline static void arch_ioport_set_pin_dir(ioport_pin_t pin,
 242:./src/asf/common/services/ioport/xmega/ioport.h **** 		enum ioport_direction dir)
 243:./src/asf/common/services/ioport/xmega/ioport.h **** {
 244:./src/asf/common/services/ioport/xmega/ioport.h **** 	PORT_t *base = arch_ioport_pin_to_base(pin);
 245:./src/asf/common/services/ioport/xmega/ioport.h **** 
 246:./src/asf/common/services/ioport/xmega/ioport.h **** 	if (dir == IOPORT_DIR_OUTPUT) {
 247:./src/asf/common/services/ioport/xmega/ioport.h **** 		base->DIRSET = arch_ioport_pin_to_mask(pin);
 248:./src/asf/common/services/ioport/xmega/ioport.h **** 	} else if (dir == IOPORT_DIR_INPUT) {
 249:./src/asf/common/services/ioport/xmega/ioport.h **** 		base->DIRCLR = arch_ioport_pin_to_mask(pin);
 250:./src/asf/common/services/ioport/xmega/ioport.h **** 	}
 251:./src/asf/common/services/ioport/xmega/ioport.h **** }
 252:./src/asf/common/services/ioport/xmega/ioport.h **** 
 253:./src/asf/common/services/ioport/xmega/ioport.h **** __always_inline static void arch_ioport_set_pin_level(ioport_pin_t pin,
 254:./src/asf/common/services/ioport/xmega/ioport.h **** 		bool level)
 255:./src/asf/common/services/ioport/xmega/ioport.h **** {
 256:./src/asf/common/services/ioport/xmega/ioport.h **** 	PORT_t *base = arch_ioport_pin_to_base(pin);
 257:./src/asf/common/services/ioport/xmega/ioport.h **** 
 258:./src/asf/common/services/ioport/xmega/ioport.h **** 	if (level) {
 259:./src/asf/common/services/ioport/xmega/ioport.h **** 		base->OUTSET = arch_ioport_pin_to_mask(pin);
 141               		.loc 2 259 0
 142 0074 80E1      		ldi r24,lo8(16)
 143               	.LVL12:
 144 0076 E0E4      		ldi r30,lo8(1600)
 145 0078 F6E0      		ldi r31,hi8(1600)
 146 007a 8583      		std Z+5,r24
 147               	.LBE40:
 148               	.LBE39:
 149               	.LBE38:
  30:src/usb.c     **** 			usart_putchar(&USARTC0, inbyte);
 150               		.loc 1 30 0
 151 007c 80EA      		ldi r24,lo8(2208)
 152 007e 98E0      		ldi r25,hi8(2208)
 153 0080 612F      		mov r22,r17
 154 0082 0E94 0000 		call usart_putchar
 155               	.LVL13:
 156               	.L31:
  35:src/usb.c     **** 		switch (g_cmdState) {
 157               		.loc 1 35 0
 158 0086 8091 0000 		lds r24,g_cmdState
 159 008a 8230      		cpi r24,lo8(2)
 160 008c 01F0      		breq .L17
 161 008e 8330      		cpi r24,lo8(3)
 162 0090 00F4      		brsh .L20
 163 0092 8823      		tst r24
 164 0094 01F0      		breq .L15
 165 0096 8130      		cpi r24,lo8(1)
 166 0098 01F0      		breq .+2
GAS LISTING /tmp/ccUM190a.s 			page 11


 167 009a 00C0      		rjmp .L14
 168 009c 00C0      		rjmp .L32
 169               	.L20:
 170 009e 8330      		cpi r24,lo8(3)
 171 00a0 01F4      		brne .+2
 172 00a2 00C0      		rjmp .L18
 173 00a4 8430      		cpi r24,lo8(4)
 174 00a6 01F0      		breq .+2
 175 00a8 00C0      		rjmp .L14
 176 00aa 00C0      		rjmp .L33
 177               	.L15:
  38:src/usb.c     **** 				if (inbyte == USB_START_BYTE) {
 178               		.loc 1 38 0
 179 00ac 1939      		cpi r17,lo8(-103)
 180 00ae 01F4      		brne .L21
  39:src/usb.c     **** 					g_cmdState = STATE_ADDRESS;					
 181               		.loc 1 39 0
 182 00b0 82E0      		ldi r24,lo8(2)
 183 00b2 8093 0000 		sts g_cmdState,r24
 184               	.L21:
  41:src/usb.c     **** 				udi_cdc_putc(0x01);
 185               		.loc 1 41 0
 186 00b6 81E0      		ldi r24,lo8(1)
 187 00b8 90E0      		ldi r25,hi8(1)
 188 00ba 0E94 0000 		call udi_cdc_putc
  42:src/usb.c     **** 				break;
 189               		.loc 1 42 0
 190 00be 00C0      		rjmp .L14
 191               	.L17:
  45:src/usb.c     **** 				if ((inbyte == 0x00) || inbyte == g_address) {
 192               		.loc 1 45 0
 193 00c0 1123      		tst r17
 194 00c2 01F0      		breq .L22
  45:src/usb.c     **** 				if ((inbyte == 0x00) || inbyte == g_address) {
 195               		.loc 1 45 0 is_stmt 0 discriminator 1
 196 00c4 8091 0000 		lds r24,g_address
 197 00c8 1817      		cp r17,r24
 198 00ca 01F4      		brne .L23
 199               	.L22:
  46:src/usb.c     **** 					g_usbDataCount = 0;
 200               		.loc 1 46 0 is_stmt 1
 201 00cc 1092 0000 		sts g_usbDataCount,__zero_reg__
 202 00d0 1092 0000 		sts g_usbDataCount+1,__zero_reg__
  47:src/usb.c     **** 					g_cmdState = STATE_START;
 203               		.loc 1 47 0
 204 00d4 81E0      		ldi r24,lo8(1)
 205 00d6 8093 0000 		sts g_cmdState,r24
 206 00da 00C0      		rjmp .L24
 207               	.L23:
  49:src/usb.c     **** 					g_cmdState = STATE_IDLE;
 208               		.loc 1 49 0
 209 00dc 1092 0000 		sts g_cmdState,__zero_reg__
 210               	.L24:
  53:src/usb.c     **** 				udi_cdc_putc(0x01);
 211               		.loc 1 53 0
 212 00e0 81E0      		ldi r24,lo8(1)
 213 00e2 90E0      		ldi r25,hi8(1)
GAS LISTING /tmp/ccUM190a.s 			page 12


 214 00e4 0E94 0000 		call udi_cdc_putc
  54:src/usb.c     **** 				break;
 215               		.loc 1 54 0
 216 00e8 00C0      		rjmp .L14
 217               	.L32:
  57:src/usb.c     **** 				if (g_usbDataCount == 0) {
 218               		.loc 1 57 0
 219 00ea 8091 0000 		lds r24,g_usbDataCount
 220 00ee 9091 0000 		lds r25,g_usbDataCount+1
 221 00f2 0097      		sbiw r24,0
 222 00f4 01F4      		brne .L25
  58:src/usb.c     **** 					g_usbCommand = inbyte;
 223               		.loc 1 58 0
 224 00f6 1093 0000 		sts g_usbCommand,r17
  59:src/usb.c     **** 					g_usbDataCount++;
 225               		.loc 1 59 0
 226 00fa 81E0      		ldi r24,lo8(1)
 227 00fc 90E0      		ldi r25,hi8(1)
 228 00fe 8093 0000 		sts g_usbDataCount,r24
 229 0102 9093 0000 		sts g_usbDataCount+1,r25
 230 0106 00C0      		rjmp .L14
 231               	.L25:
  61:src/usb.c     **** 				} else if (g_usbDataCount == 1) {
 232               		.loc 1 61 0
 233 0108 8130      		cpi r24,1
 234 010a 9105      		cpc r25,__zero_reg__
 235 010c 01F4      		brne .L26
  62:src/usb.c     **** 					g_usbDataLength = inbyte;
 236               		.loc 1 62 0
 237 010e 1093 0000 		sts g_usbDataLength,r17
 238 0112 1092 0000 		sts g_usbDataLength+1,__zero_reg__
  63:src/usb.c     **** 					g_usbDataCount++;
 239               		.loc 1 63 0
 240 0116 82E0      		ldi r24,lo8(2)
 241 0118 90E0      		ldi r25,hi8(2)
 242 011a 8093 0000 		sts g_usbDataCount,r24
 243 011e 9093 0000 		sts g_usbDataCount+1,r25
 244 0122 00C0      		rjmp .L14
 245               	.L26:
  66:src/usb.c     **** 					g_usbDataLength += (inbyte << 8);
 246               		.loc 1 66 0
 247 0124 912F      		mov r25,r17
 248 0126 80E0      		ldi r24,lo8(0)
 249 0128 2091 0000 		lds r18,g_usbDataLength
 250 012c 3091 0000 		lds r19,g_usbDataLength+1
 251 0130 820F      		add r24,r18
 252 0132 931F      		adc r25,r19
 253 0134 8093 0000 		sts g_usbDataLength,r24
 254 0138 9093 0000 		sts g_usbDataLength+1,r25
  67:src/usb.c     **** 					udi_cdc_putc(0x01);
 255               		.loc 1 67 0
 256 013c 81E0      		ldi r24,lo8(1)
 257 013e 90E0      		ldi r25,hi8(1)
 258 0140 0E94 0000 		call udi_cdc_putc
  68:src/usb.c     **** 					if (g_usbDataLength > (USB_BUFFER_SIZE - 1)) {
 259               		.loc 1 68 0
 260 0144 8091 0000 		lds r24,g_usbDataLength
GAS LISTING /tmp/ccUM190a.s 			page 13


 261 0148 9091 0000 		lds r25,g_usbDataLength+1
 262 014c 22E0      		ldi r18,hi8(586)
 263 014e 8A34      		cpi r24,lo8(586)
 264 0150 9207      		cpc r25,r18
 265 0152 00F0      		brlo .L27
  69:src/usb.c     **** 						g_usbDataLength = USB_BUFFER_SIZE - 1;
 266               		.loc 1 69 0
 267 0154 89E4      		ldi r24,lo8(585)
 268 0156 92E0      		ldi r25,hi8(585)
 269 0158 8093 0000 		sts g_usbDataLength,r24
 270 015c 9093 0000 		sts g_usbDataLength+1,r25
 271               	.L27:
  72:src/usb.c     **** 					g_usbDataCount = 0;
 272               		.loc 1 72 0
 273 0160 1092 0000 		sts g_usbDataCount,__zero_reg__
 274 0164 1092 0000 		sts g_usbDataCount+1,__zero_reg__
  73:src/usb.c     **** 					g_cmdState = STATE_RECEIVE;
 275               		.loc 1 73 0
 276 0168 83E0      		ldi r24,lo8(3)
 277 016a 8093 0000 		sts g_cmdState,r24
  75:src/usb.c     **** 					PORTA.OUTSET = (1<<6);
 278               		.loc 1 75 0
 279 016e 80E4      		ldi r24,lo8(64)
 280 0170 E0E0      		ldi r30,lo8(1536)
 281 0172 F6E0      		ldi r31,hi8(1536)
 282 0174 8583      		std Z+5,r24
 283 0176 00C0      		rjmp .L14
 284               	.L18:
  80:src/usb.c     **** 				if (g_usbDataCount < g_usbDataLength) {
 285               		.loc 1 80 0
 286 0178 8091 0000 		lds r24,g_usbDataCount
 287 017c 9091 0000 		lds r25,g_usbDataCount+1
 288 0180 2091 0000 		lds r18,g_usbDataLength
 289 0184 3091 0000 		lds r19,g_usbDataLength+1
 290 0188 8217      		cp r24,r18
 291 018a 9307      		cpc r25,r19
 292 018c 00F4      		brsh .L28
  81:src/usb.c     **** 					g_usbDataBuffer[g_usbDataCount] = inbyte;
 293               		.loc 1 81 0
 294 018e FC01      		movw r30,r24
 295 0190 E050      		subi r30,lo8(-(g_usbDataBuffer))
 296 0192 F040      		sbci r31,hi8(-(g_usbDataBuffer))
 297 0194 1083      		st Z,r17
  83:src/usb.c     **** 					g_usbDataCount++;
 298               		.loc 1 83 0
 299 0196 0196      		adiw r24,1
 300 0198 8093 0000 		sts g_usbDataCount,r24
 301 019c 9093 0000 		sts g_usbDataCount+1,r25
 302 01a0 00C0      		rjmp .L14
 303               	.L28:
  85:src/usb.c     **** 					g_cmdState = STATE_CHECKSUM;
 304               		.loc 1 85 0
 305 01a2 84E0      		ldi r24,lo8(4)
 306 01a4 8093 0000 		sts g_cmdState,r24
  87:src/usb.c     **** 					if (usb_checksum(inbyte, &checksum)) {
 307               		.loc 1 87 0
 308 01a8 812F      		mov r24,r17
GAS LISTING /tmp/ccUM190a.s 			page 14


 309 01aa BE01      		movw r22,r28
 310 01ac 6F5F      		subi r22,lo8(-(1))
 311 01ae 7F4F      		sbci r23,hi8(-(1))
 312 01b0 0E94 0000 		call usb_checksum
 313 01b4 8823      		tst r24
 314 01b6 01F0      		breq .L29
  89:src/usb.c     **** 						process_command();
 315               		.loc 1 89 0
 316 01b8 0E94 0000 		call process_command
 317               	.L29:
  94:src/usb.c     **** 					g_cmdState = STATE_IDLE;
 318               		.loc 1 94 0
 319 01bc 1092 0000 		sts g_cmdState,__zero_reg__
 320 01c0 00C0      		rjmp .L14
 321               	.L33:
 100:src/usb.c     **** 				if (usb_checksum(inbyte, &checksum)) {
 322               		.loc 1 100 0
 323 01c2 812F      		mov r24,r17
 324 01c4 BE01      		movw r22,r28
 325 01c6 6F5F      		subi r22,lo8(-(1))
 326 01c8 7F4F      		sbci r23,hi8(-(1))
 327 01ca 0E94 0000 		call usb_checksum
 328 01ce 8823      		tst r24
 329 01d0 01F0      		breq .L30
 102:src/usb.c     **** 					process_command();
 330               		.loc 1 102 0
 331 01d2 0E94 0000 		call process_command
 332               	.L30:
 108:src/usb.c     **** 				PORTA.OUTCLR = (1<<6);
 333               		.loc 1 108 0
 334 01d6 80E4      		ldi r24,lo8(64)
 335 01d8 E0E0      		ldi r30,lo8(1536)
 336 01da F6E0      		ldi r31,hi8(1536)
 337 01dc 8683      		std Z+6,r24
 109:src/usb.c     **** 				g_cmdState = STATE_IDLE;
 338               		.loc 1 109 0
 339 01de 1092 0000 		sts g_cmdState,__zero_reg__
 340               	.L14:
 113:src/usb.c     **** 		PORTA.OUTCLR = (1<<7);
 341               		.loc 1 113 0
 342 01e2 80E8      		ldi r24,lo8(-128)
 343 01e4 E0E0      		ldi r30,lo8(1536)
 344 01e6 F6E0      		ldi r31,hi8(1536)
 345 01e8 8683      		std Z+6,r24
 346 01ea 00C0      		rjmp .L10
 347               	.LVL14:
 348               	.L12:
  24:src/usb.c     **** 		PORTA.OUTSET = (1<<7);
 349               		.loc 1 24 0
 350 01ec 80E8      		ldi r24,lo8(-128)
 351               	.LVL15:
 352 01ee E0E0      		ldi r30,lo8(1536)
 353 01f0 F6E0      		ldi r31,hi8(1536)
 354 01f2 8583      		std Z+5,r24
  32:src/usb.c     **** 			inbyte = g_usartData;
 355               		.loc 1 32 0
 356 01f4 1091 0000 		lds r17,g_usartData
GAS LISTING /tmp/ccUM190a.s 			page 15


 357               	.LVL16:
 358 01f8 00C0      		rjmp .L31
 359               	.LVL17:
 360               	.L10:
 361               	/* epilogue start */
 115:src/usb.c     **** }
 362               		.loc 1 115 0
 363 01fa 0F90      		pop __tmp_reg__
 364 01fc DF91      		pop r29
 365 01fe CF91      		pop r28
 366 0200 1F91      		pop r17
 367 0202 0895      		ret
 368               		.cfi_endproc
 369               	.LFE254:
 370               		.size	process_usb, .-process_usb
 371               		.comm COMMAND_TYPE,1,1
 372               		.comm g_usbDataBuffer,586,1
 373               		.comm g_usbDataCount,2,1
 374               		.comm g_usbDataLength,2,1
 375               		.comm g_usbCommand,1,1
 376               		.comm g_cmdState,1,1
 377               		.comm dirty,1,1
 378               		.comm data_pointer,2,1
 379               		.comm data_buffer,576,1
 380               		.comm num_bytes,2,1
 381               		.comm num_leds,2,1
 382               		.comm ticks,8,1
 383               		.comm g_usartData,1,1
 384               		.comm g_address,1,1
 385               		.comm USB_STATE,1,1
 386               	.Letext0:
 387               		.file 3 "/usr/local/avr8-gnu-toolchain-linux_x86_64/bin/../lib/gcc/avr/4.6.2/../../../../avr/inclu
 388               		.file 4 "/usr/local/include/avr/iox32a4u.h"
 389               		.file 5 "./src/asf/common/services/ioport/xmega/ioport_compat.h"
 390               		.file 6 "src/usb.h"
 391               		.file 7 "src/commands.h"
 392               		.file 8 "./src/asf/common/services/sleepmgr/xmega/sleepmgr.h"
 393               		.file 9 "./src/asf/xmega/drivers/usart/usart.h"
 394               		.file 10 "./src/asf/common/utils/stdio/stdio_serial/stdio_serial.h"
 395               		.file 11 "src/globals.h"