GAS LISTING /tmp/ccUM190a.s 			page 1


   1               		.file	"usb.c"
   2               	__SREG__ = 0x3f
   3               	__SP_H__ = 0x3e
   4               	__SP_L__ = 0x3d
   5               	__CCP__ = 0x34
   6               	__tmp_reg__ = 0
   7               	__zero_reg__ = 1
   8               		.global __do_copy_data
   9               		.global __do_clear_bss
  10               		.text
  11               	.Ltext0:
  12               		.cfi_sections	.debug_frame
  13               	.global	usb_checksum
  14               		.type	usb_checksum, @function
  15               	usb_checksum:
  16               	.LFB255:
  17               		.file 1 "src/usb.c"
   1:src/usb.c     **** /*
   2:src/usb.c     ****  * usb.c
   3:src/usb.c     ****  *
   4:src/usb.c     ****  * Created: 11/3/2012 3:53:12 PM
   5:src/usb.c     ****  *  Author: Jon
   6:src/usb.c     ****  */ 
   7:src/usb.c     **** 
   8:src/usb.c     **** #include <asf.h>
   9:src/usb.c     **** 
  10:src/usb.c     **** #include "globals.h"
  11:src/usb.c     **** #include "usb.h"
  12:src/usb.c     **** #include "commands.h"
  13:src/usb.c     **** #include "pins.h"
  14:src/usb.c     **** 
  15:src/usb.c     **** 
  16:src/usb.c     **** void process_usb(bool from_isr)
  17:src/usb.c     **** {
  18:src/usb.c     **** 	uint8_t inbyte, checksum, usb_ready;
  19:src/usb.c     **** 
  20:src/usb.c     **** 	usb_ready = udi_cdc_is_rx_ready();
  21:src/usb.c     **** 
  22:src/usb.c     **** 	if (usb_ready || from_isr) {
  23:src/usb.c     **** 		
  24:src/usb.c     **** 		PORTA.OUTSET = (1<<7);
  25:src/usb.c     **** 
  26:src/usb.c     **** 		if (usb_ready) {
  27:src/usb.c     **** 			inbyte = udi_cdc_getc();
  28:src/usb.c     **** 			//ioport_set_pin_high(RS485_REn);
  29:src/usb.c     **** 			ioport_set_pin_high(RS485_DE);
  30:src/usb.c     **** 			usart_putchar(&USARTC0, inbyte);
  31:src/usb.c     **** 		} else {
  32:src/usb.c     **** 			inbyte = g_usartData;
  33:src/usb.c     **** 		}			
  34:src/usb.c     **** 
  35:src/usb.c     **** 		switch (g_cmdState) {
  36:src/usb.c     **** 			case STATE_IDLE:
  37:src/usb.c     **** 				// Wait for start sequence
  38:src/usb.c     **** 				if (inbyte == USB_START_BYTE) {
  39:src/usb.c     **** 					g_cmdState = STATE_ADDRESS;					
  40:src/usb.c     **** 				}
GAS LISTING /tmp/ccUM190a.s 			page 2


  41:src/usb.c     **** 				udi_cdc_putc(0x01);
  42:src/usb.c     **** 				break;
  43:src/usb.c     **** 
  44:src/usb.c     **** 			case STATE_ADDRESS:
  45:src/usb.c     **** 				if ((inbyte == 0x00) || inbyte == g_address) {
  46:src/usb.c     **** 					g_usbDataCount = 0;
  47:src/usb.c     **** 					g_cmdState = STATE_START;
  48:src/usb.c     **** 				} else {
  49:src/usb.c     **** 					g_cmdState = STATE_IDLE;
  50:src/usb.c     **** 					// TODO: It might be better to read in the data length and know
  51:src/usb.c     **** 					// to ignore the next N bytes
  52:src/usb.c     **** 				}
  53:src/usb.c     **** 				udi_cdc_putc(0x01);
  54:src/usb.c     **** 				break;
  55:src/usb.c     **** 
  56:src/usb.c     **** 			case STATE_START:
  57:src/usb.c     **** 				if (g_usbDataCount == 0) {
  58:src/usb.c     **** 					g_usbCommand = inbyte;
  59:src/usb.c     **** 					g_usbDataCount++;
  60:src/usb.c     **** 					//udi_cdc_putc(0x02);
  61:src/usb.c     **** 				} else if (g_usbDataCount == 1) {
  62:src/usb.c     **** 					g_usbDataLength = inbyte;
  63:src/usb.c     **** 					g_usbDataCount++;
  64:src/usb.c     **** 					//udi_cdc_putc(0x03);
  65:src/usb.c     **** 				} else {
  66:src/usb.c     **** 					g_usbDataLength += (inbyte << 8);
  67:src/usb.c     **** 					udi_cdc_putc(0x01);
  68:src/usb.c     **** 					if (g_usbDataLength > (USB_BUFFER_SIZE - 1)) {
  69:src/usb.c     **** 						g_usbDataLength = USB_BUFFER_SIZE - 1;
  70:src/usb.c     **** 					}
  71:src/usb.c     **** 					
  72:src/usb.c     **** 					g_usbDataCount = 0;
  73:src/usb.c     **** 					g_cmdState = STATE_RECEIVE;
  74:src/usb.c     **** 					//udi_cdc_putc(0x04);
  75:src/usb.c     **** 					PORTA.OUTSET = (1<<6);
  76:src/usb.c     **** 				}
  77:src/usb.c     **** 				break;
  78:src/usb.c     **** 
  79:src/usb.c     **** 			case STATE_RECEIVE:
  80:src/usb.c     **** 				if (g_usbDataCount < g_usbDataLength) {
  81:src/usb.c     **** 					g_usbDataBuffer[g_usbDataCount] = inbyte;
  82:src/usb.c     **** 					//udi_cdc_putc(inbyte);
  83:src/usb.c     **** 					g_usbDataCount++;
  84:src/usb.c     **** 				} else {
  85:src/usb.c     **** 					g_cmdState = STATE_CHECKSUM;
  86:src/usb.c     **** 					
  87:src/usb.c     **** 					if (usb_checksum(inbyte, &checksum)) {
  88:src/usb.c     **** 						//udi_cdc_putc(0x06);
  89:src/usb.c     **** 						process_command();
  90:src/usb.c     **** 					} else {
  91:src/usb.c     **** 						//udi_cdc_putc(0xFF);
  92:src/usb.c     **** 						//udi_cdc_putc(checksum);
  93:src/usb.c     **** 					}
  94:src/usb.c     **** 					g_cmdState = STATE_IDLE;
  95:src/usb.c     **** 				}
  96:src/usb.c     **** 				
  97:src/usb.c     **** 				break;
GAS LISTING /tmp/ccUM190a.s 			page 3


  98:src/usb.c     **** 
  99:src/usb.c     **** 			case STATE_CHECKSUM:
 100:src/usb.c     **** 				if (usb_checksum(inbyte, &checksum)) {
 101:src/usb.c     **** 					//udi_cdc_putc(0x06);
 102:src/usb.c     **** 					process_command();
 103:src/usb.c     **** 				} else {
 104:src/usb.c     **** 					//udi_cdc_putc(0xFF);
 105:src/usb.c     **** 					//udi_cdc_putc(checksum);
 106:src/usb.c     **** 				}
 107:src/usb.c     **** 				
 108:src/usb.c     **** 				PORTA.OUTCLR = (1<<6);
 109:src/usb.c     **** 				g_cmdState = STATE_IDLE;
 110:src/usb.c     **** 				break;
 111:src/usb.c     **** 		}
 112:src/usb.c     **** 		
 113:src/usb.c     **** 		PORTA.OUTCLR = (1<<7);
 114:src/usb.c     **** 	}	
 115:src/usb.c     **** }
 116:src/usb.c     **** 
 117:src/usb.c     **** 
 118:src/usb.c     **** bool usb_checksum(uint8_t input, uint8_t *output)
 119:src/usb.c     **** {
  18               		.loc 1 119 0
  19               		.cfi_startproc
  20               	.LVL0:
  21               	/* prologue: function */
  22               	/* frame size = 0 */
  23               	/* stack size = 0 */
  24               	.L__stack_usage = 0
 120:src/usb.c     **** 	uint8_t calc = 0;
 121:src/usb.c     **** 	uint16_t i;
 122:src/usb.c     **** 	
 123:src/usb.c     **** 	if (g_usbDataLength == 1) {
  25               		.loc 1 123 0
  26 0000 2091 0000 		lds r18,g_usbDataLength
  27 0004 3091 0000 		lds r19,g_usbDataLength+1
  28 0008 2130      		cpi r18,1
  29 000a 3105      		cpc r19,__zero_reg__
  30 000c 01F0      		breq .L2
  31               	.LVL1:
 124:src/usb.c     **** 		return (input == g_usbDataBuffer[0]);
 125:src/usb.c     **** 	}
 126:src/usb.c     **** 	
 127:src/usb.c     **** 	for (i = 0; i < g_usbDataLength; i++) {
  32               		.loc 1 127 0 discriminator 1
  33 000e 2115      		cp r18,__zero_reg__
  34 0010 3105      		cpc r19,__zero_reg__
  35 0012 01F4      		brne .L3
  36               		.loc 1 127 0 is_stmt 0
  37 0014 90E0      		ldi r25,lo8(0)
  38 0016 00C0      		rjmp .L4
  39               	.LVL2:
  40               	.L2:
 124:src/usb.c     **** 		return (input == g_usbDataBuffer[0]);
  41               		.loc 1 124 0 is_stmt 1
  42 0018 21E0      		ldi r18,lo8(1)
  43 001a 9091 0000 		lds r25,g_usbDataBuffer
GAS LISTING /tmp/ccUM190a.s 			page 4


  44 001e 9817      		cp r25,r24
  45 0020 01F0      		breq .L6
  46 0022 20E0      		ldi r18,lo8(0)
  47 0024 00C0      		rjmp .L6
  48               	.LVL3:
  49               	.L3:
  50 0026 E0E0      		ldi r30,lo8(g_usbDataBuffer)
  51 0028 F0E0      		ldi r31,hi8(g_usbDataBuffer)
 118:src/usb.c     **** bool usb_checksum(uint8_t input, uint8_t *output)
  52               		.loc 1 118 0
  53 002a 2E0F      		add r18,r30
  54 002c 3F1F      		adc r19,r31
  55 002e 90E0      		ldi r25,lo8(0)
  56               	.LVL4:
  57               	.L7:
 128:src/usb.c     **** 		calc ^= g_usbDataBuffer[i];
  58               		.loc 1 128 0 discriminator 2
  59 0030 4191      		ld r20,Z+
  60 0032 9427      		eor r25,r20
  61               	.LVL5:
 127:src/usb.c     **** 	for (i = 0; i < g_usbDataLength; i++) {
  62               		.loc 1 127 0 discriminator 2
  63 0034 E217      		cp r30,r18
  64 0036 F307      		cpc r31,r19
  65 0038 01F4      		brne .L7
  66               	.LVL6:
  67               	.L4:
 129:src/usb.c     **** 	}
 130:src/usb.c     **** 	
 131:src/usb.c     **** 	*output = calc;
  68               		.loc 1 131 0
  69 003a FB01      		movw r30,r22
  70 003c 9083      		st Z,r25
 132:src/usb.c     **** 	
 133:src/usb.c     **** 	return (input == calc);
  71               		.loc 1 133 0
  72 003e 21E0      		ldi r18,lo8(1)
  73 0040 8913      		cpse r24,r25
  74 0042 20E0      		ldi r18,lo8(0)
  75               	.L6:
 134:src/usb.c     **** }...
  76               		.loc 1 134 0
  77 0044 822F      		mov r24,r18
  78               	.LVL7:
  79               	/* epilogue start */
  80 0046 0895      		ret
  81               		.cfi_endproc
  82               	.LFE255:
  83               		.size	usb_checksum, .-usb_checksum
  84               	.global	process_usb
  85               		.type	process_usb, @function
  86               	process_usb:
  87               	.LFB254:
  17:src/usb.c     **** {
  88               		.loc 1 17 0
  89               		.cfi_startproc
  90               	.LVL8:
GAS LISTING /tmp/ccUM190a.s 			page 5


  91 0048 1F93      		push r17
  92               	.LCFI0:
  93               		.cfi_def_cfa_offset 3
  94               		.cfi_offset 17, -2
  95 004a CF93      		push r28
  96               	.LCFI1:
  97               		.cfi_def_cfa_offset 4
  98               		.cfi_offset 28, -3
  99 004c DF93      		push r29
 100               	.LCFI2:
 101               		.cfi_def_cfa_offset 5
 102               		.cfi_offset 29, -4
 103 004e 0F92      		push __tmp_reg__
 104               	.LCFI3:
 105               		.cfi_def_cfa_offset 6
 106 0050 CDB7      		in r28,__SP_L__
 107 0052 DEB7      		in r29,__SP_H__
 108               	.LCFI4:
 109               		.cfi_def_cfa_register 28
 110               	/* prologue: function */
 111               	/* frame size = 1 */
 112               	/* stack size = 4 */
 113               	.L__stack_usage = 4
 114 0054 182F      		mov r17,r24
  20:src/usb.c     **** 	usb_ready = udi_cdc_is_rx_ready();
 115               		.loc 1 20 0
 116 0056 0E94 0000 		call udi_cdc_is_rx_ready
 117               	.LVL9:
  22:src/usb.c     **** 	if (usb_ready || from_isr) {
 118               		.loc 1 22 0
 119 005a 8823      		tst r24
 120 005c 01F4      		brne .L11
  22:src/usb.c     **** 	if (usb_ready || from_isr) {
 121               		.loc 1 22 0 is_stmt 0 discriminator 1
 122 005e 1123      		tst r17
 123 0060 01F0      		breq .+2
 124 0062 00C0      		rjmp .L12
 125 0064 00C0      		rjmp .L10
 126               	.L11:
  24:src/usb.c     **** 		PORTA.OUTSET = (1<<7);
 127               		.loc 1 24 0 is_stmt 1
 128 0066 80E8      		ldi r24,lo8(-128)
 129               	.LVL10:
 130 0068 E0E0      		ldi r30,lo8(1536)
 131 006a F6E0      		ldi r31,hi8(1536)
 132 006c 8583      		std Z+5,r24
  27:src/usb.c     **** 			inbyte = udi_cdc_getc();
 133               		.loc 1 27 0
 134 006e 0E94 0000 		call udi_cdc_getc
 135 0072 182F      		mov r17,r24
 136               	.LVL11:
 137               	.LBB38:
 138               	.LBB39:
 139               	.LBB40:
 140               		.file 2 "./src/asf/common/services/ioport/xmega/ioport.h"
   1:./src/asf/common/services/ioport/xmega/ioport.h **** /**
   2:./src/asf/common/services/ioport/xmega/ioport.h ****  * \file
GAS LISTING /tmp/ccUM190a.s 			page 6


   3:./src/asf/common/services/ioport/xmega/ioport.h ****  *
   4:./src/asf/common/services/ioport/xmega/ioport.h ****  * \brief XMEGA architecture specific IOPORT service implementation header file.
   5:./src/asf/common/services/ioport/xmega/ioport.h ****  *
   6:./src/asf/common/services/ioport/xmega/ioport.h ****  * Copyright (c) 2012 Atmel Corporation. All rights reserved.
   7:./src/asf/common/services/ioport/xmega/ioport.h ****  *
   8:./src/asf/common/services/ioport/xmega/ioport.h ****  * \asf_license_start
   9:./src/asf/common/services/ioport/xmega/ioport.h ****  *
  10:./src/asf/common/services/ioport/xmega/ioport.h ****  * \page License
  11:./src/asf/common/services/ioport/xmega/ioport.h ****  *
  12:./src/asf/common/services/ioport/xmega/ioport.h ****  * Redistribution and use in source and binary forms, with or without
  13:./src/asf/common/services/ioport/xmega/ioport.h ****  * modification, are permitted provided that the following conditions are met:
  14:./src/asf/common/services/ioport/xmega/ioport.h ****  *
  15:./src/asf/common/services/ioport/xmega/ioport.h ****  * 1. Redistributions of source code must retain the above copyright notice,
  16:./src/asf/common/services/ioport/xmega/ioport.h ****  *    this list of conditions and the following disclaimer.
  17:./src/asf/common/services/ioport/xmega/ioport.h ****  *
  18:./src/asf/common/services/ioport/xmega/ioport.h ****  * 2. Redistributions in binary form must reproduce the above copyright notice,
  19:./src/asf/common/services/ioport/xmega/ioport.h ****  *    this list of conditions and the following disclaimer in the documentation
  20:./src/asf/common/services/ioport/xmega/ioport.h ****  *    and/or other materials provided with the distribution.
  21:./src/asf/common/services/ioport/xmega/ioport.h ****  *
  22:./src/asf/common/services/ioport/xmega/ioport.h ****  * 3. The name of Atmel may not be used to endorse or promote products derived
  23:./src/asf/common/services/ioport/xmega/ioport.h ****  *    from this software without specific prior written permission.
  24:./src/asf/common/services/ioport/xmega/ioport.h ****  *
  25:./src/asf/common/services/ioport/xmega/ioport.h ****  * 4. This software may only be redistributed and used in connection with an
  26:./src/asf/common/services/ioport/xmega/ioport.h ****  *    Atmel microcontroller product.
  27:./src/asf/common/services/ioport/xmega/ioport.h ****  *
  28:./src/asf/common/services/ioport/xmega/ioport.h ****  * THIS SOFTWARE IS PROVIDED BY ATMEL "AS IS" AND ANY EXPRESS OR IMPLIED
  29:./src/asf/common/services/ioport/xmega/ioport.h ****  * WARRANTIES, INCLUDING, BUT NOT LIMITED TO, THE IMPLIED WARRANTIES OF
  30:./src/asf/common/services/ioport/xmega/ioport.h ****  * MERCHANTABILITY, FITNESS FOR A PARTICULAR PURPOSE AND NON-INFRINGEMENT ARE
  31:./src/asf/common/services/ioport/xmega/ioport.h ****  * EXPRESSLY AND SPECIFICALLY DISCLAIMED. IN NO EVENT SHALL ATMEL BE LIABLE FOR
  32:./src/asf/common/services/ioport/xmega/ioport.h ****  * ANY DIRECT, INDIRECT, INCIDENTAL, SPECIAL, EXEMPLARY, OR CONSEQUENTIAL
  33:./src/asf/common/services/ioport/xmega/ioport.h ****  * DAMAGES (INCLUDING, BUT NOT LIMITED TO, PROCUREMENT OF SUBSTITUTE GOODS
  34:./src/asf/common/services/ioport/xmega/ioport.h ****  * OR SERVICES; LOSS OF USE, DATA, OR PROFITS; OR BUSINESS INTERRUPTION)
  35:./src/asf/common/services/ioport/xmega/ioport.h ****  * HOWEVER CAUSED AND ON ANY THEORY OF LIABILITY, WHETHER IN CONTRACT,
  36:./src/asf/common/services/ioport/xmega/ioport.h ****  * STRICT LIABILITY, OR TORT (INCLUDING NEGLIGENCE OR OTHERWISE) ARISING IN
  37:./src/asf/common/services/ioport/xmega/ioport.h ****  * ANY WAY OUT OF THE USE OF THIS SOFTWARE, EVEN IF ADVISED OF THE
  38:./src/asf/common/services/ioport/xmega/ioport.h ****  * POSSIBILITY OF SUCH DAMAGE.
  39:./src/asf/common/services/ioport/xmega/ioport.h ****  *
  40:./src/asf/common/services/ioport/xmega/ioport.h ****  * \asf_license_stop
  41:./src/asf/common/services/ioport/xmega/ioport.h ****  *
  42:./src/asf/common/services/ioport/xmega/ioport.h ****  */
  43:./src/asf/common/services/ioport/xmega/ioport.h **** #ifndef IOPORT_XMEGA_H
  44:./src/asf/common/services/ioport/xmega/ioport.h **** #define IOPORT_XMEGA_H
  45:./src/asf/common/services/ioport/xmega/ioport.h **** 
  46:./src/asf/common/services/ioport/xmega/ioport.h **** #define IOPORT_CREATE_PIN(port, pin) ((IOPORT_ ## port) * 8 + (pin))
  47:./src/asf/common/services/ioport/xmega/ioport.h **** #define IOPORT_BASE_ADDRESS 0x600
  48:./src/asf/common/services/ioport/xmega/ioport.h **** #define IOPORT_PORT_OFFSET  0x20
  49:./src/asf/common/services/ioport/xmega/ioport.h **** 
  50:./src/asf/common/services/ioport/xmega/ioport.h **** /** \name IOPORT port numbers */
  51:./src/asf/common/services/ioport/xmega/ioport.h **** /** @{ */
  52:./src/asf/common/services/ioport/xmega/ioport.h **** #if !XMEGA_B3
  53:./src/asf/common/services/ioport/xmega/ioport.h **** #  define IOPORT_PORTA  0
  54:./src/asf/common/services/ioport/xmega/ioport.h **** #endif
  55:./src/asf/common/services/ioport/xmega/ioport.h **** 
  56:./src/asf/common/services/ioport/xmega/ioport.h **** #define IOPORT_PORTB    1
  57:./src/asf/common/services/ioport/xmega/ioport.h **** #define IOPORT_PORTC    2
  58:./src/asf/common/services/ioport/xmega/ioport.h **** #define IOPORT_PORTD    3
  59:./src/asf/common/services/ioport/xmega/ioport.h **** 
GAS LISTING /tmp/ccUM190a.s 			page 7


  60:./src/asf/common/services/ioport/xmega/ioport.h **** #if !XMEGA_B3
  61:./src/asf/common/services/ioport/xmega/ioport.h **** #  define IOPORT_PORTE  4
  62:./src/asf/common/services/ioport/xmega/ioport.h **** #endif
  63:./src/asf/common/services/ioport/xmega/ioport.h **** 
  64:./src/asf/common/services/ioport/xmega/ioport.h **** #if XMEGA_A1 || XMEGA_A1U || XMEGA_A3 || XMEGA_A3U || XMEGA_A3B || XMEGA_A3BU ||\
  65:./src/asf/common/services/ioport/xmega/ioport.h **** 	XMEGA_C3 || XMEGA_D3
  66:./src/asf/common/services/ioport/xmega/ioport.h **** #  define IOPORT_PORTF  5
  67:./src/asf/common/services/ioport/xmega/ioport.h **** #endif
  68:./src/asf/common/services/ioport/xmega/ioport.h **** 
  69:./src/asf/common/services/ioport/xmega/ioport.h **** #if XMEGA_B1 || XMEGA_B3
  70:./src/asf/common/services/ioport/xmega/ioport.h **** #  define IOPORT_PORTG  6
  71:./src/asf/common/services/ioport/xmega/ioport.h **** #endif
  72:./src/asf/common/services/ioport/xmega/ioport.h **** 
  73:./src/asf/common/services/ioport/xmega/ioport.h **** #if XMEGA_A1 || XMEGA_A1U
  74:./src/asf/common/services/ioport/xmega/ioport.h **** #  define IOPORT_PORTH  7
  75:./src/asf/common/services/ioport/xmega/ioport.h **** #  define IOPORT_PORTJ  8
  76:./src/asf/common/services/ioport/xmega/ioport.h **** #  define IOPORT_PORTK  9
  77:./src/asf/common/services/ioport/xmega/ioport.h **** #endif
  78:./src/asf/common/services/ioport/xmega/ioport.h **** 
  79:./src/asf/common/services/ioport/xmega/ioport.h **** #if XMEGA_B1 || XMEGA_B3
  80:./src/asf/common/services/ioport/xmega/ioport.h **** #  define IOPORT_PORTM  11
  81:./src/asf/common/services/ioport/xmega/ioport.h **** #endif
  82:./src/asf/common/services/ioport/xmega/ioport.h **** 
  83:./src/asf/common/services/ioport/xmega/ioport.h **** #if XMEGA_A1 || XMEGA_A1U
  84:./src/asf/common/services/ioport/xmega/ioport.h **** #  define IOPORT_PORTQ  14
  85:./src/asf/common/services/ioport/xmega/ioport.h **** #endif
  86:./src/asf/common/services/ioport/xmega/ioport.h **** 
  87:./src/asf/common/services/ioport/xmega/ioport.h **** #define IOPORT_PORTR    15
  88:./src/asf/common/services/ioport/xmega/ioport.h **** /** @} */
  89:./src/asf/common/services/ioport/xmega/ioport.h **** 
  90:./src/asf/common/services/ioport/xmega/ioport.h **** /**
  91:./src/asf/common/services/ioport/xmega/ioport.h ****  * \weakgroup ioport_group
  92:./src/asf/common/services/ioport/xmega/ioport.h ****  * \section ioport_modes IOPORT Modes
  93:./src/asf/common/services/ioport/xmega/ioport.h ****  *
  94:./src/asf/common/services/ioport/xmega/ioport.h ****  * For details on these please see the XMEGA Manual.
  95:./src/asf/common/services/ioport/xmega/ioport.h ****  *
  96:./src/asf/common/services/ioport/xmega/ioport.h ****  * @{
  97:./src/asf/common/services/ioport/xmega/ioport.h ****  */
  98:./src/asf/common/services/ioport/xmega/ioport.h **** 
  99:./src/asf/common/services/ioport/xmega/ioport.h **** /** \name IOPORT Mode bit definitions */
 100:./src/asf/common/services/ioport/xmega/ioport.h **** /** @{ */
 101:./src/asf/common/services/ioport/xmega/ioport.h **** #define IOPORT_MODE_TOTEM           (0x00 << 3) /*!< Totem-pole */
 102:./src/asf/common/services/ioport/xmega/ioport.h **** #define IOPORT_MODE_BUSKEEPER       (0x01 << 3) /*!< Buskeeper */
 103:./src/asf/common/services/ioport/xmega/ioport.h **** #define IOPORT_MODE_PULLDOWN        (0x02 << 3) /*!< Pull-down */
 104:./src/asf/common/services/ioport/xmega/ioport.h **** #define IOPORT_MODE_PULLUP          (0x03 << 3) /*!< Pull-up */
 105:./src/asf/common/services/ioport/xmega/ioport.h **** #define IOPORT_MODE_WIREDOR         (0x04 << 3) /*!< Wired OR */
 106:./src/asf/common/services/ioport/xmega/ioport.h **** #define IOPORT_MODE_WIREDAND        (0x05 << 3) /*!< Wired AND */
 107:./src/asf/common/services/ioport/xmega/ioport.h **** #define IOPORT_MODE_WIREDORPULL     (0x06 << 3) /*!< Wired OR with pull-down */
 108:./src/asf/common/services/ioport/xmega/ioport.h **** #define IOPORT_MODE_WIREDANDPULL    (0x07 << 3) /*!< Wired AND with pull-up */
 109:./src/asf/common/services/ioport/xmega/ioport.h **** #define IOPORT_MODE_INVERT_PIN      (0x01 << 6) /*!< Invert output and input */
 110:./src/asf/common/services/ioport/xmega/ioport.h **** #define IOPORT_MODE_SLEW_RATE_LIMIT (0x01 << 7) /*!< Slew rate limiting */
 111:./src/asf/common/services/ioport/xmega/ioport.h **** /** @} */
 112:./src/asf/common/services/ioport/xmega/ioport.h **** 
 113:./src/asf/common/services/ioport/xmega/ioport.h **** /** @} */
 114:./src/asf/common/services/ioport/xmega/ioport.h **** 
 115:./src/asf/common/services/ioport/xmega/ioport.h **** typedef uint8_t ioport_mode_t;
 116:./src/asf/common/services/ioport/xmega/ioport.h **** typedef uint8_t ioport_pin_t;
GAS LISTING /tmp/ccUM190a.s 			page 8


 117:./src/asf/common/services/ioport/xmega/ioport.h **** typedef uint8_t ioport_port_t;
 118:./src/asf/common/services/ioport/xmega/ioport.h **** typedef uint8_t ioport_port_mask_t;
 119:./src/asf/common/services/ioport/xmega/ioport.h **** 
 120:./src/asf/common/services/ioport/xmega/ioport.h **** __always_inline static ioport_port_t arch_ioport_pin_to_port_id(ioport_pin_t pin)
 121:./src/asf/common/services/ioport/xmega/ioport.h **** {
 122:./src/asf/common/services/ioport/xmega/ioport.h **** 	return pin >> 3;
 123:./src/asf/common/services/ioport/xmega/ioport.h **** }
 124:./src/asf/common/services/ioport/xmega/ioport.h **** 
 125:./src/asf/common/services/ioport/xmega/ioport.h **** __always_inline static PORT_t *arch_ioport_port_to_base(ioport_port_t port)
 126:./src/asf/common/services/ioport/xmega/ioport.h **** {
 127:./src/asf/common/services/ioport/xmega/ioport.h **** 	return (PORT_t *)((uintptr_t)IOPORT_BASE_ADDRESS +
 128:./src/asf/common/services/ioport/xmega/ioport.h **** 	       (port * IOPORT_PORT_OFFSET));
 129:./src/asf/common/services/ioport/xmega/ioport.h **** }
 130:./src/asf/common/services/ioport/xmega/ioport.h **** 
 131:./src/asf/common/services/ioport/xmega/ioport.h **** __always_inline static PORT_t *arch_ioport_pin_to_base(ioport_pin_t pin)
 132:./src/asf/common/services/ioport/xmega/ioport.h **** {
 133:./src/asf/common/services/ioport/xmega/ioport.h **** 	return arch_ioport_port_to_base(arch_ioport_pin_to_port_id(pin));
 134:./src/asf/common/services/ioport/xmega/ioport.h **** }
 135:./src/asf/common/services/ioport/xmega/ioport.h **** 
 136:./src/asf/common/services/ioport/xmega/ioport.h **** __always_inline static ioport_port_mask_t arch_ioport_pin_to_mask(ioport_pin_t pin)
 137:./src/asf/common/services/ioport/xmega/ioport.h **** {
 138:./src/asf/common/services/ioport/xmega/ioport.h **** 	return 1U << (pin & 0x07);
 139:./src/asf/common/services/ioport/xmega/ioport.h **** }
 140:./src/asf/common/services/ioport/xmega/ioport.h **** 
 141:./src/asf/common/services/ioport/xmega/ioport.h **** __always_inline static ioport_port_mask_t arch_ioport_pin_to_index(ioport_pin_t pin)
 142:./src/asf/common/services/ioport/xmega/ioport.h **** {
 143:./src/asf/common/services/ioport/xmega/ioport.h **** 	return (pin & 0x07);
 144:./src/asf/common/services/ioport/xmega/ioport.h **** }
 145:./src/asf/common/services/ioport/xmega/ioport.h **** 
 146:./src/asf/common/services/ioport/xmega/ioport.h **** __always_inline static void arch_ioport_init(void)
 147:./src/asf/common/services/ioport/xmega/ioport.h **** {
 148:./src/asf/common/services/ioport/xmega/ioport.h **** 	
 149:./src/asf/common/services/ioport/xmega/ioport.h **** }
 150:./src/asf/common/services/ioport/xmega/ioport.h **** 
 151:./src/asf/common/services/ioport/xmega/ioport.h **** __always_inline static void arch_ioport_enable_port(ioport_port_t port,
 152:./src/asf/common/services/ioport/xmega/ioport.h **** 		ioport_port_mask_t mask)
 153:./src/asf/common/services/ioport/xmega/ioport.h **** {
 154:./src/asf/common/services/ioport/xmega/ioport.h **** 	PORT_t *base = arch_ioport_port_to_base(port);
 155:./src/asf/common/services/ioport/xmega/ioport.h **** 	volatile uint8_t *pin_ctrl = &base->PIN0CTRL;
 156:./src/asf/common/services/ioport/xmega/ioport.h **** 
 157:./src/asf/common/services/ioport/xmega/ioport.h **** 	uint8_t flags = cpu_irq_save();
 158:./src/asf/common/services/ioport/xmega/ioport.h **** 
 159:./src/asf/common/services/ioport/xmega/ioport.h **** 	for (uint8_t i = 0; i < 8; i++) {
 160:./src/asf/common/services/ioport/xmega/ioport.h **** 		if (mask & arch_ioport_pin_to_mask(i)) {
 161:./src/asf/common/services/ioport/xmega/ioport.h **** 			pin_ctrl[i] &= ~PORT_ISC_gm;
 162:./src/asf/common/services/ioport/xmega/ioport.h **** 		}
 163:./src/asf/common/services/ioport/xmega/ioport.h **** 	}
 164:./src/asf/common/services/ioport/xmega/ioport.h **** 	
 165:./src/asf/common/services/ioport/xmega/ioport.h **** 	cpu_irq_restore(flags);	
 166:./src/asf/common/services/ioport/xmega/ioport.h **** }
 167:./src/asf/common/services/ioport/xmega/ioport.h **** 
 168:./src/asf/common/services/ioport/xmega/ioport.h **** __always_inline static void arch_ioport_enable_pin(ioport_pin_t pin)
 169:./src/asf/common/services/ioport/xmega/ioport.h **** {
 170:./src/asf/common/services/ioport/xmega/ioport.h **** 	PORT_t *base = arch_ioport_pin_to_base(pin);
 171:./src/asf/common/services/ioport/xmega/ioport.h **** 	volatile uint8_t *pin_ctrl =
 172:./src/asf/common/services/ioport/xmega/ioport.h **** 			(&base->PIN0CTRL + arch_ioport_pin_to_index(pin));
 173:./src/asf/common/services/ioport/xmega/ioport.h **** 
GAS LISTING /tmp/ccUM190a.s 			page 9


 174:./src/asf/common/services/ioport/xmega/ioport.h **** 	uint8_t flags = cpu_irq_save();
 175:./src/asf/common/services/ioport/xmega/ioport.h **** 	
 176:./src/asf/common/services/ioport/xmega/ioport.h **** 	*pin_ctrl &= ~PORT_ISC_gm;
 177:./src/asf/common/services/ioport/xmega/ioport.h **** 	
 178:./src/asf/common/services/ioport/xmega/ioport.h **** 	cpu_irq_restore(flags);
 179:./src/asf/common/services/ioport/xmega/ioport.h **** }
 180:./src/asf/common/services/ioport/xmega/ioport.h **** 
 181:./src/asf/common/services/ioport/xmega/ioport.h **** __always_inline static void arch_ioport_disable_port(ioport_port_t port,
 182:./src/asf/common/services/ioport/xmega/ioport.h **** 		ioport_port_mask_t mask)
 183:./src/asf/common/services/ioport/xmega/ioport.h **** {
 184:./src/asf/common/services/ioport/xmega/ioport.h **** 	PORT_t *base = arch_ioport_port_to_base(port);
 185:./src/asf/common/services/ioport/xmega/ioport.h **** 	volatile uint8_t *pin_ctrl = &base->PIN0CTRL;
 186:./src/asf/common/services/ioport/xmega/ioport.h **** 
 187:./src/asf/common/services/ioport/xmega/ioport.h **** 	uint8_t flags = cpu_irq_save();
 188:./src/asf/common/services/ioport/xmega/ioport.h **** 
 189:./src/asf/common/services/ioport/xmega/ioport.h **** 	for (uint8_t i = 0; i < 8; i++) {
 190:./src/asf/common/services/ioport/xmega/ioport.h **** 		if (mask & arch_ioport_pin_to_mask(i)) {
 191:./src/asf/common/services/ioport/xmega/ioport.h **** 			pin_ctrl[i] |= PORT_ISC_INPUT_DISABLE_gc;
 192:./src/asf/common/services/ioport/xmega/ioport.h **** 		}
 193:./src/asf/common/services/ioport/xmega/ioport.h **** 	}
 194:./src/asf/common/services/ioport/xmega/ioport.h **** 	
 195:./src/asf/common/services/ioport/xmega/ioport.h **** 	cpu_irq_restore(flags);
 196:./src/asf/common/services/ioport/xmega/ioport.h **** }
 197:./src/asf/common/services/ioport/xmega/ioport.h **** 
 198:./src/asf/common/services/ioport/xmega/ioport.h **** __always_inline static void arch_ioport_disable_pin(ioport_pin_t pin)
 199:./src/asf/common/services/ioport/xmega/ioport.h **** {
 200:./src/asf/common/services/ioport/xmega/ioport.h **** 	PORT_t *base = arch_ioport_pin_to_base(pin);
 201:./src/asf/common/services/ioport/xmega/ioport.h **** 	volatile uint8_t *pin_ctrl =
 202:./src/asf/common/services/ioport/xmega/ioport.h **** 			(&base->PIN0CTRL + arch_ioport_pin_to_index(pin));
 203:./src/asf/common/services/ioport/xmega/ioport.h **** 
 204:./src/asf/common/services/ioport/xmega/ioport.h **** 	uint8_t flags = cpu_irq_save();
 205:./src/asf/common/services/ioport/xmega/ioport.h **** 	
 206:./src/asf/common/services/ioport/xmega/ioport.h **** 	*pin_ctrl |= PORT_ISC_INPUT_DISABLE_gc;
 207:./src/asf/common/services/ioport/xmega/ioport.h **** 	
 208:./src/asf/common/services/ioport/xmega/ioport.h **** 	cpu_irq_restore(flags);
 209:./src/asf/common/services/ioport/xmega/ioport.h **** }
 210:./src/asf/common/services/ioport/xmega/ioport.h **** 
 211:./src/asf/common/services/ioport/xmega/ioport.h **** __always_inline static void arch_ioport_set_port_mode(ioport_port_t port,
 212:./src/asf/common/services/ioport/xmega/ioport.h **** 		ioport_port_mask_t mask, ioport_mode_t mode)
 213:./src/asf/common/services/ioport/xmega/ioport.h **** {
 214:./src/asf/common/services/ioport/xmega/ioport.h **** 	PORT_t *base = arch_ioport_port_to_base(port);
 215:./src/asf/common/services/ioport/xmega/ioport.h **** 
 216:./src/asf/common/services/ioport/xmega/ioport.h **** 	PORTCFG.MPCMASK = mask;
 217:./src/asf/common/services/ioport/xmega/ioport.h **** 	base->PIN0CTRL = mode;
 218:./src/asf/common/services/ioport/xmega/ioport.h **** }
 219:./src/asf/common/services/ioport/xmega/ioport.h **** 
 220:./src/asf/common/services/ioport/xmega/ioport.h **** __always_inline static void arch_ioport_set_pin_mode(ioport_pin_t pin,
 221:./src/asf/common/services/ioport/xmega/ioport.h **** 		ioport_mode_t mode)
 222:./src/asf/common/services/ioport/xmega/ioport.h **** {
 223:./src/asf/common/services/ioport/xmega/ioport.h **** 	PORT_t *base = arch_ioport_pin_to_base(pin);
 224:./src/asf/common/services/ioport/xmega/ioport.h **** 
 225:./src/asf/common/services/ioport/xmega/ioport.h **** 	PORTCFG.MPCMASK = arch_ioport_pin_to_mask(pin);
 226:./src/asf/common/services/ioport/xmega/ioport.h **** 	base->PIN0CTRL = mode;
 227:./src/asf/common/services/ioport/xmega/ioport.h **** }
 228:./src/asf/common/services/ioport/xmega/ioport.h **** 
 229:./src/asf/common/services/ioport/xmega/ioport.h **** __always_inline static void arch_ioport_set_port_dir(ioport_port_t port,
 230:./src/asf/common/services/ioport/xmega/ioport.h **** 		ioport_port_mask_t mask, enum ioport_direction dir)
GAS LISTING /tmp/ccUM190a.s 			page 10


 231:./src/asf/common/services/ioport/xmega/ioport.h **** {
 232:./src/asf/common/services/ioport/xmega/ioport.h **** 	PORT_t *base = arch_ioport_port_to_base(port);
 233:./src/asf/common/services/ioport/xmega/ioport.h **** 
 234:./src/asf/common/services/ioport/xmega/ioport.h **** 	if (dir == IOPORT_DIR_OUTPUT) {
 235:./src/asf/common/services/ioport/xmega/ioport.h **** 		base->DIRSET = mask;
 236:./src/asf/common/services/ioport/xmega/ioport.h **** 	} else if (dir == IOPORT_DIR_INPUT) {
 237:./src/asf/common/services/ioport/xmega/ioport.h **** 		base->DIRCLR = mask;
 238:./src/asf/common/services/ioport/xmega/ioport.h **** 	}
 239:./src/asf/common/services/ioport/xmega/ioport.h **** }
 240:./src/asf/common/services/ioport/xmega/ioport.h **** 
 241:./src/asf/common/services/ioport/xmega/ioport.h **** __always_inline static void arch_ioport_set_pin_dir(ioport_pin_t pin,
 242:./src/asf/common/services/ioport/xmega/ioport.h **** 		enum ioport_direction dir)
 243:./src/asf/common/services/ioport/xmega/ioport.h **** {
 244:./src/asf/common/services/ioport/xmega/ioport.h **** 	PORT_t *base = arch_ioport_pin_to_base(pin);
 245:./src/asf/common/services/ioport/xmega/ioport.h **** 
 246:./src/asf/common/services/ioport/xmega/ioport.h **** 	if (dir == IOPORT_DIR_OUTPUT) {
 247:./src/asf/common/services/ioport/xmega/ioport.h **** 		base->DIRSET = arch_ioport_pin_to_mask(pin);
 248:./src/asf/common/services/ioport/xmega/ioport.h **** 	} else if (dir == IOPORT_DIR_INPUT) {
 249:./src/asf/common/services/ioport/xmega/ioport.h **** 		base->DIRCLR = arch_ioport_pin_to_mask(pin);
 250:./src/asf/common/services/ioport/xmega/ioport.h **** 	}
 251:./src/asf/common/services/ioport/xmega/ioport.h **** }
 252:./src/asf/common/services/ioport/xmega/ioport.h **** 
 253:./src/asf/common/services/ioport/xmega/ioport.h **** __always_inline static void arch_ioport_set_pin_level(ioport_pin_t pin,
 254:./src/asf/common/services/ioport/xmega/ioport.h **** 		bool level)
 255:./src/asf/common/services/ioport/xmega/ioport.h **** {
 256:./src/asf/common/services/ioport/xmega/ioport.h **** 	PORT_t *base = arch_ioport_pin_to_base(pin);
 257:./src/asf/common/services/ioport/xmega/ioport.h **** 
 258:./src/asf/common/services/ioport/xmega/ioport.h **** 	if (level) {
 259:./src/asf/common/services/ioport/xmega/ioport.h **** 		base->OUTSET = arch_ioport_pin_to_mask(pin);
 141               		.loc 2 259 0
 142 0074 80E1      		ldi r24,lo8(16)
 143               	.LVL12:
 144 0076 E0E4      		ldi r30,lo8(1600)
 145 0078 F6E0      		ldi r31,hi8(1600)
 146 007a 8583      		std Z+5,r24
 147               	.LBE40:
 148               	.LBE39:
 149               	.LBE38:
  30:src/usb.c     **** 			usart_putchar(&USARTC0, inbyte);
 150               		.loc 1 30 0
 151 007c 80EA      		ldi r24,lo8(2208)
 152 007e 98E0      		ldi r25,hi8(2208)
 153 0080 612F      		mov r22,r17
 154 0082 0E94 0000 		call usart_putchar
 155               	.LVL13:
 156               	.L31:
  35:src/usb.c     **** 		switch (g_cmdState) {
 157               		.loc 1 35 0
 158 0086 8091 0000 		lds r24,g_cmdState
 159 008a 8230      		cpi r24,lo8(2)
 160 008c 01F0      		breq .L17
 161 008e 8330      		cpi r24,lo8(3)
 162 0090 00F4      		brsh .L20
 163 0092 8823      		tst r24
 164 0094 01F0      		breq .L15
 165 0096 8130      		cpi r24,lo8(1)
 166 0098 01F0      		breq .+2
GAS LISTING /tmp/ccUM190a.s 			page 11


 167 009a 00C0      		rjmp .L14
 168 009c 00C0      		rjmp .L32
 169               	.L20:
 170 009e 8330      		cpi r24,lo8(3)
 171 00a0 01F4      		brne .+2
 172 00a2 00C0      		rjmp .L18
 173 00a4 8430      		cpi r24,lo8(4)
 174 00a6 01F0      		breq .+2
 175 00a8 00C0      		rjmp .L14
 176 00aa 00C0      		rjmp .L33
 177               	.L15:
  38:src/usb.c     **** 				if (inbyte == USB_START_BYTE) {
 178               		.loc 1 38 0
 179 00ac 1939      		cpi r17,lo8(-103)
 180 00ae 01F4      		brne .L21
  39:src/usb.c     **** 					g_cmdState = STATE_ADDRESS;					
 181               		.loc 1 39 0
 182 00b0 82E0      		ldi r24,lo8(2)
 183 00b2 8093 0000 		sts g_cmdState,r24
 184               	.L21:
  41:src/usb.c     **** 				udi_cdc_putc(0x01);
 185               		.loc 1 41 0
 186 00b6 81E0      		ldi r24,lo8(1)
 187 00b8 90E0      		ldi r25,hi8(1)
 188 00ba 0E94 0000 		call udi_cdc_putc
  42:src/usb.c     **** 				break;
 189               		.loc 1 42 0
 190 00be 00C0      		rjmp .L14
 191               	.L17:
  45:src/usb.c     **** 				if ((inbyte == 0x00) || inbyte == g_address) {
 192               		.loc 1 45 0
 193 00c0 1123      		tst r17
 194 00c2 01F0      		breq .L22
  45:src/usb.c     **** 				if ((inbyte == 0x00) || inbyte == g_address) {
 195               		.loc 1 45 0 is_stmt 0 discriminator 1
 196 00c4 8091 0000 		lds r24,g_address
 197 00c8 1817      		cp r17,r24
 198 00ca 01F4      		brne .L23
 199               	.L22:
  46:src/usb.c     **** 					g_usbDataCount = 0;
 200               		.loc 1 46 0 is_stmt 1
 201 00cc 1092 0000 		sts g_usbDataCount,__zero_reg__
 202 00d0 1092 0000 		sts g_usbDataCount+1,__zero_reg__
  47:src/usb.c     **** 					g_cmdState = STATE_START;
 203               		.loc 1 47 0
 204 00d4 81E0      		ldi r24,lo8(1)
 205 00d6 8093 0000 		sts g_cmdState,r24
 206 00da 00C0      		rjmp .L24
 207               	.L23:
  49:src/usb.c     **** 					g_cmdState = STATE_IDLE;
 208               		.loc 1 49 0
 209 00dc 1092 0000 		sts g_cmdState,__zero_reg__
 210               	.L24:
  53:src/usb.c     **** 				udi_cdc_putc(0x01);
 211               		.loc 1 53 0
 212 00e0 81E0      		ldi r24,lo8(1)
 213 00e2 90E0      		ldi r25,hi8(1)
GAS LISTING /tmp/ccUM190a.s 			page 12


 214 00e4 0E94 0000 		call udi_cdc_putc
  54:src/usb.c     **** 				break;
 215               		.loc 1 54 0
 216 00e8 00C0      		rjmp .L14
 217               	.L32:
  57:src/usb.c     **** 				if (g_usbDataCount == 0) {
 218               		.loc 1 57 0
 219 00ea 8091 0000 		lds r24,g_usbDataCount
 220 00ee 9091 0000 		lds r25,g_usbDataCount+1
 221 00f2 0097      		sbiw r24,0
 222 00f4 01F4      		brne .L25
  58:src/usb.c     **** 					g_usbCommand = inbyte;
 223               		.loc 1 58 0
 224 00f6 1093 0000 		sts g_usbCommand,r17
  59:src/usb.c     **** 					g_usbDataCount++;
 225               		.loc 1 59 0
 226 00fa 81E0      		ldi r24,lo8(1)
 227 00fc 90E0      		ldi r25,hi8(1)
 228 00fe 8093 0000 		sts g_usbDataCount,r24
 229 0102 9093 0000 		sts g_usbDataCount+1,r25
 230 0106 00C0      		rjmp .L14
 231               	.L25:
  61:src/usb.c     **** 				} else if (g_usbDataCount == 1) {
 232               		.loc 1 61 0
 233 0108 8130      		cpi r24,1
 234 010a 9105      		cpc r25,__zero_reg__
 235 010c 01F4      		brne .L26
  62:src/usb.c     **** 					g_usbDataLength = inbyte;
 236               		.loc 1 62 0
 237 010e 1093 0000 		sts g_usbDataLength,r17
 238 0112 1092 0000 		sts g_usbDataLength+1,__zero_reg__
  63:src/usb.c     **** 					g_usbDataCount++;
 239               		.loc 1 63 0
 240 0116 82E0      		ldi r24,lo8(2)
 241 0118 90E0      		ldi r25,hi8(2)
 242 011a 8093 0000 		sts g_usbDataCount,r24
 243 011e 9093 0000 		sts g_usbDataCount+1,r25
 244 0122 00C0      		rjmp .L14
 245               	.L26:
  66:src/usb.c     **** 					g_usbDataLength += (inbyte << 8);
 246               		.loc 1 66 0
 247 0124 912F      		mov r25,r17
 248 0126 80E0      		ldi r24,lo8(0)
 249 0128 2091 0000 		lds r18,g_usbDataLength
 250 012c 3091 0000 		lds r19,g_usbDataLength+1
 251 0130 820F      		add r24,r18
 252 0132 931F      		adc r25,r19
 253 0134 8093 0000 		sts g_usbDataLength,r24
 254 0138 9093 0000 		sts g_usbDataLength+1,r25
  67:src/usb.c     **** 					udi_cdc_putc(0x01);
 255               		.loc 1 67 0
 256 013c 81E0      		ldi r24,lo8(1)
 257 013e 90E0      		ldi r25,hi8(1)
 258 0140 0E94 0000 		call udi_cdc_putc
  68:src/usb.c     **** 					if (g_usbDataLength > (USB_BUFFER_SIZE - 1)) {
 259               		.loc 1 68 0
 260 0144 8091 0000 		lds r24,g_usbDataLength
GAS LISTING /tmp/ccUM190a.s 			page 13


 261 0148 9091 0000 		lds r25,g_usbDataLength+1
 262 014c 22E0      		ldi r18,hi8(586)
 263 014e 8A34      		cpi r24,lo8(586)
 264 0150 9207      		cpc r25,r18
 265 0152 00F0      		brlo .L27
  69:src/usb.c     **** 						g_usbDataLength = USB_BUFFER_SIZE - 1;
 266               		.loc 1 69 0
 267 0154 89E4      		ldi r24,lo8(585)
 268 0156 92E0      		ldi r25,hi8(585)
 269 0158 8093 0000 		sts g_usbDataLength,r24
 270 015c 9093 0000 		sts g_usbDataLength+1,r25
 271               	.L27:
  72:src/usb.c     **** 					g_usbDataCount = 0;
 272               		.loc 1 72 0
 273 0160 1092 0000 		sts g_usbDataCount,__zero_reg__
 274 0164 1092 0000 		sts g_usbDataCount+1,__zero_reg__
  73:src/usb.c     **** 					g_cmdState = STATE_RECEIVE;
 275               		.loc 1 73 0
 276 0168 83E0      		ldi r24,lo8(3)
 277 016a 8093 0000 		sts g_cmdState,r24
  75:src/usb.c     **** 					PORTA.OUTSET = (1<<6);
 278               		.loc 1 75 0
 279 016e 80E4      		ldi r24,lo8(64)
 280 0170 E0E0      		ldi r30,lo8(1536)
 281 0172 F6E0      		ldi r31,hi8(1536)
 282 0174 8583      		std Z+5,r24
 283 0176 00C0      		rjmp .L14
 284               	.L18:
  80:src/usb.c     **** 				if (g_usbDataCount < g_usbDataLength) {
 285               		.loc 1 80 0
 286 0178 8091 0000 		lds r24,g_usbDataCount
 287 017c 9091 0000 		lds r25,g_usbDataCount+1
 288 0180 2091 0000 		lds r18,g_usbDataLength
 289 0184 3091 0000 		lds r19,g_usbDataLength+1
 290 0188 8217      		cp r24,r18
 291 018a 9307      		cpc r25,r19
 292 018c 00F4      		brsh .L28
  81:src/usb.c     **** 					g_usbDataBuffer[g_usbDataCount] = inbyte;
 293               		.loc 1 81 0
 294 018e FC01      		movw r30,r24
 295 0190 E050      		subi r30,lo8(-(g_usbDataBuffer))
 296 0192 F040      		sbci r31,hi8(-(g_usbDataBuffer))
 297 0194 1083      		st Z,r17
  83:src/usb.c     **** 					g_usbDataCount++;
 298               		.loc 1 83 0
 299 0196 0196      		adiw r24,1
 300 0198 8093 0000 		sts g_usbDataCount,r24
 301 019c 9093 0000 		sts g_usbDataCount+1,r25
 302 01a0 00C0      		rjmp .L14
 303               	.L28:
  85:src/usb.c     **** 					g_cmdState = STATE_CHECKSUM;
 304               		.loc 1 85 0
 305 01a2 84E0      		ldi r24,lo8(4)
 306 01a4 8093 0000 		sts g_cmdState,r24
  87:src/usb.c     **** 					if (usb_checksum(inbyte, &checksum)) {
 307               		.loc 1 87 0
 308 01a8 812F      		mov r24,r17
GAS LISTING /tmp/ccUM190a.s 			page 14


 309 01aa BE01      		movw r22,r28
 310 01ac 6F5F      		subi r22,lo8(-(1))
 311 01ae 7F4F      		sbci r23,hi8(-(1))
 312 01b0 0E94 0000 		call usb_checksum
 313 01b4 8823      		tst r24
 314 01b6 01F0      		breq .L29
  89:src/usb.c     **** 						process_command();
 315               		.loc 1 89 0
 316 01b8 0E94 0000 		call process_command
 317               	.L29:
  94:src/usb.c     **** 					g_cmdState = STATE_IDLE;
 318               		.loc 1 94 0
 319 01bc 1092 0000 		sts g_cmdState,__zero_reg__
 320 01c0 00C0      		rjmp .L14
 321               	.L33:
 100:src/usb.c     **** 				if (usb_checksum(inbyte, &checksum)) {
 322               		.loc 1 100 0
 323 01c2 812F      		mov r24,r17
 324 01c4 BE01      		movw r22,r28
 325 01c6 6F5F      		subi r22,lo8(-(1))
 326 01c8 7F4F      		sbci r23,hi8(-(1))
 327 01ca 0E94 0000 		call usb_checksum
 328 01ce 8823      		tst r24
 329 01d0 01F0      		breq .L30
 102:src/usb.c     **** 					process_command();
 330               		.loc 1 102 0
 331 01d2 0E94 0000 		call process_command
 332               	.L30:
 108:src/usb.c     **** 				PORTA.OUTCLR = (1<<6);
 333               		.loc 1 108 0
 334 01d6 80E4      		ldi r24,lo8(64)
 335 01d8 E0E0      		ldi r30,lo8(1536)
 336 01da F6E0      		ldi r31,hi8(1536)
 337 01dc 8683      		std Z+6,r24
 109:src/usb.c     **** 				g_cmdState = STATE_IDLE;
 338               		.loc 1 109 0
 339 01de 1092 0000 		sts g_cmdState,__zero_reg__
 340               	.L14:
 113:src/usb.c     **** 		PORTA.OUTCLR = (1<<7);
 341               		.loc 1 113 0
 342 01e2 80E8      		ldi r24,lo8(-128)
 343 01e4 E0E0      		ldi r30,lo8(1536)
 344 01e6 F6E0      		ldi r31,hi8(1536)
 345 01e8 8683      		std Z+6,r24
 346 01ea 00C0      		rjmp .L10
 347               	.LVL14:
 348               	.L12:
  24:src/usb.c     **** 		PORTA.OUTSET = (1<<7);
 349               		.loc 1 24 0
 350 01ec 80E8      		ldi r24,lo8(-128)
 351               	.LVL15:
 352 01ee E0E0      		ldi r30,lo8(1536)
 353 01f0 F6E0      		ldi r31,hi8(1536)
 354 01f2 8583      		std Z+5,r24
  32:src/usb.c     **** 			inbyte = g_usartData;
 355               		.loc 1 32 0
 356 01f4 1091 0000 		lds r17,g_usartData
GAS LISTING /tmp/ccUM190a.s 			page 15


 357               	.LVL16:
 358 01f8 00C0      		rjmp .L31
 359               	.LVL17:
 360               	.L10:
 361               	/* epilogue start */
 115:src/usb.c     **** }
 362               		.loc 1 115 0
 363 01fa 0F90      		pop __tmp_reg__
 364 01fc DF91      		pop r29
 365 01fe CF91      		pop r28
 366 0200 1F91      		pop r17
 367 0202 0895      		ret
 368               		.cfi_endproc
 369               	.LFE254:
 370               		.size	process_usb, .-process_usb
 371               		.comm COMMAND_TYPE,1,1
 372               		.comm g_usbDataBuffer,586,1
 373               		.comm g_usbDataCount,2,1
 374               		.comm g_usbDataLength,2,1
 375               		.comm g_usbCommand,1,1
 376               		.comm g_cmdState,1,1
 377               		.comm dirty,1,1
 378               		.comm data_pointer,2,1
 379               		.comm data_buffer,576,1
 380               		.comm num_bytes,2,1
 381               		.comm num_leds,2,1
 382               		.comm ticks,8,1
 383               		.comm g_usartData,1,1
 384               		.comm g_address,1,1
 385               		.comm USB_STATE,1,1
 386               	.Letext0:
 387               		.file 3 "/usr/local/avr8-gnu-toolchain-linux_x86_64/bin/../lib/gcc/avr/4.6.2/../../../../avr/inclu
 388               		.file 4 "/usr/local/include/avr/iox32a4u.h"
 389               		.file 5 "./src/asf/common/services/ioport/xmega/ioport_compat.h"
 390               		.file 6 "src/usb.h"
 391               		.file 7 "src/commands.h"
 392               		.file 8 "./src/asf/common/services/sleepmgr/xmega/sleepmgr.h"
 393               		.file 9 "./src/asf/xmega/drivers/usart/usart.h"
 394               		.file 10 "./src/asf/common/utils/stdio/stdio_serial/stdio_serial.h"
 395               		.file 11 "src/globals.h"
 396               		.section	.debug_info,"",@progbits
 397               	.Ldebug_info0:
 398 0000 2F08 0000 		.long	0x82f
 399 0004 0200      		.word	0x2
 400 0006 0000 0000 		.long	.Ldebug_abbrev0
 401 000a 04        		.byte	0x4
 402 000b 01        		.uleb128 0x1
 403 000c 0000 0000 		.long	.LASF122
 404 0010 01        		.byte	0x1
 405 0011 0000 0000 		.long	.LASF123
 406 0015 0000 0000 		.long	.LASF124
 407 0019 0000 0000 		.long	.Ltext0
 408 001d 0000 0000 		.long	.Letext0
 409 0021 0000 0000 		.long	.Ldebug_line0
 410 0025 02        		.uleb128 0x2
 411 0026 01        		.byte	0x1
 412 0027 06        		.byte	0x6
GAS LISTING /tmp/ccUM190a.s 			page 16


 413 0028 0000 0000 		.long	.LASF0
 414 002c 03        		.uleb128 0x3
 415 002d 0000 0000 		.long	.LASF2
 416 0031 03        		.byte	0x3
 417 0032 7A        		.byte	0x7a
 418 0033 3700 0000 		.long	0x37
 419 0037 02        		.uleb128 0x2
 420 0038 01        		.byte	0x1
 421 0039 08        		.byte	0x8
 422 003a 0000 0000 		.long	.LASF1
 423 003e 04        		.uleb128 0x4
 424 003f 02        		.byte	0x2
 425 0040 05        		.byte	0x5
 426 0041 696E 7400 		.string	"int"
 427 0045 03        		.uleb128 0x3
 428 0046 0000 0000 		.long	.LASF3
 429 004a 03        		.byte	0x3
 430 004b 7C        		.byte	0x7c
 431 004c 5000 0000 		.long	0x50
 432 0050 02        		.uleb128 0x2
 433 0051 02        		.byte	0x2
 434 0052 07        		.byte	0x7
 435 0053 0000 0000 		.long	.LASF4
 436 0057 02        		.uleb128 0x2
 437 0058 04        		.byte	0x4
 438 0059 05        		.byte	0x5
 439 005a 0000 0000 		.long	.LASF5
 440 005e 02        		.uleb128 0x2
 441 005f 04        		.byte	0x4
 442 0060 07        		.byte	0x7
 443 0061 0000 0000 		.long	.LASF6
 444 0065 02        		.uleb128 0x2
 445 0066 08        		.byte	0x8
 446 0067 05        		.byte	0x5
 447 0068 0000 0000 		.long	.LASF7
 448 006c 03        		.uleb128 0x3
 449 006d 0000 0000 		.long	.LASF8
 450 0071 03        		.byte	0x3
 451 0072 81        		.byte	0x81
 452 0073 7700 0000 		.long	0x77
 453 0077 02        		.uleb128 0x2
 454 0078 08        		.byte	0x8
 455 0079 07        		.byte	0x7
 456 007a 0000 0000 		.long	.LASF9
 457 007e 03        		.uleb128 0x3
 458 007f 0000 0000 		.long	.LASF10
 459 0083 03        		.byte	0x3
 460 0084 93        		.byte	0x93
 461 0085 4500 0000 		.long	0x45
 462 0089 05        		.uleb128 0x5
 463 008a 2C00 0000 		.long	0x2c
 464 008e 05        		.uleb128 0x5
 465 008f 3700 0000 		.long	0x37
 466 0093 06        		.uleb128 0x6
 467 0094 0000 0000 		.long	.LASF38
 468 0098 01        		.byte	0x1
 469 0099 04        		.byte	0x4
GAS LISTING /tmp/ccUM190a.s 			page 17


 470 009a 2401      		.word	0x124
 471 009c BF00 0000 		.long	0xbf
 472 00a0 07        		.uleb128 0x7
 473 00a1 0000 0000 		.long	.LASF11
 474 00a5 00        		.sleb128 0
 475 00a6 07        		.uleb128 0x7
 476 00a7 0000 0000 		.long	.LASF12
 477 00ab 04        		.sleb128 4
 478 00ac 07        		.uleb128 0x7
 479 00ad 0000 0000 		.long	.LASF13
 480 00b1 06        		.sleb128 6
 481 00b2 07        		.uleb128 0x7
 482 00b3 0000 0000 		.long	.LASF14
 483 00b7 0C        		.sleb128 12
 484 00b8 07        		.uleb128 0x7
 485 00b9 0000 0000 		.long	.LASF15
 486 00bd 0E        		.sleb128 14
 487 00be 00        		.byte	0
 488 00bf 08        		.uleb128 0x8
 489 00c0 0000 0000 		.long	.LASF50
 490 00c4 18        		.byte	0x18
 491 00c5 04        		.byte	0x4
 492 00c6 7F07      		.word	0x77f
 493 00c8 3402 0000 		.long	0x234
 494 00cc 09        		.uleb128 0x9
 495 00cd 4449 5200 		.string	"DIR"
 496 00d1 04        		.byte	0x4
 497 00d2 8107      		.word	0x781
 498 00d4 8E00 0000 		.long	0x8e
 499 00d8 02        		.byte	0x2
 500 00d9 23        		.byte	0x23
 501 00da 00        		.uleb128 0
 502 00db 0A        		.uleb128 0xa
 503 00dc 0000 0000 		.long	.LASF16
 504 00e0 04        		.byte	0x4
 505 00e1 8207      		.word	0x782
 506 00e3 8E00 0000 		.long	0x8e
 507 00e7 02        		.byte	0x2
 508 00e8 23        		.byte	0x23
 509 00e9 01        		.uleb128 0x1
 510 00ea 0A        		.uleb128 0xa
 511 00eb 0000 0000 		.long	.LASF17
 512 00ef 04        		.byte	0x4
 513 00f0 8307      		.word	0x783
 514 00f2 8E00 0000 		.long	0x8e
 515 00f6 02        		.byte	0x2
 516 00f7 23        		.byte	0x23
 517 00f8 02        		.uleb128 0x2
 518 00f9 0A        		.uleb128 0xa
 519 00fa 0000 0000 		.long	.LASF18
 520 00fe 04        		.byte	0x4
 521 00ff 8407      		.word	0x784
 522 0101 8E00 0000 		.long	0x8e
 523 0105 02        		.byte	0x2
 524 0106 23        		.byte	0x23
 525 0107 03        		.uleb128 0x3
 526 0108 09        		.uleb128 0x9
GAS LISTING /tmp/ccUM190a.s 			page 18


 527 0109 4F55 5400 		.string	"OUT"
 528 010d 04        		.byte	0x4
 529 010e 8507      		.word	0x785
 530 0110 8E00 0000 		.long	0x8e
 531 0114 02        		.byte	0x2
 532 0115 23        		.byte	0x23
 533 0116 04        		.uleb128 0x4
 534 0117 0A        		.uleb128 0xa
 535 0118 0000 0000 		.long	.LASF19
 536 011c 04        		.byte	0x4
 537 011d 8607      		.word	0x786
 538 011f 8E00 0000 		.long	0x8e
 539 0123 02        		.byte	0x2
 540 0124 23        		.byte	0x23
 541 0125 05        		.uleb128 0x5
 542 0126 0A        		.uleb128 0xa
 543 0127 0000 0000 		.long	.LASF20
 544 012b 04        		.byte	0x4
 545 012c 8707      		.word	0x787
 546 012e 8E00 0000 		.long	0x8e
 547 0132 02        		.byte	0x2
 548 0133 23        		.byte	0x23
 549 0134 06        		.uleb128 0x6
 550 0135 0A        		.uleb128 0xa
 551 0136 0000 0000 		.long	.LASF21
 552 013a 04        		.byte	0x4
 553 013b 8807      		.word	0x788
 554 013d 8E00 0000 		.long	0x8e
 555 0141 02        		.byte	0x2
 556 0142 23        		.byte	0x23
 557 0143 07        		.uleb128 0x7
 558 0144 09        		.uleb128 0x9
 559 0145 494E 00   		.string	"IN"
 560 0148 04        		.byte	0x4
 561 0149 8907      		.word	0x789
 562 014b 8E00 0000 		.long	0x8e
 563 014f 02        		.byte	0x2
 564 0150 23        		.byte	0x23
 565 0151 08        		.uleb128 0x8
 566 0152 0A        		.uleb128 0xa
 567 0153 0000 0000 		.long	.LASF22
 568 0157 04        		.byte	0x4
 569 0158 8A07      		.word	0x78a
 570 015a 8E00 0000 		.long	0x8e
 571 015e 02        		.byte	0x2
 572 015f 23        		.byte	0x23
 573 0160 09        		.uleb128 0x9
 574 0161 0A        		.uleb128 0xa
 575 0162 0000 0000 		.long	.LASF23
 576 0166 04        		.byte	0x4
 577 0167 8B07      		.word	0x78b
 578 0169 8E00 0000 		.long	0x8e
 579 016d 02        		.byte	0x2
 580 016e 23        		.byte	0x23
 581 016f 0A        		.uleb128 0xa
 582 0170 0A        		.uleb128 0xa
 583 0171 0000 0000 		.long	.LASF24
GAS LISTING /tmp/ccUM190a.s 			page 19


 584 0175 04        		.byte	0x4
 585 0176 8C07      		.word	0x78c
 586 0178 8E00 0000 		.long	0x8e
 587 017c 02        		.byte	0x2
 588 017d 23        		.byte	0x23
 589 017e 0B        		.uleb128 0xb
 590 017f 0A        		.uleb128 0xa
 591 0180 0000 0000 		.long	.LASF25
 592 0184 04        		.byte	0x4
 593 0185 8D07      		.word	0x78d
 594 0187 8E00 0000 		.long	0x8e
 595 018b 02        		.byte	0x2
 596 018c 23        		.byte	0x23
 597 018d 0C        		.uleb128 0xc
 598 018e 0A        		.uleb128 0xa
 599 018f 0000 0000 		.long	.LASF26
 600 0193 04        		.byte	0x4
 601 0194 8E07      		.word	0x78e
 602 0196 8E00 0000 		.long	0x8e
 603 019a 02        		.byte	0x2
 604 019b 23        		.byte	0x23
 605 019c 0D        		.uleb128 0xd
 606 019d 0A        		.uleb128 0xa
 607 019e 0000 0000 		.long	.LASF27
 608 01a2 04        		.byte	0x4
 609 01a3 8F07      		.word	0x78f
 610 01a5 8E00 0000 		.long	0x8e
 611 01a9 02        		.byte	0x2
 612 01aa 23        		.byte	0x23
 613 01ab 0E        		.uleb128 0xe
 614 01ac 0A        		.uleb128 0xa
 615 01ad 0000 0000 		.long	.LASF28
 616 01b1 04        		.byte	0x4
 617 01b2 9007      		.word	0x790
 618 01b4 8E00 0000 		.long	0x8e
 619 01b8 02        		.byte	0x2
 620 01b9 23        		.byte	0x23
 621 01ba 0F        		.uleb128 0xf
 622 01bb 0A        		.uleb128 0xa
 623 01bc 0000 0000 		.long	.LASF29
 624 01c0 04        		.byte	0x4
 625 01c1 9107      		.word	0x791
 626 01c3 8E00 0000 		.long	0x8e
 627 01c7 02        		.byte	0x2
 628 01c8 23        		.byte	0x23
 629 01c9 10        		.uleb128 0x10
 630 01ca 0A        		.uleb128 0xa
 631 01cb 0000 0000 		.long	.LASF30
 632 01cf 04        		.byte	0x4
 633 01d0 9207      		.word	0x792
 634 01d2 8E00 0000 		.long	0x8e
 635 01d6 02        		.byte	0x2
 636 01d7 23        		.byte	0x23
 637 01d8 11        		.uleb128 0x11
 638 01d9 0A        		.uleb128 0xa
 639 01da 0000 0000 		.long	.LASF31
 640 01de 04        		.byte	0x4
GAS LISTING /tmp/ccUM190a.s 			page 20


 641 01df 9307      		.word	0x793
 642 01e1 8E00 0000 		.long	0x8e
 643 01e5 02        		.byte	0x2
 644 01e6 23        		.byte	0x23
 645 01e7 12        		.uleb128 0x12
 646 01e8 0A        		.uleb128 0xa
 647 01e9 0000 0000 		.long	.LASF32
 648 01ed 04        		.byte	0x4
 649 01ee 9407      		.word	0x794
 650 01f0 8E00 0000 		.long	0x8e
 651 01f4 02        		.byte	0x2
 652 01f5 23        		.byte	0x23
 653 01f6 13        		.uleb128 0x13
 654 01f7 0A        		.uleb128 0xa
 655 01f8 0000 0000 		.long	.LASF33
 656 01fc 04        		.byte	0x4
 657 01fd 9507      		.word	0x795
 658 01ff 8E00 0000 		.long	0x8e
 659 0203 02        		.byte	0x2
 660 0204 23        		.byte	0x23
 661 0205 14        		.uleb128 0x14
 662 0206 0A        		.uleb128 0xa
 663 0207 0000 0000 		.long	.LASF34
 664 020b 04        		.byte	0x4
 665 020c 9607      		.word	0x796
 666 020e 8E00 0000 		.long	0x8e
 667 0212 02        		.byte	0x2
 668 0213 23        		.byte	0x23
 669 0214 15        		.uleb128 0x15
 670 0215 0A        		.uleb128 0xa
 671 0216 0000 0000 		.long	.LASF35
 672 021a 04        		.byte	0x4
 673 021b 9707      		.word	0x797
 674 021d 8E00 0000 		.long	0x8e
 675 0221 02        		.byte	0x2
 676 0222 23        		.byte	0x23
 677 0223 16        		.uleb128 0x16
 678 0224 0A        		.uleb128 0xa
 679 0225 0000 0000 		.long	.LASF36
 680 0229 04        		.byte	0x4
 681 022a 9807      		.word	0x798
 682 022c 8E00 0000 		.long	0x8e
 683 0230 02        		.byte	0x2
 684 0231 23        		.byte	0x23
 685 0232 17        		.uleb128 0x17
 686 0233 00        		.byte	0
 687 0234 0B        		.uleb128 0xb
 688 0235 0000 0000 		.long	.LASF37
 689 0239 04        		.byte	0x4
 690 023a 9907      		.word	0x799
 691 023c BF00 0000 		.long	0xbf
 692 0240 06        		.uleb128 0x6
 693 0241 0000 0000 		.long	.LASF39
 694 0245 01        		.byte	0x1
 695 0246 04        		.byte	0x4
 696 0247 5608      		.word	0x856
 697 0249 8A02 0000 		.long	0x28a
GAS LISTING /tmp/ccUM190a.s 			page 21


 698 024d 07        		.uleb128 0x7
 699 024e 0000 0000 		.long	.LASF40
 700 0252 00        		.sleb128 0
 701 0253 07        		.uleb128 0x7
 702 0254 0000 0000 		.long	.LASF41
 703 0258 01        		.sleb128 1
 704 0259 07        		.uleb128 0x7
 705 025a 0000 0000 		.long	.LASF42
 706 025e 03        		.sleb128 3
 707 025f 07        		.uleb128 0x7
 708 0260 0000 0000 		.long	.LASF43
 709 0264 03        		.sleb128 3
 710 0265 07        		.uleb128 0x7
 711 0266 0000 0000 		.long	.LASF44
 712 026a 05        		.sleb128 5
 713 026b 07        		.uleb128 0x7
 714 026c 0000 0000 		.long	.LASF45
 715 0270 05        		.sleb128 5
 716 0271 07        		.uleb128 0x7
 717 0272 0000 0000 		.long	.LASF46
 718 0276 06        		.sleb128 6
 719 0277 07        		.uleb128 0x7
 720 0278 0000 0000 		.long	.LASF47
 721 027c 06        		.sleb128 6
 722 027d 07        		.uleb128 0x7
 723 027e 0000 0000 		.long	.LASF48
 724 0282 07        		.sleb128 7
 725 0283 07        		.uleb128 0x7
 726 0284 0000 0000 		.long	.LASF49
 727 0288 07        		.sleb128 7
 728 0289 00        		.byte	0
 729 028a 08        		.uleb128 0x8
 730 028b 0000 0000 		.long	.LASF51
 731 028f 08        		.byte	0x8
 732 0290 04        		.byte	0x4
 733 0291 A309      		.word	0x9a3
 734 0293 1003 0000 		.long	0x310
 735 0297 0A        		.uleb128 0xa
 736 0298 0000 0000 		.long	.LASF52
 737 029c 04        		.byte	0x4
 738 029d A509      		.word	0x9a5
 739 029f 8E00 0000 		.long	0x8e
 740 02a3 02        		.byte	0x2
 741 02a4 23        		.byte	0x23
 742 02a5 00        		.uleb128 0
 743 02a6 0A        		.uleb128 0xa
 744 02a7 0000 0000 		.long	.LASF53
 745 02ab 04        		.byte	0x4
 746 02ac A609      		.word	0x9a6
 747 02ae 8E00 0000 		.long	0x8e
 748 02b2 02        		.byte	0x2
 749 02b3 23        		.byte	0x23
 750 02b4 01        		.uleb128 0x1
 751 02b5 0A        		.uleb128 0xa
 752 02b6 0000 0000 		.long	.LASF54
 753 02ba 04        		.byte	0x4
 754 02bb A709      		.word	0x9a7
GAS LISTING /tmp/ccUM190a.s 			page 22


 755 02bd 8E00 0000 		.long	0x8e
 756 02c1 02        		.byte	0x2
 757 02c2 23        		.byte	0x23
 758 02c3 02        		.uleb128 0x2
 759 02c4 0A        		.uleb128 0xa
 760 02c5 0000 0000 		.long	.LASF55
 761 02c9 04        		.byte	0x4
 762 02ca A809      		.word	0x9a8
 763 02cc 8E00 0000 		.long	0x8e
 764 02d0 02        		.byte	0x2
 765 02d1 23        		.byte	0x23
 766 02d2 03        		.uleb128 0x3
 767 02d3 0A        		.uleb128 0xa
 768 02d4 0000 0000 		.long	.LASF56
 769 02d8 04        		.byte	0x4
 770 02d9 A909      		.word	0x9a9
 771 02db 8E00 0000 		.long	0x8e
 772 02df 02        		.byte	0x2
 773 02e0 23        		.byte	0x23
 774 02e1 04        		.uleb128 0x4
 775 02e2 0A        		.uleb128 0xa
 776 02e3 0000 0000 		.long	.LASF57
 777 02e7 04        		.byte	0x4
 778 02e8 AA09      		.word	0x9aa
 779 02ea 8E00 0000 		.long	0x8e
 780 02ee 02        		.byte	0x2
 781 02ef 23        		.byte	0x23
 782 02f0 05        		.uleb128 0x5
 783 02f1 0A        		.uleb128 0xa
 784 02f2 0000 0000 		.long	.LASF58
 785 02f6 04        		.byte	0x4
 786 02f7 AB09      		.word	0x9ab
 787 02f9 8E00 0000 		.long	0x8e
 788 02fd 02        		.byte	0x2
 789 02fe 23        		.byte	0x23
 790 02ff 06        		.uleb128 0x6
 791 0300 0A        		.uleb128 0xa
 792 0301 0000 0000 		.long	.LASF59
 793 0305 04        		.byte	0x4
 794 0306 AC09      		.word	0x9ac
 795 0308 8E00 0000 		.long	0x8e
 796 030c 02        		.byte	0x2
 797 030d 23        		.byte	0x23
 798 030e 07        		.uleb128 0x7
 799 030f 00        		.byte	0
 800 0310 0B        		.uleb128 0xb
 801 0311 0000 0000 		.long	.LASF60
 802 0315 04        		.byte	0x4
 803 0316 AD09      		.word	0x9ad
 804 0318 8A02 0000 		.long	0x28a
 805 031c 02        		.uleb128 0x2
 806 031d 02        		.byte	0x2
 807 031e 05        		.byte	0x5
 808 031f 0000 0000 		.long	.LASF61
 809 0323 02        		.uleb128 0x2
 810 0324 02        		.byte	0x2
 811 0325 07        		.byte	0x7
GAS LISTING /tmp/ccUM190a.s 			page 23


 812 0326 0000 0000 		.long	.LASF62
 813 032a 02        		.uleb128 0x2
 814 032b 04        		.byte	0x4
 815 032c 04        		.byte	0x4
 816 032d 0000 0000 		.long	.LASF63
 817 0331 02        		.uleb128 0x2
 818 0332 04        		.byte	0x4
 819 0333 04        		.byte	0x4
 820 0334 0000 0000 		.long	.LASF64
 821 0338 03        		.uleb128 0x3
 822 0339 0000 0000 		.long	.LASF65
 823 033d 02        		.byte	0x2
 824 033e 74        		.byte	0x74
 825 033f 2C00 0000 		.long	0x2c
 826 0343 03        		.uleb128 0x3
 827 0344 0000 0000 		.long	.LASF66
 828 0348 02        		.byte	0x2
 829 0349 75        		.byte	0x75
 830 034a 2C00 0000 		.long	0x2c
 831 034e 03        		.uleb128 0x3
 832 034f 0000 0000 		.long	.LASF67
 833 0353 02        		.byte	0x2
 834 0354 76        		.byte	0x76
 835 0355 2C00 0000 		.long	0x2c
 836 0359 03        		.uleb128 0x3
 837 035a 0000 0000 		.long	.LASF68
 838 035e 05        		.byte	0x5
 839 035f 3D        		.byte	0x3d
 840 0360 2C00 0000 		.long	0x2c
 841 0364 0C        		.uleb128 0xc
 842 0365 02        		.byte	0x2
 843 0366 6A03 0000 		.long	0x36a
 844 036a 02        		.uleb128 0x2
 845 036b 01        		.byte	0x1
 846 036c 08        		.byte	0x8
 847 036d 0000 0000 		.long	.LASF69
 848 0371 02        		.uleb128 0x2
 849 0372 01        		.byte	0x1
 850 0373 02        		.byte	0x2
 851 0374 0000 0000 		.long	.LASF70
 852 0378 0C        		.uleb128 0xc
 853 0379 02        		.byte	0x2
 854 037a 2C00 0000 		.long	0x2c
 855 037e 0D        		.uleb128 0xd
 856 037f 01        		.byte	0x1
 857 0380 06        		.byte	0x6
 858 0381 07        		.byte	0x7
 859 0382 AB03 0000 		.long	0x3ab
 860 0386 07        		.uleb128 0x7
 861 0387 0000 0000 		.long	.LASF71
 862 038b 00        		.sleb128 0
 863 038c 07        		.uleb128 0x7
 864 038d 0000 0000 		.long	.LASF72
 865 0391 01        		.sleb128 1
 866 0392 07        		.uleb128 0x7
 867 0393 0000 0000 		.long	.LASF73
 868 0397 02        		.sleb128 2
GAS LISTING /tmp/ccUM190a.s 			page 24


 869 0398 07        		.uleb128 0x7
 870 0399 0000 0000 		.long	.LASF74
 871 039d 03        		.sleb128 3
 872 039e 07        		.uleb128 0x7
 873 039f 0000 0000 		.long	.LASF75
 874 03a3 04        		.sleb128 4
 875 03a4 07        		.uleb128 0x7
 876 03a5 0000 0000 		.long	.LASF76
 877 03a9 05        		.sleb128 5
 878 03aa 00        		.byte	0
 879 03ab 0D        		.uleb128 0xd
 880 03ac 01        		.byte	0x1
 881 03ad 07        		.byte	0x7
 882 03ae 07        		.byte	0x7
 883 03af DE03 0000 		.long	0x3de
 884 03b3 07        		.uleb128 0x7
 885 03b4 0000 0000 		.long	.LASF77
 886 03b8 10        		.sleb128 16
 887 03b9 07        		.uleb128 0x7
 888 03ba 0000 0000 		.long	.LASF78
 889 03be 11        		.sleb128 17
 890 03bf 07        		.uleb128 0x7
 891 03c0 0000 0000 		.long	.LASF79
 892 03c4 12        		.sleb128 18
 893 03c5 07        		.uleb128 0x7
 894 03c6 0000 0000 		.long	.LASF80
 895 03ca 13        		.sleb128 19
 896 03cb 07        		.uleb128 0x7
 897 03cc 0000 0000 		.long	.LASF81
 898 03d0 14        		.sleb128 20
 899 03d1 07        		.uleb128 0x7
 900 03d2 0000 0000 		.long	.LASF82
 901 03d6 15        		.sleb128 21
 902 03d7 07        		.uleb128 0x7
 903 03d8 0000 0000 		.long	.LASF83
 904 03dc 16        		.sleb128 22
 905 03dd 00        		.byte	0
 906 03de 0E        		.uleb128 0xe
 907 03df 0000 0000 		.long	.LASF84
 908 03e3 02        		.byte	0x2
 909 03e4 78        		.byte	0x78
 910 03e5 01        		.byte	0x1
 911 03e6 4303 0000 		.long	0x343
 912 03ea 03        		.byte	0x3
 913 03eb FB03 0000 		.long	0x3fb
 914 03ef 0F        		.uleb128 0xf
 915 03f0 7069 6E00 		.string	"pin"
 916 03f4 02        		.byte	0x2
 917 03f5 78        		.byte	0x78
 918 03f6 3803 0000 		.long	0x338
 919 03fa 00        		.byte	0
 920 03fb 0E        		.uleb128 0xe
 921 03fc 0000 0000 		.long	.LASF85
 922 0400 02        		.byte	0x2
 923 0401 7D        		.byte	0x7d
 924 0402 01        		.byte	0x1
 925 0403 1804 0000 		.long	0x418
GAS LISTING /tmp/ccUM190a.s 			page 25


 926 0407 03        		.byte	0x3
 927 0408 1804 0000 		.long	0x418
 928 040c 10        		.uleb128 0x10
 929 040d 0000 0000 		.long	.LASF86
 930 0411 02        		.byte	0x2
 931 0412 7D        		.byte	0x7d
 932 0413 4303 0000 		.long	0x343
 933 0417 00        		.byte	0
 934 0418 0C        		.uleb128 0xc
 935 0419 02        		.byte	0x2
 936 041a 3402 0000 		.long	0x234
 937 041e 0E        		.uleb128 0xe
 938 041f 0000 0000 		.long	.LASF87
 939 0423 02        		.byte	0x2
 940 0424 83        		.byte	0x83
 941 0425 01        		.byte	0x1
 942 0426 1804 0000 		.long	0x418
 943 042a 03        		.byte	0x3
 944 042b 3B04 0000 		.long	0x43b
 945 042f 0F        		.uleb128 0xf
 946 0430 7069 6E00 		.string	"pin"
 947 0434 02        		.byte	0x2
 948 0435 83        		.byte	0x83
 949 0436 3803 0000 		.long	0x338
 950 043a 00        		.byte	0
 951 043b 0E        		.uleb128 0xe
 952 043c 0000 0000 		.long	.LASF88
 953 0440 02        		.byte	0x2
 954 0441 88        		.byte	0x88
 955 0442 01        		.byte	0x1
 956 0443 4E03 0000 		.long	0x34e
 957 0447 03        		.byte	0x3
 958 0448 5804 0000 		.long	0x458
 959 044c 0F        		.uleb128 0xf
 960 044d 7069 6E00 		.string	"pin"
 961 0451 02        		.byte	0x2
 962 0452 88        		.byte	0x88
 963 0453 3803 0000 		.long	0x338
 964 0457 00        		.byte	0
 965 0458 11        		.uleb128 0x11
 966 0459 0000 0000 		.long	.LASF90
 967 045d 02        		.byte	0x2
 968 045e FD        		.byte	0xfd
 969 045f 01        		.byte	0x1
 970 0460 03        		.byte	0x3
 971 0461 8804 0000 		.long	0x488
 972 0465 0F        		.uleb128 0xf
 973 0466 7069 6E00 		.string	"pin"
 974 046a 02        		.byte	0x2
 975 046b FD        		.byte	0xfd
 976 046c 3803 0000 		.long	0x338
 977 0470 10        		.uleb128 0x10
 978 0471 0000 0000 		.long	.LASF89
 979 0475 02        		.byte	0x2
 980 0476 FE        		.byte	0xfe
 981 0477 7103 0000 		.long	0x371
 982 047b 12        		.uleb128 0x12
GAS LISTING /tmp/ccUM190a.s 			page 26


 983 047c 0000 0000 		.long	.LASF101
 984 0480 02        		.byte	0x2
 985 0481 0001      		.word	0x100
 986 0483 1804 0000 		.long	0x418
 987 0487 00        		.byte	0
 988 0488 11        		.uleb128 0x11
 989 0489 0000 0000 		.long	.LASF91
 990 048d 05        		.byte	0x5
 991 048e E9        		.byte	0xe9
 992 048f 01        		.byte	0x1
 993 0490 03        		.byte	0x3
 994 0491 A104 0000 		.long	0x4a1
 995 0495 0F        		.uleb128 0xf
 996 0496 7069 6E00 		.string	"pin"
 997 049a 05        		.byte	0x5
 998 049b E9        		.byte	0xe9
 999 049c 5903 0000 		.long	0x359
 1000 04a0 00        		.byte	0
 1001 04a1 13        		.uleb128 0x13
 1002 04a2 01        		.byte	0x1
 1003 04a3 0000 0000 		.long	.LASF125
 1004 04a7 01        		.byte	0x1
 1005 04a8 76        		.byte	0x76
 1006 04a9 01        		.byte	0x1
 1007 04aa 7103 0000 		.long	0x371
 1008 04ae 0000 0000 		.long	.LFB255
 1009 04b2 0000 0000 		.long	.LFE255
 1010 04b6 03        		.byte	0x3
 1011 04b7 92        		.byte	0x92
 1012 04b8 20        		.uleb128 0x20
 1013 04b9 02        		.sleb128 2
 1014 04ba FC04 0000 		.long	0x4fc
 1015 04be 14        		.uleb128 0x14
 1016 04bf 0000 0000 		.long	.LASF92
 1017 04c3 01        		.byte	0x1
 1018 04c4 76        		.byte	0x76
 1019 04c5 2C00 0000 		.long	0x2c
 1020 04c9 0000 0000 		.long	.LLST0
 1021 04cd 15        		.uleb128 0x15
 1022 04ce 0000 0000 		.long	.LASF93
 1023 04d2 01        		.byte	0x1
 1024 04d3 76        		.byte	0x76
 1025 04d4 7803 0000 		.long	0x378
 1026 04d8 06        		.byte	0x6
 1027 04d9 66        		.byte	0x66
 1028 04da 93        		.byte	0x93
 1029 04db 01        		.uleb128 0x1
 1030 04dc 67        		.byte	0x67
 1031 04dd 93        		.byte	0x93
 1032 04de 01        		.uleb128 0x1
 1033 04df 16        		.uleb128 0x16
 1034 04e0 0000 0000 		.long	.LASF94
 1035 04e4 01        		.byte	0x1
 1036 04e5 78        		.byte	0x78
 1037 04e6 2C00 0000 		.long	0x2c
 1038 04ea 0000 0000 		.long	.LLST1
 1039 04ee 17        		.uleb128 0x17
GAS LISTING /tmp/ccUM190a.s 			page 27


 1040 04ef 6900      		.string	"i"
 1041 04f1 01        		.byte	0x1
 1042 04f2 79        		.byte	0x79
 1043 04f3 4500 0000 		.long	0x45
 1044 04f7 0000 0000 		.long	.LLST2
 1045 04fb 00        		.byte	0
 1046 04fc 18        		.uleb128 0x18
 1047 04fd 01        		.byte	0x1
 1048 04fe 0000 0000 		.long	.LASF126
 1049 0502 01        		.byte	0x1
 1050 0503 10        		.byte	0x10
 1051 0504 01        		.byte	0x1
 1052 0505 0000 0000 		.long	.LFB254
 1053 0509 0000 0000 		.long	.LFE254
 1054 050d 0000 0000 		.long	.LLST3
 1055 0511 9B05 0000 		.long	0x59b
 1056 0515 14        		.uleb128 0x14
 1057 0516 0000 0000 		.long	.LASF95
 1058 051a 01        		.byte	0x1
 1059 051b 10        		.byte	0x10
 1060 051c 7103 0000 		.long	0x371
 1061 0520 0000 0000 		.long	.LLST4
 1062 0524 16        		.uleb128 0x16
 1063 0525 0000 0000 		.long	.LASF96
 1064 0529 01        		.byte	0x1
 1065 052a 12        		.byte	0x12
 1066 052b 2C00 0000 		.long	0x2c
 1067 052f 0000 0000 		.long	.LLST5
 1068 0533 19        		.uleb128 0x19
 1069 0534 0000 0000 		.long	.LASF97
 1070 0538 01        		.byte	0x1
 1071 0539 12        		.byte	0x12
 1072 053a 2C00 0000 		.long	0x2c
 1073 053e 02        		.byte	0x2
 1074 053f 8C        		.byte	0x8c
 1075 0540 01        		.sleb128 1
 1076 0541 16        		.uleb128 0x16
 1077 0542 0000 0000 		.long	.LASF98
 1078 0546 01        		.byte	0x1
 1079 0547 12        		.byte	0x12
 1080 0548 2C00 0000 		.long	0x2c
 1081 054c 0000 0000 		.long	.LLST6
 1082 0550 1A        		.uleb128 0x1a
 1083 0551 8804 0000 		.long	0x488
 1084 0555 0000 0000 		.long	.LBB38
 1085 0559 0000 0000 		.long	.LBE38
 1086 055d 01        		.byte	0x1
 1087 055e 1D        		.byte	0x1d
 1088 055f 1B        		.uleb128 0x1b
 1089 0560 9504 0000 		.long	0x495
 1090 0564 0000 0000 		.long	.LLST7
 1091 0568 1A        		.uleb128 0x1a
 1092 0569 5804 0000 		.long	0x458
 1093 056d 0000 0000 		.long	.LBB39
 1094 0571 0000 0000 		.long	.LBE39
 1095 0575 05        		.byte	0x5
 1096 0576 EB        		.byte	0xeb
GAS LISTING /tmp/ccUM190a.s 			page 28


 1097 0577 1B        		.uleb128 0x1b
 1098 0578 7004 0000 		.long	0x470
 1099 057c 0000 0000 		.long	.LLST8
 1100 0580 1B        		.uleb128 0x1b
 1101 0581 6504 0000 		.long	0x465
 1102 0585 0000 0000 		.long	.LLST7
 1103 0589 1C        		.uleb128 0x1c
 1104 058a 0000 0000 		.long	.LBB40
 1105 058e 0000 0000 		.long	.LBE40
 1106 0592 1D        		.uleb128 0x1d
 1107 0593 7B04 0000 		.long	0x47b
 1108 0597 00        		.byte	0
 1109 0598 00        		.byte	0
 1110 0599 00        		.byte	0
 1111 059a 00        		.byte	0
 1112 059b 1E        		.uleb128 0x1e
 1113 059c 2C00 0000 		.long	0x2c
 1114 05a0 A605 0000 		.long	0x5a6
 1115 05a4 1F        		.uleb128 0x1f
 1116 05a5 00        		.byte	0
 1117 05a6 20        		.uleb128 0x20
 1118 05a7 0000 0000 		.long	.LASF99
 1119 05ab 08        		.byte	0x8
 1120 05ac 52        		.byte	0x52
 1121 05ad 9B05 0000 		.long	0x59b
 1122 05b1 01        		.byte	0x1
 1123 05b2 01        		.byte	0x1
 1124 05b3 1E        		.uleb128 0x1e
 1125 05b4 9300 0000 		.long	0x93
 1126 05b8 BE05 0000 		.long	0x5be
 1127 05bc 1F        		.uleb128 0x1f
 1128 05bd 00        		.byte	0
 1129 05be 20        		.uleb128 0x20
 1130 05bf 0000 0000 		.long	.LASF100
 1131 05c3 08        		.byte	0x8
 1132 05c4 57        		.byte	0x57
 1133 05c5 B305 0000 		.long	0x5b3
 1134 05c9 01        		.byte	0x1
 1135 05ca 01        		.byte	0x1
 1136 05cb 1E        		.uleb128 0x1e
 1137 05cc 4500 0000 		.long	0x45
 1138 05d0 DB05 0000 		.long	0x5db
 1139 05d4 21        		.uleb128 0x21
 1140 05d5 5000 0000 		.long	0x50
 1141 05d9 06        		.byte	0x6
 1142 05da 00        		.byte	0
 1143 05db 22        		.uleb128 0x22
 1144 05dc 0000 0000 		.long	.LASF102
 1145 05e0 09        		.byte	0x9
 1146 05e1 5B        		.byte	0x5b
 1147 05e2 E605 0000 		.long	0x5e6
 1148 05e6 23        		.uleb128 0x23
 1149 05e7 CB05 0000 		.long	0x5cb
 1150 05eb 22        		.uleb128 0x22
 1151 05ec 0000 0000 		.long	.LASF103
 1152 05f0 09        		.byte	0x9
 1153 05f1 66        		.byte	0x66
GAS LISTING /tmp/ccUM190a.s 			page 29


 1154 05f2 F605 0000 		.long	0x5f6
 1155 05f6 23        		.uleb128 0x23
 1156 05f7 CB05 0000 		.long	0x5cb
 1157 05fb 20        		.uleb128 0x20
 1158 05fc 0000 0000 		.long	.LASF104
 1159 0600 0A        		.byte	0xa
 1160 0601 4A        		.byte	0x4a
 1161 0602 0806 0000 		.long	0x608
 1162 0606 01        		.byte	0x1
 1163 0607 01        		.byte	0x1
 1164 0608 05        		.uleb128 0x5
 1165 0609 0D06 0000 		.long	0x60d
 1166 060d 0C        		.uleb128 0xc
 1167 060e 02        		.byte	0x2
 1168 060f 1306 0000 		.long	0x613
 1169 0613 24        		.uleb128 0x24
 1170 0614 25        		.uleb128 0x25
 1171 0615 01        		.byte	0x1
 1172 0616 3E00 0000 		.long	0x3e
 1173 061a 2906 0000 		.long	0x629
 1174 061e 26        		.uleb128 0x26
 1175 061f 0D06 0000 		.long	0x60d
 1176 0623 26        		.uleb128 0x26
 1177 0624 6A03 0000 		.long	0x36a
 1178 0628 00        		.byte	0
 1179 0629 20        		.uleb128 0x20
 1180 062a 0000 0000 		.long	.LASF105
 1181 062e 0A        		.byte	0xa
 1182 062f 4C        		.byte	0x4c
 1183 0630 3606 0000 		.long	0x636
 1184 0634 01        		.byte	0x1
 1185 0635 01        		.byte	0x1
 1186 0636 0C        		.uleb128 0xc
 1187 0637 02        		.byte	0x2
 1188 0638 1406 0000 		.long	0x614
 1189 063c 27        		.uleb128 0x27
 1190 063d 01        		.byte	0x1
 1191 063e 4D06 0000 		.long	0x64d
 1192 0642 26        		.uleb128 0x26
 1193 0643 0D06 0000 		.long	0x60d
 1194 0647 26        		.uleb128 0x26
 1195 0648 6403 0000 		.long	0x364
 1196 064c 00        		.byte	0
 1197 064d 20        		.uleb128 0x20
 1198 064e 0000 0000 		.long	.LASF106
 1199 0652 0A        		.byte	0xa
 1200 0653 4E        		.byte	0x4e
 1201 0654 5A06 0000 		.long	0x65a
 1202 0658 01        		.byte	0x1
 1203 0659 01        		.byte	0x1
 1204 065a 0C        		.uleb128 0xc
 1205 065b 02        		.byte	0x2
 1206 065c 3C06 0000 		.long	0x63c
 1207 0660 20        		.uleb128 0x20
 1208 0661 0000 0000 		.long	.LASF107
 1209 0665 0B        		.byte	0xb
 1210 0666 13        		.byte	0x13
GAS LISTING /tmp/ccUM190a.s 			page 30


 1211 0667 2C00 0000 		.long	0x2c
 1212 066b 01        		.byte	0x1
 1213 066c 01        		.byte	0x1
 1214 066d 20        		.uleb128 0x20
 1215 066e 0000 0000 		.long	.LASF108
 1216 0672 0B        		.byte	0xb
 1217 0673 14        		.byte	0x14
 1218 0674 2C00 0000 		.long	0x2c
 1219 0678 01        		.byte	0x1
 1220 0679 01        		.byte	0x1
 1221 067a 20        		.uleb128 0x20
 1222 067b 0000 0000 		.long	.LASF109
 1223 067f 0B        		.byte	0xb
 1224 0680 28        		.byte	0x28
 1225 0681 2C00 0000 		.long	0x2c
 1226 0685 01        		.byte	0x1
 1227 0686 01        		.byte	0x1
 1228 0687 20        		.uleb128 0x20
 1229 0688 0000 0000 		.long	.LASF110
 1230 068c 0B        		.byte	0xb
 1231 068d 29        		.byte	0x29
 1232 068e 2C00 0000 		.long	0x2c
 1233 0692 01        		.byte	0x1
 1234 0693 01        		.byte	0x1
 1235 0694 20        		.uleb128 0x20
 1236 0695 0000 0000 		.long	.LASF111
 1237 0699 0B        		.byte	0xb
 1238 069a 2A        		.byte	0x2a
 1239 069b 4500 0000 		.long	0x45
 1240 069f 01        		.byte	0x1
 1241 06a0 01        		.byte	0x1
 1242 06a1 20        		.uleb128 0x20
 1243 06a2 0000 0000 		.long	.LASF112
 1244 06a6 0B        		.byte	0xb
 1245 06a7 2B        		.byte	0x2b
 1246 06a8 4500 0000 		.long	0x45
 1247 06ac 01        		.byte	0x1
 1248 06ad 01        		.byte	0x1
 1249 06ae 1E        		.uleb128 0x1e
 1250 06af 2C00 0000 		.long	0x2c
 1251 06b3 BF06 0000 		.long	0x6bf
 1252 06b7 28        		.uleb128 0x28
 1253 06b8 5000 0000 		.long	0x50
 1254 06bc 4902      		.word	0x249
 1255 06be 00        		.byte	0
 1256 06bf 20        		.uleb128 0x20
 1257 06c0 0000 0000 		.long	.LASF113
 1258 06c4 0B        		.byte	0xb
 1259 06c5 2C        		.byte	0x2c
 1260 06c6 AE06 0000 		.long	0x6ae
 1261 06ca 01        		.byte	0x1
 1262 06cb 01        		.byte	0x1
 1263 06cc 20        		.uleb128 0x20
 1264 06cd 0000 0000 		.long	.LASF99
 1265 06d1 08        		.byte	0x8
 1266 06d2 52        		.byte	0x52
 1267 06d3 9B05 0000 		.long	0x59b
GAS LISTING /tmp/ccUM190a.s 			page 31


 1268 06d7 01        		.byte	0x1
 1269 06d8 01        		.byte	0x1
 1270 06d9 20        		.uleb128 0x20
 1271 06da 0000 0000 		.long	.LASF100
 1272 06de 08        		.byte	0x8
 1273 06df 57        		.byte	0x57
 1274 06e0 B305 0000 		.long	0x5b3
 1275 06e4 01        		.byte	0x1
 1276 06e5 01        		.byte	0x1
 1277 06e6 20        		.uleb128 0x20
 1278 06e7 0000 0000 		.long	.LASF104
 1279 06eb 0A        		.byte	0xa
 1280 06ec 4A        		.byte	0x4a
 1281 06ed 0806 0000 		.long	0x608
 1282 06f1 01        		.byte	0x1
 1283 06f2 01        		.byte	0x1
 1284 06f3 20        		.uleb128 0x20
 1285 06f4 0000 0000 		.long	.LASF105
 1286 06f8 0A        		.byte	0xa
 1287 06f9 4C        		.byte	0x4c
 1288 06fa 3606 0000 		.long	0x636
 1289 06fe 01        		.byte	0x1
 1290 06ff 01        		.byte	0x1
 1291 0700 20        		.uleb128 0x20
 1292 0701 0000 0000 		.long	.LASF106
 1293 0705 0A        		.byte	0xa
 1294 0706 4E        		.byte	0x4e
 1295 0707 5A06 0000 		.long	0x65a
 1296 070b 01        		.byte	0x1
 1297 070c 01        		.byte	0x1
 1298 070d 29        		.uleb128 0x29
 1299 070e 0000 0000 		.long	.LASF114
 1300 0712 06        		.byte	0x6
 1301 0713 0E        		.byte	0xe
 1302 0714 7E03 0000 		.long	0x37e
 1303 0718 01        		.byte	0x1
 1304 0719 05        		.byte	0x5
 1305 071a 03        		.byte	0x3
 1306 071b 0000 0000 		.long	USB_STATE
 1307 071f 29        		.uleb128 0x29
 1308 0720 0000 0000 		.long	.LASF107
 1309 0724 0B        		.byte	0xb
 1310 0725 13        		.byte	0x13
 1311 0726 2C00 0000 		.long	0x2c
 1312 072a 01        		.byte	0x1
 1313 072b 05        		.byte	0x5
 1314 072c 03        		.byte	0x3
 1315 072d 0000 0000 		.long	g_address
 1316 0731 29        		.uleb128 0x29
 1317 0732 0000 0000 		.long	.LASF108
 1318 0736 0B        		.byte	0xb
 1319 0737 14        		.byte	0x14
 1320 0738 2C00 0000 		.long	0x2c
 1321 073c 01        		.byte	0x1
 1322 073d 05        		.byte	0x5
 1323 073e 03        		.byte	0x3
 1324 073f 0000 0000 		.long	g_usartData
GAS LISTING /tmp/ccUM190a.s 			page 32


 1325 0743 29        		.uleb128 0x29
 1326 0744 0000 0000 		.long	.LASF115
 1327 0748 0B        		.byte	0xb
 1328 0749 15        		.byte	0x15
 1329 074a 6C00 0000 		.long	0x6c
 1330 074e 01        		.byte	0x1
 1331 074f 05        		.byte	0x5
 1332 0750 03        		.byte	0x3
 1333 0751 0000 0000 		.long	ticks
 1334 0755 29        		.uleb128 0x29
 1335 0756 0000 0000 		.long	.LASF116
 1336 075a 0B        		.byte	0xb
 1337 075b 1A        		.byte	0x1a
 1338 075c 4500 0000 		.long	0x45
 1339 0760 01        		.byte	0x1
 1340 0761 05        		.byte	0x5
 1341 0762 03        		.byte	0x3
 1342 0763 0000 0000 		.long	num_leds
 1343 0767 29        		.uleb128 0x29
 1344 0768 0000 0000 		.long	.LASF117
 1345 076c 0B        		.byte	0xb
 1346 076d 1C        		.byte	0x1c
 1347 076e 4500 0000 		.long	0x45
 1348 0772 01        		.byte	0x1
 1349 0773 05        		.byte	0x5
 1350 0774 03        		.byte	0x3
 1351 0775 0000 0000 		.long	num_bytes
 1352 0779 1E        		.uleb128 0x1e
 1353 077a 2C00 0000 		.long	0x2c
 1354 077e 8A07 0000 		.long	0x78a
 1355 0782 28        		.uleb128 0x28
 1356 0783 5000 0000 		.long	0x50
 1357 0787 3F02      		.word	0x23f
 1358 0789 00        		.byte	0
 1359 078a 29        		.uleb128 0x29
 1360 078b 0000 0000 		.long	.LASF118
 1361 078f 0B        		.byte	0xb
 1362 0790 1D        		.byte	0x1d
 1363 0791 7907 0000 		.long	0x779
 1364 0795 01        		.byte	0x1
 1365 0796 05        		.byte	0x5
 1366 0797 03        		.byte	0x3
 1367 0798 0000 0000 		.long	data_buffer
 1368 079c 29        		.uleb128 0x29
 1369 079d 0000 0000 		.long	.LASF119
 1370 07a1 0B        		.byte	0xb
 1371 07a2 1F        		.byte	0x1f
 1372 07a3 AE07 0000 		.long	0x7ae
 1373 07a7 01        		.byte	0x1
 1374 07a8 05        		.byte	0x5
 1375 07a9 03        		.byte	0x3
 1376 07aa 0000 0000 		.long	data_pointer
 1377 07ae 0C        		.uleb128 0xc
 1378 07af 02        		.byte	0x2
 1379 07b0 7907 0000 		.long	0x779
 1380 07b4 29        		.uleb128 0x29
 1381 07b5 0000 0000 		.long	.LASF120
GAS LISTING /tmp/ccUM190a.s 			page 33


 1382 07b9 0B        		.byte	0xb
 1383 07ba 21        		.byte	0x21
 1384 07bb 8900 0000 		.long	0x89
 1385 07bf 01        		.byte	0x1
 1386 07c0 05        		.byte	0x5
 1387 07c1 03        		.byte	0x3
 1388 07c2 0000 0000 		.long	dirty
 1389 07c6 29        		.uleb128 0x29
 1390 07c7 0000 0000 		.long	.LASF109
 1391 07cb 0B        		.byte	0xb
 1392 07cc 28        		.byte	0x28
 1393 07cd 2C00 0000 		.long	0x2c
 1394 07d1 01        		.byte	0x1
 1395 07d2 05        		.byte	0x5
 1396 07d3 03        		.byte	0x3
 1397 07d4 0000 0000 		.long	g_cmdState
 1398 07d8 29        		.uleb128 0x29
 1399 07d9 0000 0000 		.long	.LASF110
 1400 07dd 0B        		.byte	0xb
 1401 07de 29        		.byte	0x29
 1402 07df 2C00 0000 		.long	0x2c
 1403 07e3 01        		.byte	0x1
 1404 07e4 05        		.byte	0x5
 1405 07e5 03        		.byte	0x3
 1406 07e6 0000 0000 		.long	g_usbCommand
 1407 07ea 29        		.uleb128 0x29
 1408 07eb 0000 0000 		.long	.LASF111
 1409 07ef 0B        		.byte	0xb
 1410 07f0 2A        		.byte	0x2a
 1411 07f1 4500 0000 		.long	0x45
 1412 07f5 01        		.byte	0x1
 1413 07f6 05        		.byte	0x5
 1414 07f7 03        		.byte	0x3
 1415 07f8 0000 0000 		.long	g_usbDataLength
 1416 07fc 29        		.uleb128 0x29
 1417 07fd 0000 0000 		.long	.LASF112
 1418 0801 0B        		.byte	0xb
 1419 0802 2B        		.byte	0x2b
 1420 0803 4500 0000 		.long	0x45
 1421 0807 01        		.byte	0x1
 1422 0808 05        		.byte	0x5
 1423 0809 03        		.byte	0x3
 1424 080a 0000 0000 		.long	g_usbDataCount
 1425 080e 29        		.uleb128 0x29
 1426 080f 0000 0000 		.long	.LASF113
 1427 0813 0B        		.byte	0xb
 1428 0814 2C        		.byte	0x2c
 1429 0815 AE06 0000 		.long	0x6ae
 1430 0819 01        		.byte	0x1
 1431 081a 05        		.byte	0x5
 1432 081b 03        		.byte	0x3
 1433 081c 0000 0000 		.long	g_usbDataBuffer
 1434 0820 29        		.uleb128 0x29
 1435 0821 0000 0000 		.long	.LASF121
 1436 0825 07        		.byte	0x7
 1437 0826 0F        		.byte	0xf
 1438 0827 AB03 0000 		.long	0x3ab
GAS LISTING /tmp/ccUM190a.s 			page 34


 1439 082b 01        		.byte	0x1
 1440 082c 05        		.byte	0x5
 1441 082d 03        		.byte	0x3
 1442 082e 0000 0000 		.long	COMMAND_TYPE
 1443 0832 00        		.byte	0
 1444               		.section	.debug_abbrev,"",@progbits
 1445               	.Ldebug_abbrev0:
 1446 0000 01        		.uleb128 0x1
 1447 0001 11        		.uleb128 0x11
 1448 0002 01        		.byte	0x1
 1449 0003 25        		.uleb128 0x25
 1450 0004 0E        		.uleb128 0xe
 1451 0005 13        		.uleb128 0x13
 1452 0006 0B        		.uleb128 0xb
 1453 0007 03        		.uleb128 0x3
 1454 0008 0E        		.uleb128 0xe
 1455 0009 1B        		.uleb128 0x1b
 1456 000a 0E        		.uleb128 0xe
 1457 000b 11        		.uleb128 0x11
 1458 000c 01        		.uleb128 0x1
 1459 000d 12        		.uleb128 0x12
 1460 000e 01        		.uleb128 0x1
 1461 000f 10        		.uleb128 0x10
 1462 0010 06        		.uleb128 0x6
 1463 0011 00        		.byte	0
 1464 0012 00        		.byte	0
 1465 0013 02        		.uleb128 0x2
 1466 0014 24        		.uleb128 0x24
 1467 0015 00        		.byte	0
 1468 0016 0B        		.uleb128 0xb
 1469 0017 0B        		.uleb128 0xb
 1470 0018 3E        		.uleb128 0x3e
 1471 0019 0B        		.uleb128 0xb
 1472 001a 03        		.uleb128 0x3
 1473 001b 0E        		.uleb128 0xe
 1474 001c 00        		.byte	0
 1475 001d 00        		.byte	0
 1476 001e 03        		.uleb128 0x3
 1477 001f 16        		.uleb128 0x16
 1478 0020 00        		.byte	0
 1479 0021 03        		.uleb128 0x3
 1480 0022 0E        		.uleb128 0xe
 1481 0023 3A        		.uleb128 0x3a
 1482 0024 0B        		.uleb128 0xb
 1483 0025 3B        		.uleb128 0x3b
 1484 0026 0B        		.uleb128 0xb
 1485 0027 49        		.uleb128 0x49
 1486 0028 13        		.uleb128 0x13
 1487 0029 00        		.byte	0
 1488 002a 00        		.byte	0
 1489 002b 04        		.uleb128 0x4
 1490 002c 24        		.uleb128 0x24
 1491 002d 00        		.byte	0
 1492 002e 0B        		.uleb128 0xb
 1493 002f 0B        		.uleb128 0xb
 1494 0030 3E        		.uleb128 0x3e
 1495 0031 0B        		.uleb128 0xb
GAS LISTING /tmp/ccUM190a.s 			page 35


 1496 0032 03        		.uleb128 0x3
 1497 0033 08        		.uleb128 0x8
 1498 0034 00        		.byte	0
 1499 0035 00        		.byte	0
 1500 0036 05        		.uleb128 0x5
 1501 0037 35        		.uleb128 0x35
 1502 0038 00        		.byte	0
 1503 0039 49        		.uleb128 0x49
 1504 003a 13        		.uleb128 0x13
 1505 003b 00        		.byte	0
 1506 003c 00        		.byte	0
 1507 003d 06        		.uleb128 0x6
 1508 003e 04        		.uleb128 0x4
 1509 003f 01        		.byte	0x1
 1510 0040 03        		.uleb128 0x3
 1511 0041 0E        		.uleb128 0xe
 1512 0042 0B        		.uleb128 0xb
 1513 0043 0B        		.uleb128 0xb
 1514 0044 3A        		.uleb128 0x3a
 1515 0045 0B        		.uleb128 0xb
 1516 0046 3B        		.uleb128 0x3b
 1517 0047 05        		.uleb128 0x5
 1518 0048 01        		.uleb128 0x1
 1519 0049 13        		.uleb128 0x13
 1520 004a 00        		.byte	0
 1521 004b 00        		.byte	0
 1522 004c 07        		.uleb128 0x7
 1523 004d 28        		.uleb128 0x28
 1524 004e 00        		.byte	0
 1525 004f 03        		.uleb128 0x3
 1526 0050 0E        		.uleb128 0xe
 1527 0051 1C        		.uleb128 0x1c
 1528 0052 0D        		.uleb128 0xd
 1529 0053 00        		.byte	0
 1530 0054 00        		.byte	0
 1531 0055 08        		.uleb128 0x8
 1532 0056 13        		.uleb128 0x13
 1533 0057 01        		.byte	0x1
 1534 0058 03        		.uleb128 0x3
 1535 0059 0E        		.uleb128 0xe
 1536 005a 0B        		.uleb128 0xb
 1537 005b 0B        		.uleb128 0xb
 1538 005c 3A        		.uleb128 0x3a
 1539 005d 0B        		.uleb128 0xb
 1540 005e 3B        		.uleb128 0x3b
 1541 005f 05        		.uleb128 0x5
 1542 0060 01        		.uleb128 0x1
 1543 0061 13        		.uleb128 0x13
 1544 0062 00        		.byte	0
 1545 0063 00        		.byte	0
 1546 0064 09        		.uleb128 0x9
 1547 0065 0D        		.uleb128 0xd
 1548 0066 00        		.byte	0
 1549 0067 03        		.uleb128 0x3
 1550 0068 08        		.uleb128 0x8
 1551 0069 3A        		.uleb128 0x3a
 1552 006a 0B        		.uleb128 0xb
GAS LISTING /tmp/ccUM190a.s 			page 36


 1553 006b 3B        		.uleb128 0x3b
 1554 006c 05        		.uleb128 0x5
 1555 006d 49        		.uleb128 0x49
 1556 006e 13        		.uleb128 0x13
 1557 006f 38        		.uleb128 0x38
 1558 0070 0A        		.uleb128 0xa
 1559 0071 00        		.byte	0
 1560 0072 00        		.byte	0
 1561 0073 0A        		.uleb128 0xa
 1562 0074 0D        		.uleb128 0xd
 1563 0075 00        		.byte	0
 1564 0076 03        		.uleb128 0x3
 1565 0077 0E        		.uleb128 0xe
 1566 0078 3A        		.uleb128 0x3a
 1567 0079 0B        		.uleb128 0xb
 1568 007a 3B        		.uleb128 0x3b
 1569 007b 05        		.uleb128 0x5
 1570 007c 49        		.uleb128 0x49
 1571 007d 13        		.uleb128 0x13
 1572 007e 38        		.uleb128 0x38
 1573 007f 0A        		.uleb128 0xa
 1574 0080 00        		.byte	0
 1575 0081 00        		.byte	0
 1576 0082 0B        		.uleb128 0xb
 1577 0083 16        		.uleb128 0x16
 1578 0084 00        		.byte	0
 1579 0085 03        		.uleb128 0x3
 1580 0086 0E        		.uleb128 0xe
 1581 0087 3A        		.uleb128 0x3a
 1582 0088 0B        		.uleb128 0xb
 1583 0089 3B        		.uleb128 0x3b
 1584 008a 05        		.uleb128 0x5
 1585 008b 49        		.uleb128 0x49
 1586 008c 13        		.uleb128 0x13
 1587 008d 00        		.byte	0
 1588 008e 00        		.byte	0
 1589 008f 0C        		.uleb128 0xc
 1590 0090 0F        		.uleb128 0xf
 1591 0091 00        		.byte	0
 1592 0092 0B        		.uleb128 0xb
 1593 0093 0B        		.uleb128 0xb
 1594 0094 49        		.uleb128 0x49
 1595 0095 13        		.uleb128 0x13
 1596 0096 00        		.byte	0
 1597 0097 00        		.byte	0
 1598 0098 0D        		.uleb128 0xd
 1599 0099 04        		.uleb128 0x4
 1600 009a 01        		.byte	0x1
 1601 009b 0B        		.uleb128 0xb
 1602 009c 0B        		.uleb128 0xb
 1603 009d 3A        		.uleb128 0x3a
 1604 009e 0B        		.uleb128 0xb
 1605 009f 3B        		.uleb128 0x3b
 1606 00a0 0B        		.uleb128 0xb
 1607 00a1 01        		.uleb128 0x1
 1608 00a2 13        		.uleb128 0x13
 1609 00a3 00        		.byte	0
GAS LISTING /tmp/ccUM190a.s 			page 37


 1610 00a4 00        		.byte	0
 1611 00a5 0E        		.uleb128 0xe
 1612 00a6 2E        		.uleb128 0x2e
 1613 00a7 01        		.byte	0x1
 1614 00a8 03        		.uleb128 0x3
 1615 00a9 0E        		.uleb128 0xe
 1616 00aa 3A        		.uleb128 0x3a
 1617 00ab 0B        		.uleb128 0xb
 1618 00ac 3B        		.uleb128 0x3b
 1619 00ad 0B        		.uleb128 0xb
 1620 00ae 27        		.uleb128 0x27
 1621 00af 0C        		.uleb128 0xc
 1622 00b0 49        		.uleb128 0x49
 1623 00b1 13        		.uleb128 0x13
 1624 00b2 20        		.uleb128 0x20
 1625 00b3 0B        		.uleb128 0xb
 1626 00b4 01        		.uleb128 0x1
 1627 00b5 13        		.uleb128 0x13
 1628 00b6 00        		.byte	0
 1629 00b7 00        		.byte	0
 1630 00b8 0F        		.uleb128 0xf
 1631 00b9 05        		.uleb128 0x5
 1632 00ba 00        		.byte	0
 1633 00bb 03        		.uleb128 0x3
 1634 00bc 08        		.uleb128 0x8
 1635 00bd 3A        		.uleb128 0x3a
 1636 00be 0B        		.uleb128 0xb
 1637 00bf 3B        		.uleb128 0x3b
 1638 00c0 0B        		.uleb128 0xb
 1639 00c1 49        		.uleb128 0x49
 1640 00c2 13        		.uleb128 0x13
 1641 00c3 00        		.byte	0
 1642 00c4 00        		.byte	0
 1643 00c5 10        		.uleb128 0x10
 1644 00c6 05        		.uleb128 0x5
 1645 00c7 00        		.byte	0
 1646 00c8 03        		.uleb128 0x3
 1647 00c9 0E        		.uleb128 0xe
 1648 00ca 3A        		.uleb128 0x3a
 1649 00cb 0B        		.uleb128 0xb
 1650 00cc 3B        		.uleb128 0x3b
 1651 00cd 0B        		.uleb128 0xb
 1652 00ce 49        		.uleb128 0x49
 1653 00cf 13        		.uleb128 0x13
 1654 00d0 00        		.byte	0
 1655 00d1 00        		.byte	0
 1656 00d2 11        		.uleb128 0x11
 1657 00d3 2E        		.uleb128 0x2e
 1658 00d4 01        		.byte	0x1
 1659 00d5 03        		.uleb128 0x3
 1660 00d6 0E        		.uleb128 0xe
 1661 00d7 3A        		.uleb128 0x3a
 1662 00d8 0B        		.uleb128 0xb
 1663 00d9 3B        		.uleb128 0x3b
 1664 00da 0B        		.uleb128 0xb
 1665 00db 27        		.uleb128 0x27
 1666 00dc 0C        		.uleb128 0xc
GAS LISTING /tmp/ccUM190a.s 			page 38


 1667 00dd 20        		.uleb128 0x20
 1668 00de 0B        		.uleb128 0xb
 1669 00df 01        		.uleb128 0x1
 1670 00e0 13        		.uleb128 0x13
 1671 00e1 00        		.byte	0
 1672 00e2 00        		.byte	0
 1673 00e3 12        		.uleb128 0x12
 1674 00e4 34        		.uleb128 0x34
 1675 00e5 00        		.byte	0
 1676 00e6 03        		.uleb128 0x3
 1677 00e7 0E        		.uleb128 0xe
 1678 00e8 3A        		.uleb128 0x3a
 1679 00e9 0B        		.uleb128 0xb
 1680 00ea 3B        		.uleb128 0x3b
 1681 00eb 05        		.uleb128 0x5
 1682 00ec 49        		.uleb128 0x49
 1683 00ed 13        		.uleb128 0x13
 1684 00ee 00        		.byte	0
 1685 00ef 00        		.byte	0
 1686 00f0 13        		.uleb128 0x13
 1687 00f1 2E        		.uleb128 0x2e
 1688 00f2 01        		.byte	0x1
 1689 00f3 3F        		.uleb128 0x3f
 1690 00f4 0C        		.uleb128 0xc
 1691 00f5 03        		.uleb128 0x3
 1692 00f6 0E        		.uleb128 0xe
 1693 00f7 3A        		.uleb128 0x3a
 1694 00f8 0B        		.uleb128 0xb
 1695 00f9 3B        		.uleb128 0x3b
 1696 00fa 0B        		.uleb128 0xb
 1697 00fb 27        		.uleb128 0x27
 1698 00fc 0C        		.uleb128 0xc
 1699 00fd 49        		.uleb128 0x49
 1700 00fe 13        		.uleb128 0x13
 1701 00ff 11        		.uleb128 0x11
 1702 0100 01        		.uleb128 0x1
 1703 0101 12        		.uleb128 0x12
 1704 0102 01        		.uleb128 0x1
 1705 0103 40        		.uleb128 0x40
 1706 0104 0A        		.uleb128 0xa
 1707 0105 01        		.uleb128 0x1
 1708 0106 13        		.uleb128 0x13
 1709 0107 00        		.byte	0
 1710 0108 00        		.byte	0
 1711 0109 14        		.uleb128 0x14
 1712 010a 05        		.uleb128 0x5
 1713 010b 00        		.byte	0
 1714 010c 03        		.uleb128 0x3
 1715 010d 0E        		.uleb128 0xe
 1716 010e 3A        		.uleb128 0x3a
 1717 010f 0B        		.uleb128 0xb
 1718 0110 3B        		.uleb128 0x3b
 1719 0111 0B        		.uleb128 0xb
 1720 0112 49        		.uleb128 0x49
 1721 0113 13        		.uleb128 0x13
 1722 0114 02        		.uleb128 0x2
 1723 0115 06        		.uleb128 0x6
GAS LISTING /tmp/ccUM190a.s 			page 39


 1724 0116 00        		.byte	0
 1725 0117 00        		.byte	0
 1726 0118 15        		.uleb128 0x15
 1727 0119 05        		.uleb128 0x5
 1728 011a 00        		.byte	0
 1729 011b 03        		.uleb128 0x3
 1730 011c 0E        		.uleb128 0xe
 1731 011d 3A        		.uleb128 0x3a
 1732 011e 0B        		.uleb128 0xb
 1733 011f 3B        		.uleb128 0x3b
 1734 0120 0B        		.uleb128 0xb
 1735 0121 49        		.uleb128 0x49
 1736 0122 13        		.uleb128 0x13
 1737 0123 02        		.uleb128 0x2
 1738 0124 0A        		.uleb128 0xa
 1739 0125 00        		.byte	0
 1740 0126 00        		.byte	0
 1741 0127 16        		.uleb128 0x16
 1742 0128 34        		.uleb128 0x34
 1743 0129 00        		.byte	0
 1744 012a 03        		.uleb128 0x3
 1745 012b 0E        		.uleb128 0xe
 1746 012c 3A        		.uleb128 0x3a
 1747 012d 0B        		.uleb128 0xb
 1748 012e 3B        		.uleb128 0x3b
 1749 012f 0B        		.uleb128 0xb
 1750 0130 49        		.uleb128 0x49
 1751 0131 13        		.uleb128 0x13
 1752 0132 02        		.uleb128 0x2
 1753 0133 06        		.uleb128 0x6
 1754 0134 00        		.byte	0
 1755 0135 00        		.byte	0
 1756 0136 17        		.uleb128 0x17
 1757 0137 34        		.uleb128 0x34
 1758 0138 00        		.byte	0
 1759 0139 03        		.uleb128 0x3
 1760 013a 08        		.uleb128 0x8
 1761 013b 3A        		.uleb128 0x3a
 1762 013c 0B        		.uleb128 0xb
 1763 013d 3B        		.uleb128 0x3b
 1764 013e 0B        		.uleb128 0xb
 1765 013f 49        		.uleb128 0x49
 1766 0140 13        		.uleb128 0x13
 1767 0141 02        		.uleb128 0x2
 1768 0142 06        		.uleb128 0x6
 1769 0143 00        		.byte	0
 1770 0144 00        		.byte	0
 1771 0145 18        		.uleb128 0x18
 1772 0146 2E        		.uleb128 0x2e
 1773 0147 01        		.byte	0x1
 1774 0148 3F        		.uleb128 0x3f
 1775 0149 0C        		.uleb128 0xc
 1776 014a 03        		.uleb128 0x3
 1777 014b 0E        		.uleb128 0xe
 1778 014c 3A        		.uleb128 0x3a
 1779 014d 0B        		.uleb128 0xb
 1780 014e 3B        		.uleb128 0x3b
GAS LISTING /tmp/ccUM190a.s 			page 40


 1781 014f 0B        		.uleb128 0xb
 1782 0150 27        		.uleb128 0x27
 1783 0151 0C        		.uleb128 0xc
 1784 0152 11        		.uleb128 0x11
 1785 0153 01        		.uleb128 0x1
 1786 0154 12        		.uleb128 0x12
 1787 0155 01        		.uleb128 0x1
 1788 0156 40        		.uleb128 0x40
 1789 0157 06        		.uleb128 0x6
 1790 0158 01        		.uleb128 0x1
 1791 0159 13        		.uleb128 0x13
 1792 015a 00        		.byte	0
 1793 015b 00        		.byte	0
 1794 015c 19        		.uleb128 0x19
 1795 015d 34        		.uleb128 0x34
 1796 015e 00        		.byte	0
 1797 015f 03        		.uleb128 0x3
 1798 0160 0E        		.uleb128 0xe
 1799 0161 3A        		.uleb128 0x3a
 1800 0162 0B        		.uleb128 0xb
 1801 0163 3B        		.uleb128 0x3b
 1802 0164 0B        		.uleb128 0xb
 1803 0165 49        		.uleb128 0x49
 1804 0166 13        		.uleb128 0x13
 1805 0167 02        		.uleb128 0x2
 1806 0168 0A        		.uleb128 0xa
 1807 0169 00        		.byte	0
 1808 016a 00        		.byte	0
 1809 016b 1A        		.uleb128 0x1a
 1810 016c 1D        		.uleb128 0x1d
 1811 016d 01        		.byte	0x1
 1812 016e 31        		.uleb128 0x31
 1813 016f 13        		.uleb128 0x13
 1814 0170 11        		.uleb128 0x11
 1815 0171 01        		.uleb128 0x1
 1816 0172 12        		.uleb128 0x12
 1817 0173 01        		.uleb128 0x1
 1818 0174 58        		.uleb128 0x58
 1819 0175 0B        		.uleb128 0xb
 1820 0176 59        		.uleb128 0x59
 1821 0177 0B        		.uleb128 0xb
 1822 0178 00        		.byte	0
 1823 0179 00        		.byte	0
 1824 017a 1B        		.uleb128 0x1b
 1825 017b 05        		.uleb128 0x5
 1826 017c 00        		.byte	0
 1827 017d 31        		.uleb128 0x31
 1828 017e 13        		.uleb128 0x13
 1829 017f 02        		.uleb128 0x2
 1830 0180 06        		.uleb128 0x6
 1831 0181 00        		.byte	0
 1832 0182 00        		.byte	0
 1833 0183 1C        		.uleb128 0x1c
 1834 0184 0B        		.uleb128 0xb
 1835 0185 01        		.byte	0x1
 1836 0186 11        		.uleb128 0x11
 1837 0187 01        		.uleb128 0x1
GAS LISTING /tmp/ccUM190a.s 			page 41


 1838 0188 12        		.uleb128 0x12
 1839 0189 01        		.uleb128 0x1
 1840 018a 00        		.byte	0
 1841 018b 00        		.byte	0
 1842 018c 1D        		.uleb128 0x1d
 1843 018d 34        		.uleb128 0x34
 1844 018e 00        		.byte	0
 1845 018f 31        		.uleb128 0x31
 1846 0190 13        		.uleb128 0x13
 1847 0191 00        		.byte	0
 1848 0192 00        		.byte	0
 1849 0193 1E        		.uleb128 0x1e
 1850 0194 01        		.uleb128 0x1
 1851 0195 01        		.byte	0x1
 1852 0196 49        		.uleb128 0x49
 1853 0197 13        		.uleb128 0x13
 1854 0198 01        		.uleb128 0x1
 1855 0199 13        		.uleb128 0x13
 1856 019a 00        		.byte	0
 1857 019b 00        		.byte	0
 1858 019c 1F        		.uleb128 0x1f
 1859 019d 21        		.uleb128 0x21
 1860 019e 00        		.byte	0
 1861 019f 00        		.byte	0
 1862 01a0 00        		.byte	0
 1863 01a1 20        		.uleb128 0x20
 1864 01a2 34        		.uleb128 0x34
 1865 01a3 00        		.byte	0
 1866 01a4 03        		.uleb128 0x3
 1867 01a5 0E        		.uleb128 0xe
 1868 01a6 3A        		.uleb128 0x3a
 1869 01a7 0B        		.uleb128 0xb
 1870 01a8 3B        		.uleb128 0x3b
 1871 01a9 0B        		.uleb128 0xb
 1872 01aa 49        		.uleb128 0x49
 1873 01ab 13        		.uleb128 0x13
 1874 01ac 3F        		.uleb128 0x3f
 1875 01ad 0C        		.uleb128 0xc
 1876 01ae 3C        		.uleb128 0x3c
 1877 01af 0C        		.uleb128 0xc
 1878 01b0 00        		.byte	0
 1879 01b1 00        		.byte	0
 1880 01b2 21        		.uleb128 0x21
 1881 01b3 21        		.uleb128 0x21
 1882 01b4 00        		.byte	0
 1883 01b5 49        		.uleb128 0x49
 1884 01b6 13        		.uleb128 0x13
 1885 01b7 2F        		.uleb128 0x2f
 1886 01b8 0B        		.uleb128 0xb
 1887 01b9 00        		.byte	0
 1888 01ba 00        		.byte	0
 1889 01bb 22        		.uleb128 0x22
 1890 01bc 34        		.uleb128 0x34
 1891 01bd 00        		.byte	0
 1892 01be 03        		.uleb128 0x3
 1893 01bf 0E        		.uleb128 0xe
 1894 01c0 3A        		.uleb128 0x3a
GAS LISTING /tmp/ccUM190a.s 			page 42


 1895 01c1 0B        		.uleb128 0xb
 1896 01c2 3B        		.uleb128 0x3b
 1897 01c3 0B        		.uleb128 0xb
 1898 01c4 49        		.uleb128 0x49
 1899 01c5 13        		.uleb128 0x13
 1900 01c6 00        		.byte	0
 1901 01c7 00        		.byte	0
 1902 01c8 23        		.uleb128 0x23
 1903 01c9 26        		.uleb128 0x26
 1904 01ca 00        		.byte	0
 1905 01cb 49        		.uleb128 0x49
 1906 01cc 13        		.uleb128 0x13
 1907 01cd 00        		.byte	0
 1908 01ce 00        		.byte	0
 1909 01cf 24        		.uleb128 0x24
 1910 01d0 35        		.uleb128 0x35
 1911 01d1 00        		.byte	0
 1912 01d2 00        		.byte	0
 1913 01d3 00        		.byte	0
 1914 01d4 25        		.uleb128 0x25
 1915 01d5 15        		.uleb128 0x15
 1916 01d6 01        		.byte	0x1
 1917 01d7 27        		.uleb128 0x27
 1918 01d8 0C        		.uleb128 0xc
 1919 01d9 49        		.uleb128 0x49
 1920 01da 13        		.uleb128 0x13
 1921 01db 01        		.uleb128 0x1
 1922 01dc 13        		.uleb128 0x13
 1923 01dd 00        		.byte	0
 1924 01de 00        		.byte	0
 1925 01df 26        		.uleb128 0x26
 1926 01e0 05        		.uleb128 0x5
 1927 01e1 00        		.byte	0
 1928 01e2 49        		.uleb128 0x49
 1929 01e3 13        		.uleb128 0x13
 1930 01e4 00        		.byte	0
 1931 01e5 00        		.byte	0
 1932 01e6 27        		.uleb128 0x27
 1933 01e7 15        		.uleb128 0x15
 1934 01e8 01        		.byte	0x1
 1935 01e9 27        		.uleb128 0x27
 1936 01ea 0C        		.uleb128 0xc
 1937 01eb 01        		.uleb128 0x1
 1938 01ec 13        		.uleb128 0x13
 1939 01ed 00        		.byte	0
 1940 01ee 00        		.byte	0
 1941 01ef 28        		.uleb128 0x28
 1942 01f0 21        		.uleb128 0x21
 1943 01f1 00        		.byte	0
 1944 01f2 49        		.uleb128 0x49
 1945 01f3 13        		.uleb128 0x13
 1946 01f4 2F        		.uleb128 0x2f
 1947 01f5 05        		.uleb128 0x5
 1948 01f6 00        		.byte	0
 1949 01f7 00        		.byte	0
 1950 01f8 29        		.uleb128 0x29
 1951 01f9 34        		.uleb128 0x34
GAS LISTING /tmp/ccUM190a.s 			page 43


 1952 01fa 00        		.byte	0
 1953 01fb 03        		.uleb128 0x3
 1954 01fc 0E        		.uleb128 0xe
 1955 01fd 3A        		.uleb128 0x3a
 1956 01fe 0B        		.uleb128 0xb
 1957 01ff 3B        		.uleb128 0x3b
 1958 0200 0B        		.uleb128 0xb
 1959 0201 49        		.uleb128 0x49
 1960 0202 13        		.uleb128 0x13
 1961 0203 3F        		.uleb128 0x3f
 1962 0204 0C        		.uleb128 0xc
 1963 0205 02        		.uleb128 0x2
 1964 0206 0A        		.uleb128 0xa
 1965 0207 00        		.byte	0
 1966 0208 00        		.byte	0
 1967 0209 00        		.byte	0
 1968               		.section	.debug_loc,"",@progbits
 1969               	.Ldebug_loc0:
 1970               	.LLST0:
 1971 0000 0000 0000 		.long	.LVL0-.Ltext0
 1972 0004 4600 0000 		.long	.LVL7-.Ltext0
 1973 0008 0100      		.word	0x1
 1974 000a 68        		.byte	0x68
 1975 000b 0000 0000 		.long	0
 1976 000f 0000 0000 		.long	0
 1977               	.LLST1:
 1978 0013 0000 0000 		.long	.LVL0-.Ltext0
 1979 0017 3000 0000 		.long	.LVL4-.Ltext0
 1980 001b 0200      		.word	0x2
 1981 001d 30        		.byte	0x30
 1982 001e 9F        		.byte	0x9f
 1983 001f 3400 0000 		.long	.LVL5-.Ltext0
 1984 0023 3A00 0000 		.long	.LVL6-.Ltext0
 1985 0027 0100      		.word	0x1
 1986 0029 69        		.byte	0x69
 1987 002a 0000 0000 		.long	0
 1988 002e 0000 0000 		.long	0
 1989               	.LLST2:
 1990 0032 0E00 0000 		.long	.LVL1-.Ltext0
 1991 0036 1800 0000 		.long	.LVL2-.Ltext0
 1992 003a 0200      		.word	0x2
 1993 003c 30        		.byte	0x30
 1994 003d 9F        		.byte	0x9f
 1995 003e 2600 0000 		.long	.LVL3-.Ltext0
 1996 0042 3000 0000 		.long	.LVL4-.Ltext0
 1997 0046 0200      		.word	0x2
 1998 0048 30        		.byte	0x30
 1999 0049 9F        		.byte	0x9f
 2000 004a 0000 0000 		.long	0
 2001 004e 0000 0000 		.long	0
 2002               	.LLST3:
 2003 0052 4800 0000 		.long	.LFB254-.Ltext0
 2004 0056 4A00 0000 		.long	.LCFI0-.Ltext0
 2005 005a 0300      		.word	0x3
 2006 005c 92        		.byte	0x92
 2007 005d 20        		.uleb128 0x20
 2008 005e 02        		.sleb128 2
GAS LISTING /tmp/ccUM190a.s 			page 44


 2009 005f 4A00 0000 		.long	.LCFI0-.Ltext0
 2010 0063 4C00 0000 		.long	.LCFI1-.Ltext0
 2011 0067 0300      		.word	0x3
 2012 0069 92        		.byte	0x92
 2013 006a 20        		.uleb128 0x20
 2014 006b 03        		.sleb128 3
 2015 006c 4C00 0000 		.long	.LCFI1-.Ltext0
 2016 0070 4E00 0000 		.long	.LCFI2-.Ltext0
 2017 0074 0300      		.word	0x3
 2018 0076 92        		.byte	0x92
 2019 0077 20        		.uleb128 0x20
 2020 0078 04        		.sleb128 4
 2021 0079 4E00 0000 		.long	.LCFI2-.Ltext0
 2022 007d 5000 0000 		.long	.LCFI3-.Ltext0
 2023 0081 0300      		.word	0x3
 2024 0083 92        		.byte	0x92
 2025 0084 20        		.uleb128 0x20
 2026 0085 05        		.sleb128 5
 2027 0086 5000 0000 		.long	.LCFI3-.Ltext0
 2028 008a 5400 0000 		.long	.LCFI4-.Ltext0
 2029 008e 0300      		.word	0x3
 2030 0090 92        		.byte	0x92
 2031 0091 20        		.uleb128 0x20
 2032 0092 06        		.sleb128 6
 2033 0093 5400 0000 		.long	.LCFI4-.Ltext0
 2034 0097 0402 0000 		.long	.LFE254-.Ltext0
 2035 009b 0200      		.word	0x2
 2036 009d 8C        		.byte	0x8c
 2037 009e 06        		.sleb128 6
 2038 009f 0000 0000 		.long	0
 2039 00a3 0000 0000 		.long	0
 2040               	.LLST4:
 2041 00a7 4800 0000 		.long	.LVL8-.Ltext0
 2042 00ab 5900 0000 		.long	.LVL9-1-.Ltext0
 2043 00af 0100      		.word	0x1
 2044 00b1 68        		.byte	0x68
 2045 00b2 5900 0000 		.long	.LVL9-1-.Ltext0
 2046 00b6 7400 0000 		.long	.LVL11-.Ltext0
 2047 00ba 0100      		.word	0x1
 2048 00bc 61        		.byte	0x61
 2049 00bd EC01 0000 		.long	.LVL14-.Ltext0
 2050 00c1 F801 0000 		.long	.LVL16-.Ltext0
 2051 00c5 0100      		.word	0x1
 2052 00c7 61        		.byte	0x61
 2053 00c8 0000 0000 		.long	0
 2054 00cc 0000 0000 		.long	0
 2055               	.LLST5:
 2056 00d0 7400 0000 		.long	.LVL11-.Ltext0
 2057 00d4 7600 0000 		.long	.LVL12-.Ltext0
 2058 00d8 0100      		.word	0x1
 2059 00da 68        		.byte	0x68
 2060 00db 7600 0000 		.long	.LVL12-.Ltext0
 2061 00df EC01 0000 		.long	.LVL14-.Ltext0
 2062 00e3 0100      		.word	0x1
 2063 00e5 61        		.byte	0x61
 2064 00e6 F801 0000 		.long	.LVL16-.Ltext0
 2065 00ea FA01 0000 		.long	.LVL17-.Ltext0
GAS LISTING /tmp/ccUM190a.s 			page 45


 2066 00ee 0500      		.word	0x5
 2067 00f0 03        		.byte	0x3
 2068 00f1 0000 0000 		.long	g_usartData
 2069 00f5 0000 0000 		.long	0
 2070 00f9 0000 0000 		.long	0
 2071               	.LLST6:
 2072 00fd 5A00 0000 		.long	.LVL9-.Ltext0
 2073 0101 6800 0000 		.long	.LVL10-.Ltext0
 2074 0105 0100      		.word	0x1
 2075 0107 68        		.byte	0x68
 2076 0108 EC01 0000 		.long	.LVL14-.Ltext0
 2077 010c EE01 0000 		.long	.LVL15-.Ltext0
 2078 0110 0100      		.word	0x1
 2079 0112 68        		.byte	0x68
 2080 0113 0000 0000 		.long	0
 2081 0117 0000 0000 		.long	0
 2082               	.LLST7:
 2083 011b 7400 0000 		.long	.LVL11-.Ltext0
 2084 011f 8600 0000 		.long	.LVL13-.Ltext0
 2085 0123 0200      		.word	0x2
 2086 0125 44        		.byte	0x44
 2087 0126 9F        		.byte	0x9f
 2088 0127 0000 0000 		.long	0
 2089 012b 0000 0000 		.long	0
 2090               	.LLST8:
 2091 012f 7400 0000 		.long	.LVL11-.Ltext0
 2092 0133 8600 0000 		.long	.LVL13-.Ltext0
 2093 0137 0200      		.word	0x2
 2094 0139 31        		.byte	0x31
 2095 013a 9F        		.byte	0x9f
 2096 013b 0000 0000 		.long	0
 2097 013f 0000 0000 		.long	0
 2098               		.section	.debug_aranges,"",@progbits
 2099 0000 1C00 0000 		.long	0x1c
 2100 0004 0200      		.word	0x2
 2101 0006 0000 0000 		.long	.Ldebug_info0
 2102 000a 04        		.byte	0x4
 2103 000b 00        		.byte	0
 2104 000c 0000      		.word	0
 2105 000e 0000      		.word	0
 2106 0010 0000 0000 		.long	.Ltext0
 2107 0014 0402 0000 		.long	.Letext0-.Ltext0
 2108 0018 0000 0000 		.long	0
 2109 001c 0000 0000 		.long	0
 2110               		.section	.debug_line,"",@progbits
 2111               	.Ldebug_line0:
 2112 0000 3202 0000 		.section	.debug_str,"MS",@progbits,1
 2112      0200 B001 
 2112      0000 0201 
 2112      FB0E 0A00 
 2112      0101 0101 
 2113               	.LASF40:
 2114 0000 5443 5F57 		.string	"TC_WGMODE_NORMAL_gc"
 2114      474D 4F44 
 2114      455F 4E4F 
 2114      524D 414C 
 2114      5F67 6300 
GAS LISTING /tmp/ccUM190a.s 			page 46


 2115               	.LASF80:
 2116 0014 5345 545F 		.string	"SET_ALL_RGB"
 2116      414C 4C5F 
 2116      5247 4200 
 2117               	.LASF97:
 2118 0020 6368 6563 		.string	"checksum"
 2118      6B73 756D 
 2118      00
 2119               	.LASF8:
 2120 0029 7569 6E74 		.string	"uint64_t"
 2120      3634 5F74 
 2120      00
 2121               	.LASF90:
 2122 0032 6172 6368 		.string	"arch_ioport_set_pin_level"
 2122      5F69 6F70 
 2122      6F72 745F 
 2122      7365 745F 
 2122      7069 6E5F 
 2123               	.LASF14:
 2124 004c 534C 4545 		.string	"SLEEP_SMODE_STDBY_gc"
 2124      505F 534D 
 2124      4F44 455F 
 2124      5354 4442 
 2124      595F 6763 
 2125               	.LASF82:
 2126 0061 5345 545F 		.string	"SET_NUM_LEDS"
 2126      4E55 4D5F 
 2126      4C45 4453 
 2126      00
 2127               	.LASF9:
 2128 006e 6C6F 6E67 		.string	"long long unsigned int"
 2128      206C 6F6E 
 2128      6720 756E 
 2128      7369 676E 
 2128      6564 2069 
 2129               	.LASF12:
 2130 0085 534C 4545 		.string	"SLEEP_SMODE_PDOWN_gc"
 2130      505F 534D 
 2130      4F44 455F 
 2130      5044 4F57 
 2130      4E5F 6763 
 2131               	.LASF98:
 2132 009a 7573 625F 		.string	"usb_ready"
 2132      7265 6164 
 2132      7900 
 2133               	.LASF34:
 2134 00a4 5049 4E35 		.string	"PIN5CTRL"
 2134      4354 524C 
 2134      00
 2135               	.LASF118:
 2136 00ad 6461 7461 		.string	"data_buffer"
 2136      5F62 7566 
 2136      6665 7200 
 2137               	.LASF109:
 2138 00b9 675F 636D 		.string	"g_cmdState"
 2138      6453 7461 
 2138      7465 00
GAS LISTING /tmp/ccUM190a.s 			page 47


 2139               	.LASF76:
 2140 00c4 5354 4154 		.string	"STATE_DONE"
 2140      455F 444F 
 2140      4E45 00
 2141               	.LASF21:
 2142 00cf 4F55 5454 		.string	"OUTTGL"
 2142      474C 00
 2143               	.LASF7:
 2144 00d6 6C6F 6E67 		.string	"long long int"
 2144      206C 6F6E 
 2144      6720 696E 
 2144      7400 
 2145               	.LASF0:
 2146 00e4 7369 676E 		.string	"signed char"
 2146      6564 2063 
 2146      6861 7200 
 2147               	.LASF23:
 2148 00f0 494E 5430 		.string	"INT0MASK"
 2148      4D41 534B 
 2148      00
 2149               	.LASF95:
 2150 00f9 6672 6F6D 		.string	"from_isr"
 2150      5F69 7372 
 2150      00
 2151               	.LASF105:
 2152 0102 7074 725F 		.string	"ptr_put"
 2152      7075 7400 
 2153               	.LASF42:
 2154 010a 5443 5F57 		.string	"TC_WGMODE_SINGLESLOPE_gc"
 2154      474D 4F44 
 2154      455F 5349 
 2154      4E47 4C45 
 2154      534C 4F50 
 2155               	.LASF5:
 2156 0123 6C6F 6E67 		.string	"long int"
 2156      2069 6E74 
 2156      00
 2157               	.LASF66:
 2158 012c 696F 706F 		.string	"ioport_port_t"
 2158      7274 5F70 
 2158      6F72 745F 
 2158      7400 
 2159               	.LASF31:
 2160 013a 5049 4E32 		.string	"PIN2CTRL"
 2160      4354 524C 
 2160      00
 2161               	.LASF3:
 2162 0143 7569 6E74 		.string	"uint16_t"
 2162      3136 5F74 
 2162      00
 2163               	.LASF64:
 2164 014c 646F 7562 		.string	"double"
 2164      6C65 00
 2165               	.LASF77:
 2166 0153 5345 545F 		.string	"SET_ARRAY"
 2166      4152 5241 
 2166      5900 
GAS LISTING /tmp/ccUM190a.s 			page 48


 2167               	.LASF123:
 2168 015d 7372 632F 		.string	"src/usb.c"
 2168      7573 622E 
 2168      6300 
 2169               	.LASF125:
 2170 0167 7573 625F 		.string	"usb_checksum"
 2170      6368 6563 
 2170      6B73 756D 
 2170      00
 2171               	.LASF13:
 2172 0174 534C 4545 		.string	"SLEEP_SMODE_PSAVE_gc"
 2172      505F 534D 
 2172      4F44 455F 
 2172      5053 4156 
 2172      455F 6763 
 2173               	.LASF51:
 2174 0189 5553 4152 		.string	"USART_struct"
 2174      545F 7374 
 2174      7275 6374 
 2174      00
 2175               	.LASF48:
 2176 0196 5443 5F57 		.string	"TC_WGMODE_DSBOTTOM_gc"
 2176      474D 4F44 
 2176      455F 4453 
 2176      424F 5454 
 2176      4F4D 5F67 
 2177               	.LASF85:
 2178 01ac 6172 6368 		.string	"arch_ioport_port_to_base"
 2178      5F69 6F70 
 2178      6F72 745F 
 2178      706F 7274 
 2178      5F74 6F5F 
 2179               	.LASF43:
 2180 01c5 5443 5F57 		.string	"TC_WGMODE_SS_gc"
 2180      474D 4F44 
 2180      455F 5353 
 2180      5F67 6300 
 2181               	.LASF71:
 2182 01d5 5354 4154 		.string	"STATE_IDLE"
 2182      455F 4944 
 2182      4C45 00
 2183               	.LASF86:
 2184 01e0 706F 7274 		.string	"port"
 2184      00
 2185               	.LASF4:
 2186 01e5 756E 7369 		.string	"unsigned int"
 2186      676E 6564 
 2186      2069 6E74 
 2186      00
 2187               	.LASF72:
 2188 01f2 5354 4154 		.string	"STATE_START"
 2188      455F 5354 
 2188      4152 5400 
 2189               	.LASF93:
 2190 01fe 6F75 7470 		.string	"output"
 2190      7574 00
 2191               	.LASF68:
GAS LISTING /tmp/ccUM190a.s 			page 49


 2192 0205 706F 7274 		.string	"port_pin_t"
 2192      5F70 696E 
 2192      5F74 00
 2193               	.LASF27:
 2194 0210 5245 4D41 		.string	"REMAP"
 2194      5000 
 2195               	.LASF36:
 2196 0216 5049 4E37 		.string	"PIN7CTRL"
 2196      4354 524C 
 2196      00
 2197               	.LASF89:
 2198 021f 6C65 7665 		.string	"level"
 2198      6C00 
 2199               	.LASF91:
 2200 0225 696F 706F 		.string	"ioport_set_pin_high"
 2200      7274 5F73 
 2200      6574 5F70 
 2200      696E 5F68 
 2200      6967 6800 
 2201               	.LASF62:
 2202 0239 7368 6F72 		.string	"short unsigned int"
 2202      7420 756E 
 2202      7369 676E 
 2202      6564 2069 
 2202      6E74 00
 2203               	.LASF110:
 2204 024c 675F 7573 		.string	"g_usbCommand"
 2204      6243 6F6D 
 2204      6D61 6E64 
 2204      00
 2205               	.LASF126:
 2206 0259 7072 6F63 		.string	"process_usb"
 2206      6573 735F 
 2206      7573 6200 
 2207               	.LASF52:
 2208 0265 4441 5441 		.string	"DATA"
 2208      00
 2209               	.LASF60:
 2210 026a 5553 4152 		.string	"USART_t"
 2210      545F 7400 
 2211               	.LASF39:
 2212 0272 5443 5F57 		.string	"TC_WGMODE_enum"
 2212      474D 4F44 
 2212      455F 656E 
 2212      756D 00
 2213               	.LASF94:
 2214 0281 6361 6C63 		.string	"calc"
 2214      00
 2215               	.LASF17:
 2216 0286 4449 5243 		.string	"DIRCLR"
 2216      4C52 00
 2217               	.LASF54:
 2218 028d 7265 7365 		.string	"reserved_0x02"
 2218      7276 6564 
 2218      5F30 7830 
 2218      3200 
 2219               	.LASF101:
GAS LISTING /tmp/ccUM190a.s 			page 50


 2220 029b 6261 7365 		.string	"base"
 2220      00
 2221               	.LASF33:
 2222 02a0 5049 4E34 		.string	"PIN4CTRL"
 2222      4354 524C 
 2222      00
 2223               	.LASF67:
 2224 02a9 696F 706F 		.string	"ioport_port_mask_t"
 2224      7274 5F70 
 2224      6F72 745F 
 2224      6D61 736B 
 2224      5F74 00
 2225               	.LASF38:
 2226 02bc 534C 4545 		.string	"SLEEP_SMODE_enum"
 2226      505F 534D 
 2226      4F44 455F 
 2226      656E 756D 
 2226      00
 2227               	.LASF20:
 2228 02cd 4F55 5443 		.string	"OUTCLR"
 2228      4C52 00
 2229               	.LASF115:
 2230 02d4 7469 636B 		.string	"ticks"
 2230      7300 
 2231               	.LASF108:
 2232 02da 675F 7573 		.string	"g_usartData"
 2232      6172 7444 
 2232      6174 6100 
 2233               	.LASF28:
 2234 02e6 7265 7365 		.string	"reserved_0x0F"
 2234      7276 6564 
 2234      5F30 7830 
 2234      4600 
 2235               	.LASF15:
 2236 02f4 534C 4545 		.string	"SLEEP_SMODE_ESTDBY_gc"
 2236      505F 534D 
 2236      4F44 455F 
 2236      4553 5444 
 2236      4259 5F67 
 2237               	.LASF111:
 2238 030a 675F 7573 		.string	"g_usbDataLength"
 2238      6244 6174 
 2238      614C 656E 
 2238      6774 6800 
 2239               	.LASF25:
 2240 031a 494E 5446 		.string	"INTFLAGS"
 2240      4C41 4753 
 2240      00
 2241               	.LASF74:
 2242 0323 5354 4154 		.string	"STATE_RECEIVE"
 2242      455F 5245 
 2242      4345 4956 
 2242      4500 
 2243               	.LASF37:
 2244 0331 504F 5254 		.string	"PORT_t"
 2244      5F74 00
 2245               	.LASF116:
GAS LISTING /tmp/ccUM190a.s 			page 51


 2246 0338 6E75 6D5F 		.string	"num_leds"
 2246      6C65 6473 
 2246      00
 2247               	.LASF10:
 2248 0341 7569 6E74 		.string	"uintptr_t"
 2248      7074 725F 
 2248      7400 
 2249               	.LASF104:
 2250 034b 7374 6469 		.string	"stdio_base"
 2250      6F5F 6261 
 2250      7365 00
 2251               	.LASF63:
 2252 0356 666C 6F61 		.string	"float"
 2252      7400 
 2253               	.LASF30:
 2254 035c 5049 4E31 		.string	"PIN1CTRL"
 2254      4354 524C 
 2254      00
 2255               	.LASF26:
 2256 0365 7265 7365 		.string	"reserved_0x0D"
 2256      7276 6564 
 2256      5F30 7830 
 2256      4400 
 2257               	.LASF83:
 2258 0373 4745 545F 		.string	"GET_NUM_LEDS"
 2258      4E55 4D5F 
 2258      4C45 4453 
 2258      00
 2259               	.LASF56:
 2260 0380 4354 524C 		.string	"CTRLB"
 2260      4200 
 2261               	.LASF57:
 2262 0386 4354 524C 		.string	"CTRLC"
 2262      4300 
 2263               	.LASF100:
 2264 038c 736C 6565 		.string	"sleepmgr_configs"
 2264      706D 6772 
 2264      5F63 6F6E 
 2264      6669 6773 
 2264      00
 2265               	.LASF11:
 2266 039d 534C 4545 		.string	"SLEEP_SMODE_IDLE_gc"
 2266      505F 534D 
 2266      4F44 455F 
 2266      4944 4C45 
 2266      5F67 6300 
 2267               	.LASF81:
 2268 03b1 4944 454E 		.string	"IDENTIFY"
 2268      5449 4659 
 2268      00
 2269               	.LASF120:
 2270 03ba 6469 7274 		.string	"dirty"
 2270      7900 
 2271               	.LASF70:
 2272 03c0 5F42 6F6F 		.string	"_Bool"
 2272      6C00 
 2273               	.LASF1:
GAS LISTING /tmp/ccUM190a.s 			page 52


 2274 03c6 756E 7369 		.string	"unsigned char"
 2274      676E 6564 
 2274      2063 6861 
 2274      7200 
 2275               	.LASF113:
 2276 03d4 675F 7573 		.string	"g_usbDataBuffer"
 2276      6244 6174 
 2276      6142 7566 
 2276      6665 7200 
 2277               	.LASF59:
 2278 03e4 4241 5544 		.string	"BAUDCTRLB"
 2278      4354 524C 
 2278      4200 
 2279               	.LASF41:
 2280 03ee 5443 5F57 		.string	"TC_WGMODE_FRQ_gc"
 2280      474D 4F44 
 2280      455F 4652 
 2280      515F 6763 
 2280      00
 2281               	.LASF49:
 2282 03ff 5443 5F57 		.string	"TC_WGMODE_DS_B_gc"
 2282      474D 4F44 
 2282      455F 4453 
 2282      5F42 5F67 
 2282      6300 
 2283               	.LASF61:
 2284 0411 7368 6F72 		.string	"short int"
 2284      7420 696E 
 2284      7400 
 2285               	.LASF114:
 2286 041b 5553 425F 		.string	"USB_STATE"
 2286      5354 4154 
 2286      4500 
 2287               	.LASF45:
 2288 0425 5443 5F57 		.string	"TC_WGMODE_DS_T_gc"
 2288      474D 4F44 
 2288      455F 4453 
 2288      5F54 5F67 
 2288      6300 
 2289               	.LASF19:
 2290 0437 4F55 5453 		.string	"OUTSET"
 2290      4554 00
 2291               	.LASF106:
 2292 043e 7074 725F 		.string	"ptr_get"
 2292      6765 7400 
 2293               	.LASF92:
 2294 0446 696E 7075 		.string	"input"
 2294      7400 
 2295               	.LASF78:
 2296 044c 424C 4143 		.string	"BLACKOUT"
 2296      4B4F 5554 
 2296      00
 2297               	.LASF35:
 2298 0455 5049 4E36 		.string	"PIN6CTRL"
 2298      4354 524C 
 2298      00
 2299               	.LASF47:
GAS LISTING /tmp/ccUM190a.s 			page 53


 2300 045e 5443 5F57 		.string	"TC_WGMODE_DS_TB_gc"
 2300      474D 4F44 
 2300      455F 4453 
 2300      5F54 425F 
 2300      6763 00
 2301               	.LASF122:
 2302 0471 474E 5520 		.string	"GNU C 4.6.2"
 2302      4320 342E 
 2302      362E 3200 
 2303               	.LASF75:
 2304 047d 5354 4154 		.string	"STATE_CHECKSUM"
 2304      455F 4348 
 2304      4543 4B53 
 2304      554D 00
 2305               	.LASF6:
 2306 048c 6C6F 6E67 		.string	"long unsigned int"
 2306      2075 6E73 
 2306      6967 6E65 
 2306      6420 696E 
 2306      7400 
 2307               	.LASF119:
 2308 049e 6461 7461 		.string	"data_pointer"
 2308      5F70 6F69 
 2308      6E74 6572 
 2308      00
 2309               	.LASF69:
 2310 04ab 6368 6172 		.string	"char"
 2310      00
 2311               	.LASF88:
 2312 04b0 6172 6368 		.string	"arch_ioport_pin_to_mask"
 2312      5F69 6F70 
 2312      6F72 745F 
 2312      7069 6E5F 
 2312      746F 5F6D 
 2313               	.LASF46:
 2314 04c8 5443 5F57 		.string	"TC_WGMODE_DSBOTH_gc"
 2314      474D 4F44 
 2314      455F 4453 
 2314      424F 5448 
 2314      5F67 6300 
 2315               	.LASF24:
 2316 04dc 494E 5431 		.string	"INT1MASK"
 2316      4D41 534B 
 2316      00
 2317               	.LASF50:
 2318 04e5 504F 5254 		.string	"PORT_struct"
 2318      5F73 7472 
 2318      7563 7400 
 2319               	.LASF55:
 2320 04f1 4354 524C 		.string	"CTRLA"
 2320      4100 
 2321               	.LASF96:
 2322 04f7 696E 6279 		.string	"inbyte"
 2322      7465 00
 2323               	.LASF44:
 2324 04fe 5443 5F57 		.string	"TC_WGMODE_DSTOP_gc"
 2324      474D 4F44 
GAS LISTING /tmp/ccUM190a.s 			page 54


 2324      455F 4453 
 2324      544F 505F 
 2324      6763 00
 2325               	.LASF16:
 2326 0511 4449 5253 		.string	"DIRSET"
 2326      4554 00
 2327               	.LASF53:
 2328 0518 5354 4154 		.string	"STATUS"
 2328      5553 00
 2329               	.LASF22:
 2330 051f 494E 5443 		.string	"INTCTRL"
 2330      5452 4C00 
 2331               	.LASF79:
 2332 0527 5345 545F 		.string	"SET_ALL"
 2332      414C 4C00 
 2333               	.LASF65:
 2334 052f 696F 706F 		.string	"ioport_pin_t"
 2334      7274 5F70 
 2334      696E 5F74 
 2334      00
 2335               	.LASF117:
 2336 053c 6E75 6D5F 		.string	"num_bytes"
 2336      6279 7465 
 2336      7300 
 2337               	.LASF32:
 2338 0546 5049 4E33 		.string	"PIN3CTRL"
 2338      4354 524C 
 2338      00
 2339               	.LASF58:
 2340 054f 4241 5544 		.string	"BAUDCTRLA"
 2340      4354 524C 
 2340      4100 
 2341               	.LASF107:
 2342 0559 675F 6164 		.string	"g_address"
 2342      6472 6573 
 2342      7300 
 2343               	.LASF103:
 2344 0563 6261 7564 		.string	"baudctrl_32mhz"
 2344      6374 726C 
 2344      5F33 326D 
 2344      687A 00
 2345               	.LASF18:
 2346 0572 4449 5254 		.string	"DIRTGL"
 2346      474C 00
 2347               	.LASF121:
 2348 0579 434F 4D4D 		.string	"COMMAND_TYPE"
 2348      414E 445F 
 2348      5459 5045 
 2348      00
 2349               	.LASF2:
 2350 0586 7569 6E74 		.string	"uint8_t"
 2350      385F 7400 
 2351               	.LASF84:
 2352 058e 6172 6368 		.string	"arch_ioport_pin_to_port_id"
 2352      5F69 6F70 
 2352      6F72 745F 
 2352      7069 6E5F 
GAS LISTING /tmp/ccUM190a.s 			page 55


 2352      746F 5F70 
 2353               	.LASF124:
 2354 05a9 2F68 6F6D 		.ascii	"/home/jevans/Dropbox/projects/openlights/hardware/1"
 2354      652F 6A65 
 2354      7661 6E73 
 2354      2F44 726F 
 2354      7062 6F78 
 2355 05dc 3230 3039 		.string	"2009_Strip_Controller/firmware/strandcontroller/StrandController"
 2355      5F53 7472 
 2355      6970 5F43 
 2355      6F6E 7472 
 2355      6F6C 6C65 
 2356               	.LASF73:
 2357 061d 5354 4154 		.string	"STATE_ADDRESS"
 2357      455F 4144 
 2357      4452 4553 
 2357      5300 
 2358               	.LASF99:
 2359 062b 736C 6565 		.string	"sleepmgr_locks"
 2359      706D 6772 
 2359      5F6C 6F63 
 2359      6B73 00
 2360               	.LASF112:
 2361 063a 675F 7573 		.string	"g_usbDataCount"
 2361      6244 6174 
 2361      6143 6F75 
 2361      6E74 00
 2362               	.LASF102:
 2363 0649 6261 7564 		.string	"baudctrl_2mhz"
 2363      6374 726C 
 2363      5F32 6D68 
 2363      7A00 
 2364               	.LASF87:
 2365 0657 6172 6368 		.string	"arch_ioport_pin_to_base"
 2365      5F69 6F70 
 2365      6F72 745F 
 2365      7069 6E5F 
 2365      746F 5F62 
 2366               	.LASF29:
 2367 066f 5049 4E30 		.string	"PIN0CTRL"
 2367      4354 524C 
 2367      00
GAS LISTING /tmp/ccUM190a.s 			page 56


DEFINED SYMBOLS
                            *ABS*:0000000000000000 usb.c
     /tmp/ccUM190a.s:2      *ABS*:000000000000003f __SREG__
     /tmp/ccUM190a.s:3      *ABS*:000000000000003e __SP_H__
     /tmp/ccUM190a.s:4      *ABS*:000000000000003d __SP_L__
     /tmp/ccUM190a.s:5      *ABS*:0000000000000034 __CCP__
     /tmp/ccUM190a.s:6      *ABS*:0000000000000000 __tmp_reg__
     /tmp/ccUM190a.s:7      *ABS*:0000000000000001 __zero_reg__
     /tmp/ccUM190a.s:15     .text:0000000000000000 usb_checksum
                            *COM*:0000000000000002 g_usbDataLength
                            *COM*:000000000000024a g_usbDataBuffer
     /tmp/ccUM190a.s:86     .text:0000000000000048 process_usb
                            *COM*:0000000000000001 g_cmdState
                            *COM*:0000000000000001 g_address
                            *COM*:0000000000000002 g_usbDataCount
                            *COM*:0000000000000001 g_usbCommand
                            *COM*:0000000000000001 g_usartData
                            *COM*:0000000000000001 COMMAND_TYPE
                            *COM*:0000000000000001 dirty
                            *COM*:0000000000000002 data_pointer
                            *COM*:0000000000000240 data_buffer
                            *COM*:0000000000000002 num_bytes
                            *COM*:0000000000000002 num_leds
                            *COM*:0000000000000008 ticks
                            *COM*:0000000000000001 USB_STATE

UNDEFINED SYMBOLS
__do_copy_data
__do_clear_bss
udi_cdc_is_rx_ready
udi_cdc_getc
usart_putchar
udi_cdc_putc
process_command
